
arduino io.elf:     file format elf32-avr

Sections:
Idx Name          Size      VMA       LMA       File off  Algn
  0 .data         00000006  00800200  00001f60  00001ff4  2**0
                  CONTENTS, ALLOC, LOAD, DATA
  1 .text         00001f60  00000000  00000000  00000094  2**1
                  CONTENTS, ALLOC, LOAD, READONLY, CODE
  2 .bss          00000329  00800206  00800206  00001ffa  2**0
                  ALLOC
  3 .comment      00000030  00000000  00000000  00001ffa  2**0
                  CONTENTS, READONLY
  4 .note.gnu.avr.deviceinfo 00000040  00000000  00000000  0000202c  2**2
                  CONTENTS, READONLY
  5 .debug_aranges 000002d0  00000000  00000000  0000206c  2**0
                  CONTENTS, READONLY, DEBUGGING
  6 .debug_info   0000610e  00000000  00000000  0000233c  2**0
                  CONTENTS, READONLY, DEBUGGING
  7 .debug_abbrev 00001fde  00000000  00000000  0000844a  2**0
                  CONTENTS, READONLY, DEBUGGING
  8 .debug_line   0000196c  00000000  00000000  0000a428  2**0
                  CONTENTS, READONLY, DEBUGGING
  9 .debug_frame  00000754  00000000  00000000  0000bd94  2**2
                  CONTENTS, READONLY, DEBUGGING
 10 .debug_str    00001101  00000000  00000000  0000c4e8  2**0
                  CONTENTS, READONLY, DEBUGGING
 11 .debug_loc    00001e77  00000000  00000000  0000d5e9  2**0
                  CONTENTS, READONLY, DEBUGGING
 12 .debug_ranges 000002d0  00000000  00000000  0000f460  2**0
                  CONTENTS, READONLY, DEBUGGING

Disassembly of section .text:

00000000 <__vectors>:
       0:	db c3       	rjmp	.+1974   	; 0x7b8 <__dtors_end>
       2:	00 00       	nop
       4:	09 c4       	rjmp	.+2066   	; 0x818 <__bad_interrupt>
       6:	00 00       	nop
       8:	07 c4       	rjmp	.+2062   	; 0x818 <__bad_interrupt>
       a:	00 00       	nop
       c:	05 c4       	rjmp	.+2058   	; 0x818 <__bad_interrupt>
       e:	00 00       	nop
      10:	03 c4       	rjmp	.+2054   	; 0x818 <__bad_interrupt>
      12:	00 00       	nop
      14:	01 c4       	rjmp	.+2050   	; 0x818 <__bad_interrupt>
      16:	00 00       	nop
      18:	ff c3       	rjmp	.+2046   	; 0x818 <__bad_interrupt>
      1a:	00 00       	nop
      1c:	fd c3       	rjmp	.+2042   	; 0x818 <__bad_interrupt>
      1e:	00 00       	nop
      20:	fb c3       	rjmp	.+2038   	; 0x818 <__bad_interrupt>
      22:	00 00       	nop
      24:	f9 c3       	rjmp	.+2034   	; 0x818 <__bad_interrupt>
      26:	00 00       	nop
      28:	f7 c3       	rjmp	.+2030   	; 0x818 <__bad_interrupt>
      2a:	00 00       	nop
      2c:	f5 c3       	rjmp	.+2026   	; 0x818 <__bad_interrupt>
      2e:	00 00       	nop
      30:	f3 c3       	rjmp	.+2022   	; 0x818 <__bad_interrupt>
      32:	00 00       	nop
      34:	f1 c3       	rjmp	.+2018   	; 0x818 <__bad_interrupt>
      36:	00 00       	nop
      38:	ef c3       	rjmp	.+2014   	; 0x818 <__bad_interrupt>
      3a:	00 00       	nop
      3c:	ed c3       	rjmp	.+2010   	; 0x818 <__bad_interrupt>
      3e:	00 00       	nop
      40:	eb c3       	rjmp	.+2006   	; 0x818 <__bad_interrupt>
      42:	00 00       	nop
      44:	e9 c3       	rjmp	.+2002   	; 0x818 <__bad_interrupt>
      46:	00 00       	nop
      48:	41 c6       	rjmp	.+3202   	; 0xccc <__vector_18>
      4a:	00 00       	nop
      4c:	e5 c3       	rjmp	.+1994   	; 0x818 <__bad_interrupt>
      4e:	00 00       	nop
      50:	e3 c3       	rjmp	.+1990   	; 0x818 <__bad_interrupt>
      52:	00 00       	nop
      54:	e1 c3       	rjmp	.+1986   	; 0x818 <__bad_interrupt>
      56:	00 00       	nop
      58:	df c3       	rjmp	.+1982   	; 0x818 <__bad_interrupt>
      5a:	00 00       	nop
      5c:	dd c3       	rjmp	.+1978   	; 0x818 <__bad_interrupt>
      5e:	00 00       	nop
      60:	db c3       	rjmp	.+1974   	; 0x818 <__bad_interrupt>
      62:	00 00       	nop
      64:	0c 94 eb 0d 	jmp	0x1bd6	; 0x1bd6 <__vector_25>
      68:	d7 c3       	rjmp	.+1966   	; 0x818 <__bad_interrupt>
      6a:	00 00       	nop
      6c:	d5 c3       	rjmp	.+1962   	; 0x818 <__bad_interrupt>
      6e:	00 00       	nop
      70:	d3 c3       	rjmp	.+1958   	; 0x818 <__bad_interrupt>
      72:	00 00       	nop
      74:	0c 94 3b 0c 	jmp	0x1876	; 0x1876 <__vector_29>
      78:	cf c3       	rjmp	.+1950   	; 0x818 <__bad_interrupt>
      7a:	00 00       	nop
      7c:	cd c3       	rjmp	.+1946   	; 0x818 <__bad_interrupt>
      7e:	00 00       	nop
      80:	0c 94 08 0c 	jmp	0x1810	; 0x1810 <__vector_32>
      84:	c9 c3       	rjmp	.+1938   	; 0x818 <__bad_interrupt>
      86:	00 00       	nop
      88:	c7 c3       	rjmp	.+1934   	; 0x818 <__bad_interrupt>
      8a:	00 00       	nop
      8c:	c5 c3       	rjmp	.+1930   	; 0x818 <__bad_interrupt>
      8e:	00 00       	nop
      90:	0c 94 24 0e 	jmp	0x1c48	; 0x1c48 <__vector_36>
      94:	c1 c3       	rjmp	.+1922   	; 0x818 <__bad_interrupt>
      96:	00 00       	nop
      98:	bf c3       	rjmp	.+1918   	; 0x818 <__bad_interrupt>
      9a:	00 00       	nop
      9c:	bd c3       	rjmp	.+1914   	; 0x818 <__bad_interrupt>
      9e:	00 00       	nop
      a0:	bb c3       	rjmp	.+1910   	; 0x818 <__bad_interrupt>
      a2:	00 00       	nop
      a4:	b9 c3       	rjmp	.+1906   	; 0x818 <__bad_interrupt>
      a6:	00 00       	nop
      a8:	b7 c3       	rjmp	.+1902   	; 0x818 <__bad_interrupt>
      aa:	00 00       	nop
      ac:	b5 c3       	rjmp	.+1898   	; 0x818 <__bad_interrupt>
      ae:	00 00       	nop
      b0:	b3 c3       	rjmp	.+1894   	; 0x818 <__bad_interrupt>
      b2:	00 00       	nop
      b4:	b1 c3       	rjmp	.+1890   	; 0x818 <__bad_interrupt>
      b6:	00 00       	nop
      b8:	af c3       	rjmp	.+1886   	; 0x818 <__bad_interrupt>
      ba:	00 00       	nop
      bc:	ad c3       	rjmp	.+1882   	; 0x818 <__bad_interrupt>
      be:	00 00       	nop
      c0:	ab c3       	rjmp	.+1878   	; 0x818 <__bad_interrupt>
      c2:	00 00       	nop
      c4:	a9 c3       	rjmp	.+1874   	; 0x818 <__bad_interrupt>
      c6:	00 00       	nop
      c8:	a7 c3       	rjmp	.+1870   	; 0x818 <__bad_interrupt>
      ca:	00 00       	nop
      cc:	a5 c3       	rjmp	.+1866   	; 0x818 <__bad_interrupt>
      ce:	00 00       	nop
      d0:	a3 c3       	rjmp	.+1862   	; 0x818 <__bad_interrupt>
      d2:	00 00       	nop
      d4:	a1 c3       	rjmp	.+1858   	; 0x818 <__bad_interrupt>
      d6:	00 00       	nop
      d8:	9f c3       	rjmp	.+1854   	; 0x818 <__bad_interrupt>
      da:	00 00       	nop
      dc:	9d c3       	rjmp	.+1850   	; 0x818 <__bad_interrupt>
      de:	00 00       	nop
      e0:	9b c3       	rjmp	.+1846   	; 0x818 <__bad_interrupt>
      e2:	00 00       	nop
      e4:	7a 05       	cpc	r23, r10
      e6:	76 05       	cpc	r23, r6
      e8:	72 05       	cpc	r23, r2
      ea:	6e 05       	cpc	r22, r14
      ec:	6a 05       	cpc	r22, r10
      ee:	66 05       	cpc	r22, r6
      f0:	62 05       	cpc	r22, r2
      f2:	85 05       	cpc	r24, r5
      f4:	7a 05       	cpc	r23, r10
      f6:	76 05       	cpc	r23, r6
      f8:	72 05       	cpc	r23, r2
      fa:	6e 05       	cpc	r22, r14
      fc:	6a 05       	cpc	r22, r10
      fe:	66 05       	cpc	r22, r6
     100:	62 05       	cpc	r22, r2
     102:	7e 05       	cpc	r23, r14

00000104 <__trampolines_end>:
     104:	ea ff       	.word	0xffea	; ????
     106:	ea ff       	.word	0xffea	; ????
     108:	ea ff       	.word	0xffea	; ????
     10a:	eb ff       	.word	0xffeb	; ????
     10c:	eb ff       	.word	0xffeb	; ????
     10e:	eb ff       	.word	0xffeb	; ????
     110:	ec ff       	.word	0xffec	; ????
     112:	ec ff       	.word	0xffec	; ????
     114:	ec ff       	.word	0xffec	; ????
     116:	ed ff       	.word	0xffed	; ????
     118:	ed ff       	.word	0xffed	; ????
     11a:	ed ff       	.word	0xffed	; ????
     11c:	ee ff       	.word	0xffee	; ????
     11e:	ee ff       	.word	0xffee	; ????
     120:	ee ff       	.word	0xffee	; ????
     122:	ef ff       	.word	0xffef	; ????
     124:	ef ff       	.word	0xffef	; ????
     126:	ef ff       	.word	0xffef	; ????
     128:	f0 ff       	sbrs	r31, 0
     12a:	f0 ff       	sbrs	r31, 0
     12c:	f0 ff       	sbrs	r31, 0
     12e:	f1 ff       	sbrs	r31, 1
     130:	f1 ff       	sbrs	r31, 1
     132:	f1 ff       	sbrs	r31, 1
     134:	f2 ff       	sbrs	r31, 2
     136:	f2 ff       	sbrs	r31, 2
     138:	f2 ff       	sbrs	r31, 2
     13a:	f3 ff       	sbrs	r31, 3
     13c:	f3 ff       	sbrs	r31, 3
     13e:	f4 ff       	sbrs	r31, 4
     140:	f4 ff       	sbrs	r31, 4
     142:	f4 ff       	sbrs	r31, 4
     144:	f5 ff       	sbrs	r31, 5
     146:	f5 ff       	sbrs	r31, 5
     148:	f5 ff       	sbrs	r31, 5
     14a:	f6 ff       	sbrs	r31, 6
     14c:	f6 ff       	sbrs	r31, 6
     14e:	f6 ff       	sbrs	r31, 6
     150:	f7 ff       	sbrs	r31, 7
     152:	f7 ff       	sbrs	r31, 7
     154:	f7 ff       	sbrs	r31, 7
     156:	f8 ff       	.word	0xfff8	; ????
     158:	f8 ff       	.word	0xfff8	; ????
     15a:	f8 ff       	.word	0xfff8	; ????
     15c:	f9 ff       	.word	0xfff9	; ????
     15e:	f9 ff       	.word	0xfff9	; ????
     160:	f9 ff       	.word	0xfff9	; ????
     162:	fa ff       	.word	0xfffa	; ????
     164:	fa ff       	.word	0xfffa	; ????
     166:	fb ff       	.word	0xfffb	; ????
     168:	fb ff       	.word	0xfffb	; ????
     16a:	fb ff       	.word	0xfffb	; ????
     16c:	fc ff       	.word	0xfffc	; ????
     16e:	fc ff       	.word	0xfffc	; ????
     170:	fc ff       	.word	0xfffc	; ????
     172:	fd ff       	.word	0xfffd	; ????
     174:	fd ff       	.word	0xfffd	; ????
     176:	fd ff       	.word	0xfffd	; ????
     178:	fe ff       	.word	0xfffe	; ????
     17a:	fe ff       	.word	0xfffe	; ????
     17c:	ff ff       	.word	0xffff	; ????
     17e:	ff ff       	.word	0xffff	; ????
     180:	ff ff       	.word	0xffff	; ????
     182:	00 00       	nop
     184:	00 00       	nop
     186:	00 00       	nop
     188:	01 00       	.word	0x0001	; ????
     18a:	01 00       	.word	0x0001	; ????
     18c:	01 00       	.word	0x0001	; ????
     18e:	02 00       	.word	0x0002	; ????
     190:	02 00       	.word	0x0002	; ????
     192:	03 00       	.word	0x0003	; ????
     194:	03 00       	.word	0x0003	; ????
     196:	03 00       	.word	0x0003	; ????
     198:	04 00       	.word	0x0004	; ????
     19a:	04 00       	.word	0x0004	; ????
     19c:	04 00       	.word	0x0004	; ????
     19e:	05 00       	.word	0x0005	; ????
     1a0:	05 00       	.word	0x0005	; ????
     1a2:	05 00       	.word	0x0005	; ????
     1a4:	06 00       	.word	0x0006	; ????
     1a6:	06 00       	.word	0x0006	; ????
     1a8:	07 00       	.word	0x0007	; ????
     1aa:	07 00       	.word	0x0007	; ????
     1ac:	07 00       	.word	0x0007	; ????
     1ae:	08 00       	.word	0x0008	; ????
     1b0:	08 00       	.word	0x0008	; ????
     1b2:	08 00       	.word	0x0008	; ????
     1b4:	09 00       	.word	0x0009	; ????
     1b6:	09 00       	.word	0x0009	; ????
     1b8:	0a 00       	.word	0x000a	; ????
     1ba:	0a 00       	.word	0x000a	; ????
     1bc:	0a 00       	.word	0x000a	; ????
     1be:	0b 00       	.word	0x000b	; ????
     1c0:	0b 00       	.word	0x000b	; ????
     1c2:	0b 00       	.word	0x000b	; ????
     1c4:	0c 00       	.word	0x000c	; ????
     1c6:	0c 00       	.word	0x000c	; ????
     1c8:	0d 00       	.word	0x000d	; ????
     1ca:	0d 00       	.word	0x000d	; ????
     1cc:	0d 00       	.word	0x000d	; ????
     1ce:	0e 00       	.word	0x000e	; ????
     1d0:	0e 00       	.word	0x000e	; ????
     1d2:	0f 00       	.word	0x000f	; ????
     1d4:	0f 00       	.word	0x000f	; ????
     1d6:	0f 00       	.word	0x000f	; ????
     1d8:	10 00       	.word	0x0010	; ????
     1da:	10 00       	.word	0x0010	; ????
     1dc:	10 00       	.word	0x0010	; ????
     1de:	11 00       	.word	0x0011	; ????
     1e0:	11 00       	.word	0x0011	; ????
     1e2:	12 00       	.word	0x0012	; ????
     1e4:	12 00       	.word	0x0012	; ????
     1e6:	12 00       	.word	0x0012	; ????
     1e8:	13 00       	.word	0x0013	; ????
     1ea:	13 00       	.word	0x0013	; ????
     1ec:	14 00       	.word	0x0014	; ????
     1ee:	14 00       	.word	0x0014	; ????
     1f0:	14 00       	.word	0x0014	; ????
     1f2:	15 00       	.word	0x0015	; ????
     1f4:	15 00       	.word	0x0015	; ????
     1f6:	15 00       	.word	0x0015	; ????
     1f8:	16 00       	.word	0x0016	; ????
     1fa:	16 00       	.word	0x0016	; ????
     1fc:	17 00       	.word	0x0017	; ????
     1fe:	17 00       	.word	0x0017	; ????
     200:	17 00       	.word	0x0017	; ????
     202:	18 00       	.word	0x0018	; ????
     204:	18 00       	.word	0x0018	; ????
     206:	19 00       	.word	0x0019	; ????
     208:	19 00       	.word	0x0019	; ????
     20a:	19 00       	.word	0x0019	; ????
     20c:	1a 00       	.word	0x001a	; ????
     20e:	1a 00       	.word	0x001a	; ????
     210:	1b 00       	.word	0x001b	; ????
     212:	1b 00       	.word	0x001b	; ????
     214:	1b 00       	.word	0x001b	; ????
     216:	1c 00       	.word	0x001c	; ????
     218:	1c 00       	.word	0x001c	; ????
     21a:	1d 00       	.word	0x001d	; ????
     21c:	1d 00       	.word	0x001d	; ????
     21e:	1d 00       	.word	0x001d	; ????
     220:	1e 00       	.word	0x001e	; ????
     222:	1e 00       	.word	0x001e	; ????
     224:	1f 00       	.word	0x001f	; ????
     226:	1f 00       	.word	0x001f	; ????
     228:	1f 00       	.word	0x001f	; ????
     22a:	20 00       	.word	0x0020	; ????
     22c:	20 00       	.word	0x0020	; ????
     22e:	21 00       	.word	0x0021	; ????
     230:	21 00       	.word	0x0021	; ????
     232:	22 00       	.word	0x0022	; ????
     234:	22 00       	.word	0x0022	; ????
     236:	22 00       	.word	0x0022	; ????
     238:	23 00       	.word	0x0023	; ????
     23a:	23 00       	.word	0x0023	; ????
     23c:	24 00       	.word	0x0024	; ????
     23e:	24 00       	.word	0x0024	; ????
     240:	24 00       	.word	0x0024	; ????
     242:	25 00       	.word	0x0025	; ????
     244:	25 00       	.word	0x0025	; ????
     246:	26 00       	.word	0x0026	; ????
     248:	26 00       	.word	0x0026	; ????
     24a:	26 00       	.word	0x0026	; ????
     24c:	27 00       	.word	0x0027	; ????
     24e:	27 00       	.word	0x0027	; ????
     250:	28 00       	.word	0x0028	; ????
     252:	28 00       	.word	0x0028	; ????
     254:	29 00       	.word	0x0029	; ????
     256:	29 00       	.word	0x0029	; ????
     258:	29 00       	.word	0x0029	; ????
     25a:	2a 00       	.word	0x002a	; ????
     25c:	2a 00       	.word	0x002a	; ????
     25e:	2b 00       	.word	0x002b	; ????
     260:	2b 00       	.word	0x002b	; ????
     262:	2b 00       	.word	0x002b	; ????
     264:	2c 00       	.word	0x002c	; ????
     266:	2c 00       	.word	0x002c	; ????
     268:	2d 00       	.word	0x002d	; ????
     26a:	2d 00       	.word	0x002d	; ????
     26c:	2e 00       	.word	0x002e	; ????
     26e:	2e 00       	.word	0x002e	; ????
     270:	2e 00       	.word	0x002e	; ????
     272:	2f 00       	.word	0x002f	; ????
     274:	2f 00       	.word	0x002f	; ????
     276:	30 00       	.word	0x0030	; ????
     278:	30 00       	.word	0x0030	; ????
     27a:	31 00       	.word	0x0031	; ????
     27c:	31 00       	.word	0x0031	; ????
     27e:	31 00       	.word	0x0031	; ????
     280:	32 00       	.word	0x0032	; ????
     282:	32 00       	.word	0x0032	; ????
     284:	33 00       	.word	0x0033	; ????
     286:	33 00       	.word	0x0033	; ????
     288:	34 00       	.word	0x0034	; ????
     28a:	34 00       	.word	0x0034	; ????
     28c:	34 00       	.word	0x0034	; ????
     28e:	35 00       	.word	0x0035	; ????
     290:	35 00       	.word	0x0035	; ????
     292:	36 00       	.word	0x0036	; ????
     294:	36 00       	.word	0x0036	; ????
     296:	37 00       	.word	0x0037	; ????
     298:	37 00       	.word	0x0037	; ????
     29a:	38 00       	.word	0x0038	; ????
     29c:	38 00       	.word	0x0038	; ????
     29e:	38 00       	.word	0x0038	; ????
     2a0:	39 00       	.word	0x0039	; ????
     2a2:	39 00       	.word	0x0039	; ????
     2a4:	3a 00       	.word	0x003a	; ????
     2a6:	3a 00       	.word	0x003a	; ????
     2a8:	3b 00       	.word	0x003b	; ????
     2aa:	3b 00       	.word	0x003b	; ????
     2ac:	3c 00       	.word	0x003c	; ????
     2ae:	3c 00       	.word	0x003c	; ????
     2b0:	3c 00       	.word	0x003c	; ????
     2b2:	3d 00       	.word	0x003d	; ????
     2b4:	3d 00       	.word	0x003d	; ????
     2b6:	3e 00       	.word	0x003e	; ????
     2b8:	3e 00       	.word	0x003e	; ????
     2ba:	3f 00       	.word	0x003f	; ????
     2bc:	3f 00       	.word	0x003f	; ????
     2be:	40 00       	.word	0x0040	; ????
     2c0:	40 00       	.word	0x0040	; ????
     2c2:	40 00       	.word	0x0040	; ????
     2c4:	41 00       	.word	0x0041	; ????
     2c6:	41 00       	.word	0x0041	; ????
     2c8:	42 00       	.word	0x0042	; ????
     2ca:	42 00       	.word	0x0042	; ????
     2cc:	43 00       	.word	0x0043	; ????
     2ce:	43 00       	.word	0x0043	; ????
     2d0:	44 00       	.word	0x0044	; ????
     2d2:	44 00       	.word	0x0044	; ????
     2d4:	45 00       	.word	0x0045	; ????
     2d6:	45 00       	.word	0x0045	; ????
     2d8:	46 00       	.word	0x0046	; ????
     2da:	46 00       	.word	0x0046	; ????
     2dc:	46 00       	.word	0x0046	; ????
     2de:	47 00       	.word	0x0047	; ????
     2e0:	47 00       	.word	0x0047	; ????
     2e2:	48 00       	.word	0x0048	; ????
     2e4:	48 00       	.word	0x0048	; ????
     2e6:	49 00       	.word	0x0049	; ????
     2e8:	49 00       	.word	0x0049	; ????
     2ea:	4a 00       	.word	0x004a	; ????
     2ec:	4a 00       	.word	0x004a	; ????
     2ee:	4b 00       	.word	0x004b	; ????
     2f0:	4b 00       	.word	0x004b	; ????
     2f2:	4c 00       	.word	0x004c	; ????
     2f4:	4c 00       	.word	0x004c	; ????
     2f6:	4c 00       	.word	0x004c	; ????
     2f8:	4d 00       	.word	0x004d	; ????
     2fa:	4d 00       	.word	0x004d	; ????
     2fc:	4e 00       	.word	0x004e	; ????
     2fe:	4e 00       	.word	0x004e	; ????
     300:	4f 00       	.word	0x004f	; ????
     302:	4f 00       	.word	0x004f	; ????
     304:	50 00       	.word	0x0050	; ????
     306:	50 00       	.word	0x0050	; ????
     308:	51 00       	.word	0x0051	; ????
     30a:	51 00       	.word	0x0051	; ????
     30c:	52 00       	.word	0x0052	; ????
     30e:	52 00       	.word	0x0052	; ????
     310:	53 00       	.word	0x0053	; ????
     312:	53 00       	.word	0x0053	; ????
     314:	54 00       	.word	0x0054	; ????
     316:	54 00       	.word	0x0054	; ????
     318:	55 00       	.word	0x0055	; ????
     31a:	55 00       	.word	0x0055	; ????
     31c:	56 00       	.word	0x0056	; ????
     31e:	56 00       	.word	0x0056	; ????
     320:	57 00       	.word	0x0057	; ????
     322:	57 00       	.word	0x0057	; ????
     324:	57 00       	.word	0x0057	; ????
     326:	58 00       	.word	0x0058	; ????
     328:	58 00       	.word	0x0058	; ????
     32a:	59 00       	.word	0x0059	; ????
     32c:	59 00       	.word	0x0059	; ????
     32e:	5a 00       	.word	0x005a	; ????
     330:	5a 00       	.word	0x005a	; ????
     332:	5b 00       	.word	0x005b	; ????
     334:	5b 00       	.word	0x005b	; ????
     336:	5c 00       	.word	0x005c	; ????
     338:	5c 00       	.word	0x005c	; ????
     33a:	5d 00       	.word	0x005d	; ????
     33c:	5d 00       	.word	0x005d	; ????
     33e:	5e 00       	.word	0x005e	; ????
     340:	5e 00       	.word	0x005e	; ????
     342:	5f 00       	.word	0x005f	; ????
     344:	5f 00       	.word	0x005f	; ????
     346:	60 00       	.word	0x0060	; ????
     348:	60 00       	.word	0x0060	; ????
     34a:	61 00       	.word	0x0061	; ????
     34c:	61 00       	.word	0x0061	; ????
     34e:	62 00       	.word	0x0062	; ????
     350:	62 00       	.word	0x0062	; ????
     352:	63 00       	.word	0x0063	; ????
     354:	63 00       	.word	0x0063	; ????
     356:	64 00       	.word	0x0064	; ????
     358:	64 00       	.word	0x0064	; ????
     35a:	65 00       	.word	0x0065	; ????
     35c:	65 00       	.word	0x0065	; ????
     35e:	66 00       	.word	0x0066	; ????
     360:	66 00       	.word	0x0066	; ????
     362:	67 00       	.word	0x0067	; ????
     364:	67 00       	.word	0x0067	; ????
     366:	68 00       	.word	0x0068	; ????
     368:	68 00       	.word	0x0068	; ????
     36a:	69 00       	.word	0x0069	; ????
     36c:	69 00       	.word	0x0069	; ????
     36e:	6a 00       	.word	0x006a	; ????
     370:	6b 00       	.word	0x006b	; ????
     372:	6b 00       	.word	0x006b	; ????
     374:	6c 00       	.word	0x006c	; ????
     376:	6c 00       	.word	0x006c	; ????
     378:	6d 00       	.word	0x006d	; ????
     37a:	6d 00       	.word	0x006d	; ????
     37c:	6e 00       	.word	0x006e	; ????
     37e:	6e 00       	.word	0x006e	; ????
     380:	6f 00       	.word	0x006f	; ????
     382:	6f 00       	.word	0x006f	; ????
     384:	70 00       	.word	0x0070	; ????
     386:	70 00       	.word	0x0070	; ????
     388:	71 00       	.word	0x0071	; ????
     38a:	71 00       	.word	0x0071	; ????
     38c:	72 00       	.word	0x0072	; ????
     38e:	72 00       	.word	0x0072	; ????
     390:	73 00       	.word	0x0073	; ????
     392:	73 00       	.word	0x0073	; ????
     394:	74 00       	.word	0x0074	; ????
     396:	74 00       	.word	0x0074	; ????
     398:	75 00       	.word	0x0075	; ????
     39a:	76 00       	.word	0x0076	; ????
     39c:	76 00       	.word	0x0076	; ????
     39e:	77 00       	.word	0x0077	; ????
     3a0:	77 00       	.word	0x0077	; ????
     3a2:	78 00       	.word	0x0078	; ????
     3a4:	78 00       	.word	0x0078	; ????
     3a6:	79 00       	.word	0x0079	; ????
     3a8:	79 00       	.word	0x0079	; ????
     3aa:	7a 00       	.word	0x007a	; ????
     3ac:	7a 00       	.word	0x007a	; ????
     3ae:	7b 00       	.word	0x007b	; ????
     3b0:	7b 00       	.word	0x007b	; ????
     3b2:	7c 00       	.word	0x007c	; ????
     3b4:	7d 00       	.word	0x007d	; ????
     3b6:	7d 00       	.word	0x007d	; ????
     3b8:	7e 00       	.word	0x007e	; ????
     3ba:	7e 00       	.word	0x007e	; ????
     3bc:	7f 00       	.word	0x007f	; ????
     3be:	7f 00       	.word	0x007f	; ????
     3c0:	80 00       	.word	0x0080	; ????
     3c2:	80 00       	.word	0x0080	; ????
     3c4:	81 00       	.word	0x0081	; ????
     3c6:	81 00       	.word	0x0081	; ????
     3c8:	82 00       	.word	0x0082	; ????
     3ca:	83 00       	.word	0x0083	; ????
     3cc:	83 00       	.word	0x0083	; ????
     3ce:	84 00       	.word	0x0084	; ????
     3d0:	84 00       	.word	0x0084	; ????
     3d2:	85 00       	.word	0x0085	; ????
     3d4:	85 00       	.word	0x0085	; ????
     3d6:	86 00       	.word	0x0086	; ????
     3d8:	86 00       	.word	0x0086	; ????
     3da:	87 00       	.word	0x0087	; ????
     3dc:	88 00       	.word	0x0088	; ????
     3de:	88 00       	.word	0x0088	; ????
     3e0:	89 00       	.word	0x0089	; ????
     3e2:	89 00       	.word	0x0089	; ????
     3e4:	8a 00       	.word	0x008a	; ????
     3e6:	8a 00       	.word	0x008a	; ????
     3e8:	8b 00       	.word	0x008b	; ????
     3ea:	8c 00       	.word	0x008c	; ????
     3ec:	8c 00       	.word	0x008c	; ????
     3ee:	8d 00       	.word	0x008d	; ????
     3f0:	8d 00       	.word	0x008d	; ????
     3f2:	8e 00       	.word	0x008e	; ????
     3f4:	8e 00       	.word	0x008e	; ????
     3f6:	8f 00       	.word	0x008f	; ????
     3f8:	90 00       	.word	0x0090	; ????
     3fa:	90 00       	.word	0x0090	; ????
     3fc:	91 00       	.word	0x0091	; ????
     3fe:	91 00       	.word	0x0091	; ????
     400:	92 00       	.word	0x0092	; ????
     402:	92 00       	.word	0x0092	; ????
     404:	93 00       	.word	0x0093	; ????
     406:	94 00       	.word	0x0094	; ????
     408:	94 00       	.word	0x0094	; ????
     40a:	95 00       	.word	0x0095	; ????
     40c:	95 00       	.word	0x0095	; ????
     40e:	96 00       	.word	0x0096	; ????
     410:	97 00       	.word	0x0097	; ????
     412:	97 00       	.word	0x0097	; ????
     414:	98 00       	.word	0x0098	; ????
     416:	98 00       	.word	0x0098	; ????
     418:	99 00       	.word	0x0099	; ????
     41a:	99 00       	.word	0x0099	; ????
     41c:	9a 00       	.word	0x009a	; ????
     41e:	9b 00       	.word	0x009b	; ????
     420:	9b 00       	.word	0x009b	; ????
     422:	9c 00       	.word	0x009c	; ????
     424:	9c 00       	.word	0x009c	; ????
     426:	9d 00       	.word	0x009d	; ????
     428:	9e 00       	.word	0x009e	; ????
     42a:	9e 00       	.word	0x009e	; ????
     42c:	9f 00       	.word	0x009f	; ????
     42e:	9f 00       	.word	0x009f	; ????
     430:	a0 00       	.word	0x00a0	; ????
     432:	a1 00       	.word	0x00a1	; ????
     434:	a1 00       	.word	0x00a1	; ????
     436:	a2 00       	.word	0x00a2	; ????
     438:	a2 00       	.word	0x00a2	; ????
     43a:	a3 00       	.word	0x00a3	; ????
     43c:	a4 00       	.word	0x00a4	; ????
     43e:	a4 00       	.word	0x00a4	; ????
     440:	a5 00       	.word	0x00a5	; ????
     442:	a5 00       	.word	0x00a5	; ????
     444:	a6 00       	.word	0x00a6	; ????
     446:	a7 00       	.word	0x00a7	; ????
     448:	a7 00       	.word	0x00a7	; ????
     44a:	a8 00       	.word	0x00a8	; ????
     44c:	a9 00       	.word	0x00a9	; ????
     44e:	a9 00       	.word	0x00a9	; ????
     450:	aa 00       	.word	0x00aa	; ????
     452:	aa 00       	.word	0x00aa	; ????
     454:	ab 00       	.word	0x00ab	; ????
     456:	ac 00       	.word	0x00ac	; ????
     458:	ac 00       	.word	0x00ac	; ????
     45a:	ad 00       	.word	0x00ad	; ????
     45c:	ae 00       	.word	0x00ae	; ????
     45e:	ae 00       	.word	0x00ae	; ????
     460:	af 00       	.word	0x00af	; ????

00000462 <_ZL7_pt2000>:
     462:	cb ff cc ff cd ff ce ff cf ff d0 ff d1 ff d2 ff     ................
     472:	d3 ff d4 ff d5 ff d6 ff d7 ff d8 ff d9 ff db ff     ................
     482:	dc ff dd ff de ff df ff e0 ff e1 ff e3 ff e4 ff     ................
     492:	e5 ff e6 ff e7 ff e8 ff ea ff eb ff ec ff ed ff     ................
     4a2:	ef ff f0 ff f1 ff f2 ff f4 ff f5 ff f6 ff f8 ff     ................
     4b2:	f9 ff fa ff fc ff fd ff fe ff 00 00 01 00 02 00     ................
     4c2:	04 00 05 00 07 00 08 00 09 00 0b 00 0c 00 0e 00     ................
     4d2:	0f 00 11 00 12 00 14 00 15 00 17 00 18 00 1a 00     ................
     4e2:	1b 00 1d 00 1e 00 20 00 21 00 23 00 24 00 26 00     ...... .!.#.$.&.
     4f2:	28 00 29 00 2b 00 2c 00 2e 00 30 00 31 00 33 00     (.).+.,...0.1.3.
     502:	35 00 36 00 38 00 3a 00 3b 00 3d 00 3f 00 40 00     5.6.8.:.;.=.?.@.
     512:	42 00 44 00 46 00 47 00 49 00 4b 00 4d 00 4e 00     B.D.F.G.I.K.M.N.
     522:	50 00 52 00 54 00 56 00 57 00 59 00 5b 00 5d 00     P.R.T.V.W.Y.[.].
     532:	5f 00 61 00 63 00 65 00 66 00 68 00 6a 00 6c 00     _.a.c.e.f.h.j.l.
     542:	6e 00 70 00 72 00 74 00 76 00 78 00 7a 00 7c 00     n.p.r.t.v.x.z.|.
     552:	7e 00 80 00 82 00 84 00 86 00 88 00 8a 00 8c 00     ~...............
     562:	8e 00 90 00 92 00 94 00 96 00 98 00 9b 00 9d 00     ................
     572:	9f 00 a1 00 a3 00 a5 00 a7 00 aa 00 ac 00 ae 00     ................
     582:	b0 00 b2 00 b4 00 b7 00 b9 00 bb 00 bd 00 c0 00     ................
     592:	c2 00 c4 00 c6 00 c9 00 cb 00 cd 00 d0 00 d2 00     ................
     5a2:	d4 00 d7 00 d9 00 db 00 de 00 e0 00 e2 00 e5 00     ................
     5b2:	e7 00 ea 00 ec 00 ef 00 f1 00 f3 00 f6 00 f8 00     ................
     5c2:	fb 00 fd 00 00 01 02 01 05 01 07 01 0a 01 0c 01     ................
     5d2:	0f 01 11 01 14 01 16 01 19 01 1c 01 1e 01 21 01     ..............!.
     5e2:	23 01 26 01 29 01 2b 01 2e 01 30 01 33 01 36 01     #.&.).+...0.3.6.
     5f2:	38 01 3b 01 3e 01 40 01 43 01 46 01 49 01 4b 01     8.;.>.@.C.F.I.K.
     602:	4e 01 51 01 54 01 56 01 59 01 5c 01 5f 01 61 01     N.Q.T.V.Y.\._.a.
     612:	64 01 67 01 6a 01 6d 01 6f 01 72 01 75 01 78 01     d.g.j.m.o.r.u.x.
     622:	7b 01 7e 01 81 01 84 01 86 01 89 01 8c 01 8f 01     {.~.............
     632:	92 01 95 01 98 01 9b 01 9e 01 a1 01 a4 01 a7 01     ................
     642:	aa 01 ad 01 b0 01 b3 01 b6 01 b9 01 bc 01 bf 01     ................
     652:	c2 01 c5 01 c8 01 cc 01 cf 01 d2 01 d5 01 d8 01     ................
     662:	db 01 de 01 e1 01 e5 01 e8 01 eb 01 ee 01 f1 01     ................
     672:	f5 01 f8 01 fb 01 fe 01 01 02 05 02 08 02 0b 02     ................
     682:	0e 02 12 02 15 02 18 02 1c 02 1f 02 22 02 26 02     ............".&.
     692:	29 02 2c 02 30 02 33 02 36 02 3a 02 3d 02 41 02     ).,.0.3.6.:.=.A.
     6a2:	44 02 47 02 4b 02 4e 02 52 02 55 02 59 02 5c 02     D.G.K.N.R.U.Y.\.
     6b2:	5f 02 63 02 66 02 6a 02 6d 02 71 02 75 02 78 02     _.c.f.j.m.q.u.x.
     6c2:	7c 02 7f 02 83 02 86 02 8a 02 8d 02 91 02 95 02     |...............
     6d2:	98 02 9c 02 9f 02 a3 02 a7 02 aa 02 ae 02 b2 02     ................
     6e2:	b5 02 b9 02 bd 02 c0 02 c4 02 c8 02 cc 02 cf 02     ................
     6f2:	d3 02 d7 02 db 02 de 02 e2 02 e6 02 ea 02 ee 02     ................
     702:	f1 02 f5 02 f9 02 fd 02 01 03 05 03 08 03 0c 03     ................
     712:	10 03 14 03 18 03 1c 03 20 03 24 03 28 03 2b 03     ........ .$.(.+.
     722:	2f 03 33 03 37 03 3b 03 3f 03 43 03 47 03 4b 03     /.3.7.;.?.C.G.K.
     732:	4f 03 53 03 57 03 5b 03 5f 03 63 03 68 03 6c 03     O.S.W.[._.c.h.l.
     742:	70 03 74 03 78 03 7c 03 80 03 84 03 88 03 8c 03     p.t.x.|.........
     752:	91 03 95 03 99 03 9d 03 a1 03 a6 03 aa 03 ae 03     ................
     762:	b2 03 b6 03 bb 03 bf 03 c3 03 c7 03 cc 03 d0 03     ................
     772:	d4 03 d8 03 dd 03 e1 03 e5 03 ea 03 ee 03 f2 03     ................
     782:	f7 03 fb 03 ff 03 04 04 08 04 0d 04 11 04 15 04     ................
     792:	1a 04 1e 04 23 04 27 04 2c 04 30 04 34 04 39 04     ....#.'.,.0.4.9.
     7a2:	3d 04 42 04 46 04 4b 04 4f 04 54 04 59 04 5d 04     =.B.F.K.O.T.Y.].

000007b2 <__ctors_start>:
     7b2:	7d 0c       	add	r7, r13
     7b4:	58 0e       	add	r5, r24

000007b6 <__ctors_end>:
     7b6:	84 0c       	add	r8, r4

000007b8 <__dtors_end>:
     7b8:	11 24       	eor	r1, r1
     7ba:	1f be       	out	0x3f, r1	; 63
     7bc:	cf ef       	ldi	r28, 0xFF	; 255
     7be:	d1 e2       	ldi	r29, 0x21	; 33
     7c0:	de bf       	out	0x3e, r29	; 62
     7c2:	cd bf       	out	0x3d, r28	; 61
     7c4:	00 e0       	ldi	r16, 0x00	; 0
     7c6:	0c bf       	out	0x3c, r16	; 60

000007c8 <__do_clear_bss>:
     7c8:	25 e0       	ldi	r18, 0x05	; 5
     7ca:	a6 e0       	ldi	r26, 0x06	; 6
     7cc:	b2 e0       	ldi	r27, 0x02	; 2
     7ce:	01 c0       	rjmp	.+2      	; 0x7d2 <.do_clear_bss_start>

000007d0 <.do_clear_bss_loop>:
     7d0:	1d 92       	st	X+, r1

000007d2 <.do_clear_bss_start>:
     7d2:	af 32       	cpi	r26, 0x2F	; 47
     7d4:	b2 07       	cpc	r27, r18
     7d6:	e1 f7       	brne	.-8      	; 0x7d0 <.do_clear_bss_loop>

000007d8 <__do_copy_data>:
     7d8:	12 e0       	ldi	r17, 0x02	; 2
     7da:	a0 e0       	ldi	r26, 0x00	; 0
     7dc:	b2 e0       	ldi	r27, 0x02	; 2
     7de:	e0 e6       	ldi	r30, 0x60	; 96
     7e0:	ff e1       	ldi	r31, 0x1F	; 31
     7e2:	00 e0       	ldi	r16, 0x00	; 0
     7e4:	0b bf       	out	0x3b, r16	; 59
     7e6:	02 c0       	rjmp	.+4      	; 0x7ec <__do_copy_data+0x14>
     7e8:	07 90       	elpm	r0, Z+
     7ea:	0d 92       	st	X+, r0
     7ec:	a6 30       	cpi	r26, 0x06	; 6
     7ee:	b1 07       	cpc	r27, r17
     7f0:	d9 f7       	brne	.-10     	; 0x7e8 <__do_copy_data+0x10>

000007f2 <__do_global_ctors>:
     7f2:	13 e0       	ldi	r17, 0x03	; 3
     7f4:	cb ed       	ldi	r28, 0xDB	; 219
     7f6:	d3 e0       	ldi	r29, 0x03	; 3
     7f8:	00 e0       	ldi	r16, 0x00	; 0
     7fa:	06 c0       	rjmp	.+12     	; 0x808 <__do_global_ctors+0x16>
     7fc:	21 97       	sbiw	r28, 0x01	; 1
     7fe:	01 09       	sbc	r16, r1
     800:	80 2f       	mov	r24, r16
     802:	fe 01       	movw	r30, r28
     804:	0e 94 5b 0e 	call	0x1cb6	; 0x1cb6 <__tablejump2__>
     808:	c9 3d       	cpi	r28, 0xD9	; 217
     80a:	d1 07       	cpc	r29, r17
     80c:	80 e0       	ldi	r24, 0x00	; 0
     80e:	08 07       	cpc	r16, r24
     810:	a9 f7       	brne	.-22     	; 0x7fc <__do_global_ctors+0xa>
     812:	cf d7       	rcall	.+3998   	; 0x17b2 <main>
     814:	0c 94 9f 0f 	jmp	0x1f3e	; 0x1f3e <__do_global_dtors>

00000818 <__bad_interrupt>:
     818:	f3 cb       	rjmp	.-2074   	; 0x0 <__vectors>

0000081a <_ZN22AnalogDigitalConverterC1Ev>:
		ADCval = _pt2000Start + _pt2000size-1;
	}
	int16_t offset=ADCval-_pt2000Start;
	
	return (int16_t)pgm_read_word(&_pt2000[offset]);
}
     81a:	ef 92       	push	r14
     81c:	ff 92       	push	r15
     81e:	0f 93       	push	r16
     820:	1f 93       	push	r17
     822:	cf 93       	push	r28
     824:	df 93       	push	r29
     826:	8c 01       	movw	r16, r24
     828:	ec 01       	movw	r28, r24
     82a:	7c 01       	movw	r14, r24
     82c:	80 e8       	ldi	r24, 0x80	; 128
     82e:	e8 1a       	sub	r14, r24
     830:	8e ef       	ldi	r24, 0xFE	; 254
     832:	f8 0a       	sbc	r15, r24
     834:	ce 01       	movw	r24, r28
     836:	0e 94 a0 0d 	call	0x1b40	; 0x1b40 <_ZN10iirlowpassC1Ev>
     83a:	68 96       	adiw	r28, 0x18	; 24
     83c:	ce 15       	cp	r28, r14
     83e:	df 05       	cpc	r29, r15
     840:	c9 f7       	brne	.-14     	; 0x834 <_ZN22AnalogDigitalConverterC1Ev+0x1a>
     842:	f8 01       	movw	r30, r16
     844:	e0 57       	subi	r30, 0x70	; 112
     846:	fe 4f       	sbci	r31, 0xFE	; 254
     848:	81 e0       	ldi	r24, 0x01	; 1
     84a:	80 83       	st	Z, r24
     84c:	70 96       	adiw	r30, 0x10	; 16
     84e:	80 83       	st	Z, r24
     850:	88 83       	st	Y, r24
     852:	3f 97       	sbiw	r30, 0x0f	; 15
     854:	80 83       	st	Z, r24
     856:	70 96       	adiw	r30, 0x10	; 16
     858:	80 83       	st	Z, r24
     85a:	b0 97       	sbiw	r30, 0x20	; 32
     85c:	80 83       	st	Z, r24
     85e:	71 96       	adiw	r30, 0x11	; 17
     860:	80 83       	st	Z, r24
     862:	70 96       	adiw	r30, 0x10	; 16
     864:	80 83       	st	Z, r24
     866:	b0 97       	sbiw	r30, 0x20	; 32
     868:	80 83       	st	Z, r24
     86a:	71 96       	adiw	r30, 0x11	; 17
     86c:	80 83       	st	Z, r24
     86e:	70 96       	adiw	r30, 0x10	; 16
     870:	80 83       	st	Z, r24
     872:	b0 97       	sbiw	r30, 0x20	; 32
     874:	80 83       	st	Z, r24
     876:	71 96       	adiw	r30, 0x11	; 17
     878:	80 83       	st	Z, r24
     87a:	70 96       	adiw	r30, 0x10	; 16
     87c:	80 83       	st	Z, r24
     87e:	b0 97       	sbiw	r30, 0x20	; 32
     880:	80 83       	st	Z, r24
     882:	71 96       	adiw	r30, 0x11	; 17
     884:	80 83       	st	Z, r24
     886:	70 96       	adiw	r30, 0x10	; 16
     888:	80 83       	st	Z, r24
     88a:	b0 97       	sbiw	r30, 0x20	; 32
     88c:	80 83       	st	Z, r24
     88e:	71 96       	adiw	r30, 0x11	; 17
     890:	80 83       	st	Z, r24
     892:	70 96       	adiw	r30, 0x10	; 16
     894:	80 83       	st	Z, r24
     896:	b0 97       	sbiw	r30, 0x20	; 32
     898:	80 83       	st	Z, r24
     89a:	71 96       	adiw	r30, 0x11	; 17
     89c:	80 83       	st	Z, r24
     89e:	70 96       	adiw	r30, 0x10	; 16
     8a0:	80 83       	st	Z, r24
     8a2:	b0 97       	sbiw	r30, 0x20	; 32
     8a4:	80 83       	st	Z, r24
     8a6:	71 96       	adiw	r30, 0x11	; 17
     8a8:	80 83       	st	Z, r24
     8aa:	70 96       	adiw	r30, 0x10	; 16
     8ac:	80 83       	st	Z, r24
     8ae:	b0 97       	sbiw	r30, 0x20	; 32
     8b0:	80 83       	st	Z, r24
     8b2:	71 96       	adiw	r30, 0x11	; 17
     8b4:	80 83       	st	Z, r24
     8b6:	70 96       	adiw	r30, 0x10	; 16
     8b8:	80 83       	st	Z, r24
     8ba:	b0 97       	sbiw	r30, 0x20	; 32
     8bc:	80 83       	st	Z, r24
     8be:	71 96       	adiw	r30, 0x11	; 17
     8c0:	80 83       	st	Z, r24
     8c2:	70 96       	adiw	r30, 0x10	; 16
     8c4:	80 83       	st	Z, r24
     8c6:	b0 97       	sbiw	r30, 0x20	; 32
     8c8:	80 83       	st	Z, r24
     8ca:	71 96       	adiw	r30, 0x11	; 17
     8cc:	80 83       	st	Z, r24
     8ce:	70 96       	adiw	r30, 0x10	; 16
     8d0:	80 83       	st	Z, r24
     8d2:	b0 97       	sbiw	r30, 0x20	; 32
     8d4:	80 83       	st	Z, r24
     8d6:	71 96       	adiw	r30, 0x11	; 17
     8d8:	80 83       	st	Z, r24
     8da:	70 96       	adiw	r30, 0x10	; 16
     8dc:	80 83       	st	Z, r24
     8de:	b0 97       	sbiw	r30, 0x20	; 32
     8e0:	80 83       	st	Z, r24
     8e2:	71 96       	adiw	r30, 0x11	; 17
     8e4:	80 83       	st	Z, r24
     8e6:	70 96       	adiw	r30, 0x10	; 16
     8e8:	80 83       	st	Z, r24
     8ea:	b0 97       	sbiw	r30, 0x20	; 32
     8ec:	80 83       	st	Z, r24
     8ee:	71 96       	adiw	r30, 0x11	; 17
     8f0:	80 83       	st	Z, r24
     8f2:	70 96       	adiw	r30, 0x10	; 16
     8f4:	80 83       	st	Z, r24
     8f6:	b0 97       	sbiw	r30, 0x20	; 32
     8f8:	80 83       	st	Z, r24
     8fa:	71 96       	adiw	r30, 0x11	; 17
     8fc:	80 83       	st	Z, r24
     8fe:	70 96       	adiw	r30, 0x10	; 16
     900:	80 83       	st	Z, r24
     902:	b0 97       	sbiw	r30, 0x20	; 32
     904:	80 83       	st	Z, r24
     906:	80 ec       	ldi	r24, 0xC0	; 192
     908:	80 93 7c 00 	sts	0x007C, r24	; 0x80007c <__TEXT_REGION_LENGTH__+0x70007c>
     90c:	8d ea       	ldi	r24, 0xAD	; 173
     90e:	80 93 7a 00 	sts	0x007A, r24	; 0x80007a <__TEXT_REGION_LENGTH__+0x70007a>
     912:	85 e0       	ldi	r24, 0x05	; 5
     914:	80 93 7b 00 	sts	0x007B, r24	; 0x80007b <__TEXT_REGION_LENGTH__+0x70007b>
     918:	b1 96       	adiw	r30, 0x21	; 33
     91a:	10 82       	st	Z, r1
     91c:	89 e0       	ldi	r24, 0x09	; 9
     91e:	80 93 81 00 	sts	0x0081, r24	; 0x800081 <__TEXT_REGION_LENGTH__+0x700081>
     922:	84 e0       	ldi	r24, 0x04	; 4
     924:	80 93 6f 00 	sts	0x006F, r24	; 0x80006f <__TEXT_REGION_LENGTH__+0x70006f>
     928:	81 e3       	ldi	r24, 0x31	; 49
     92a:	93 e2       	ldi	r25, 0x23	; 35
     92c:	90 93 89 00 	sts	0x0089, r25	; 0x800089 <__TEXT_REGION_LENGTH__+0x700089>
     930:	80 93 88 00 	sts	0x0088, r24	; 0x800088 <__TEXT_REGION_LENGTH__+0x700088>
     934:	8f ef       	ldi	r24, 0xFF	; 255
     936:	80 93 7e 00 	sts	0x007E, r24	; 0x80007e <__TEXT_REGION_LENGTH__+0x70007e>
     93a:	80 93 7d 00 	sts	0x007D, r24	; 0x80007d <__TEXT_REGION_LENGTH__+0x70007d>
     93e:	df 91       	pop	r29
     940:	cf 91       	pop	r28
     942:	1f 91       	pop	r17
     944:	0f 91       	pop	r16
     946:	ff 90       	pop	r15
     948:	ef 90       	pop	r14
     94a:	08 95       	ret

0000094c <_ZNV22AnalogDigitalConverter6sampleEv>:
     94c:	cf 92       	push	r12
     94e:	df 92       	push	r13
     950:	ef 92       	push	r14
     952:	ff 92       	push	r15
     954:	0f 93       	push	r16
     956:	1f 93       	push	r17
     958:	cf 93       	push	r28
     95a:	df 93       	push	r29
     95c:	9c 01       	movw	r18, r24
     95e:	ec 01       	movw	r28, r24
     960:	c0 55       	subi	r28, 0x50	; 80
     962:	de 4f       	sbci	r29, 0xFE	; 254
     964:	88 81       	ld	r24, Y
     966:	90 e0       	ldi	r25, 0x00	; 0
     968:	80 31       	cpi	r24, 0x10	; 16
     96a:	91 05       	cpc	r25, r1
     96c:	c0 f1       	brcs	.+112    	; 0x9de <_ZNV22AnalogDigitalConverter6sampleEv+0x92>
     96e:	00 e0       	ldi	r16, 0x00	; 0
     970:	10 e0       	ldi	r17, 0x00	; 0
     972:	88 81       	ld	r24, Y
     974:	f9 01       	movw	r30, r18
     976:	e8 0f       	add	r30, r24
     978:	f1 1d       	adc	r31, r1
     97a:	e0 56       	subi	r30, 0x60	; 96
     97c:	fe 4f       	sbci	r31, 0xFE	; 254
     97e:	80 81       	ld	r24, Z
     980:	88 23       	and	r24, r24
     982:	c1 f1       	breq	.+112    	; 0x9f4 <_ZNV22AnalogDigitalConverter6sampleEv+0xa8>
     984:	79 01       	movw	r14, r18
     986:	88 81       	ld	r24, Y
     988:	f9 01       	movw	r30, r18
     98a:	e8 0f       	add	r30, r24
     98c:	f1 1d       	adc	r31, r1
     98e:	e0 57       	subi	r30, 0x70	; 112
     990:	fe 4f       	sbci	r31, 0xFE	; 254
     992:	80 81       	ld	r24, Z
     994:	88 23       	and	r24, r24
     996:	09 f4       	brne	.+2      	; 0x99a <_ZNV22AnalogDigitalConverter6sampleEv+0x4e>
     998:	bf c0       	rjmp	.+382    	; 0xb18 <_ZNV22AnalogDigitalConverter6sampleEv+0x1cc>
     99a:	88 81       	ld	r24, Y
     99c:	f9 01       	movw	r30, r18
     99e:	e8 0f       	add	r30, r24
     9a0:	f1 1d       	adc	r31, r1
     9a2:	e0 58       	subi	r30, 0x80	; 128
     9a4:	fe 4f       	sbci	r31, 0xFE	; 254
     9a6:	80 81       	ld	r24, Z
     9a8:	88 23       	and	r24, r24
     9aa:	09 f4       	brne	.+2      	; 0x9ae <_ZNV22AnalogDigitalConverter6sampleEv+0x62>
     9ac:	d3 c0       	rjmp	.+422    	; 0xb54 <_ZNV22AnalogDigitalConverter6sampleEv+0x208>
     9ae:	88 81       	ld	r24, Y
     9b0:	f7 01       	movw	r30, r14
     9b2:	e8 0f       	add	r30, r24
     9b4:	f1 1d       	adc	r31, r1
     9b6:	e0 58       	subi	r30, 0x80	; 128
     9b8:	fe 4f       	sbci	r31, 0xFE	; 254
     9ba:	80 81       	ld	r24, Z
     9bc:	81 30       	cpi	r24, 0x01	; 1
     9be:	09 f4       	brne	.+2      	; 0x9c2 <_ZNV22AnalogDigitalConverter6sampleEv+0x76>
     9c0:	00 c1       	rjmp	.+512    	; 0xbc2 <_ZNV22AnalogDigitalConverter6sampleEv+0x276>
     9c2:	88 81       	ld	r24, Y
     9c4:	8f 30       	cpi	r24, 0x0F	; 15
     9c6:	08 f4       	brcc	.+2      	; 0x9ca <_ZNV22AnalogDigitalConverter6sampleEv+0x7e>
     9c8:	6d c0       	rjmp	.+218    	; 0xaa4 <_ZNV22AnalogDigitalConverter6sampleEv+0x158>
     9ca:	18 82       	st	Y, r1
     9cc:	df 91       	pop	r29
     9ce:	cf 91       	pop	r28
     9d0:	1f 91       	pop	r17
     9d2:	0f 91       	pop	r16
     9d4:	ff 90       	pop	r15
     9d6:	ef 90       	pop	r14
     9d8:	df 90       	pop	r13
     9da:	cf 90       	pop	r12
     9dc:	08 95       	ret
     9de:	fc 01       	movw	r30, r24
     9e0:	00 91 78 00 	lds	r16, 0x0078	; 0x800078 <__TEXT_REGION_LENGTH__+0x700078>
     9e4:	10 91 79 00 	lds	r17, 0x0079	; 0x800079 <__TEXT_REGION_LENGTH__+0x700079>
     9e8:	88 27       	eor	r24, r24
     9ea:	ee 58       	subi	r30, 0x8E	; 142
     9ec:	ff 4f       	sbci	r31, 0xFF	; 255
     9ee:	8f 4f       	sbci	r24, 0xFF	; 255
     9f0:	0c 94 5b 0e 	jmp	0x1cb6	; 0x1cb6 <__tablejump2__>
     9f4:	88 81       	ld	r24, Y
     9f6:	f9 01       	movw	r30, r18
     9f8:	e8 0f       	add	r30, r24
     9fa:	f1 1d       	adc	r31, r1
     9fc:	e0 57       	subi	r30, 0x70	; 112
     9fe:	fe 4f       	sbci	r31, 0xFE	; 254
     a00:	80 81       	ld	r24, Z
     a02:	88 23       	and	r24, r24
     a04:	09 f4       	brne	.+2      	; 0xa08 <_ZNV22AnalogDigitalConverter6sampleEv+0xbc>
     a06:	52 c0       	rjmp	.+164    	; 0xaac <_ZNV22AnalogDigitalConverter6sampleEv+0x160>
     a08:	88 81       	ld	r24, Y
     a0a:	f9 01       	movw	r30, r18
     a0c:	e8 0f       	add	r30, r24
     a0e:	f1 1d       	adc	r31, r1
     a10:	e0 58       	subi	r30, 0x80	; 128
     a12:	fe 4f       	sbci	r31, 0xFE	; 254
     a14:	80 81       	ld	r24, Z
     a16:	81 11       	cpse	r24, r1
     a18:	1d c0       	rjmp	.+58     	; 0xa54 <_ZNV22AnalogDigitalConverter6sampleEv+0x108>
     a1a:	88 81       	ld	r24, Y
     a1c:	90 e0       	ldi	r25, 0x00	; 0
     a1e:	00 39       	cpi	r16, 0x90	; 144
     a20:	41 e0       	ldi	r20, 0x01	; 1
     a22:	14 07       	cpc	r17, r20
     a24:	0c f4       	brge	.+2      	; 0xa28 <_ZNV22AnalogDigitalConverter6sampleEv+0xdc>
     a26:	c4 c0       	rjmp	.+392    	; 0xbb0 <_ZNV22AnalogDigitalConverter6sampleEv+0x264>
     a28:	0f 33       	cpi	r16, 0x3F	; 63
     a2a:	43 e0       	ldi	r20, 0x03	; 3
     a2c:	14 07       	cpc	r17, r20
     a2e:	0c f4       	brge	.+2      	; 0xa32 <_ZNV22AnalogDigitalConverter6sampleEv+0xe6>
     a30:	ef c0       	rjmp	.+478    	; 0xc10 <_ZNV22AnalogDigitalConverter6sampleEv+0x2c4>
     a32:	ee ea       	ldi	r30, 0xAE	; 174
     a34:	f1 e0       	ldi	r31, 0x01	; 1
     a36:	ee 0f       	add	r30, r30
     a38:	ff 1f       	adc	r31, r31
     a3a:	ec 5f       	subi	r30, 0xFC	; 252
     a3c:	fe 4f       	sbci	r31, 0xFE	; 254
     a3e:	45 91       	lpm	r20, Z+
     a40:	54 91       	lpm	r21, Z
     a42:	fc 01       	movw	r30, r24
     a44:	ee 0f       	add	r30, r30
     a46:	ff 1f       	adc	r31, r31
     a48:	e2 0f       	add	r30, r18
     a4a:	f3 1f       	adc	r31, r19
     a4c:	ef 54       	subi	r30, 0x4F	; 79
     a4e:	fe 4f       	sbci	r31, 0xFE	; 254
     a50:	51 83       	std	Z+1, r21	; 0x01
     a52:	40 83       	st	Z, r20
     a54:	88 81       	ld	r24, Y
     a56:	f9 01       	movw	r30, r18
     a58:	e8 0f       	add	r30, r24
     a5a:	f1 1d       	adc	r31, r1
     a5c:	e0 58       	subi	r30, 0x80	; 128
     a5e:	fe 4f       	sbci	r31, 0xFE	; 254
     a60:	80 81       	ld	r24, Z
     a62:	81 30       	cpi	r24, 0x01	; 1
     a64:	09 f0       	breq	.+2      	; 0xa68 <_ZNV22AnalogDigitalConverter6sampleEv+0x11c>
     a66:	ad cf       	rjmp	.-166    	; 0x9c2 <_ZNV22AnalogDigitalConverter6sampleEv+0x76>
     a68:	88 81       	ld	r24, Y
     a6a:	90 e0       	ldi	r25, 0x00	; 0
     a6c:	08 35       	cpi	r16, 0x58	; 88
     a6e:	42 e0       	ldi	r20, 0x02	; 2
     a70:	14 07       	cpc	r17, r20
     a72:	0c f4       	brge	.+2      	; 0xa76 <_ZNV22AnalogDigitalConverter6sampleEv+0x12a>
     a74:	a3 c0       	rjmp	.+326    	; 0xbbc <_ZNV22AnalogDigitalConverter6sampleEv+0x270>
     a76:	01 15       	cp	r16, r1
     a78:	44 e0       	ldi	r20, 0x04	; 4
     a7a:	14 07       	cpc	r17, r20
     a7c:	0c f4       	brge	.+2      	; 0xa80 <_ZNV22AnalogDigitalConverter6sampleEv+0x134>
     a7e:	cc c0       	rjmp	.+408    	; 0xc18 <_ZNV22AnalogDigitalConverter6sampleEv+0x2cc>
     a80:	e7 ea       	ldi	r30, 0xA7	; 167
     a82:	f1 e0       	ldi	r31, 0x01	; 1
     a84:	ee 0f       	add	r30, r30
     a86:	ff 1f       	adc	r31, r31
     a88:	ee 59       	subi	r30, 0x9E	; 158
     a8a:	fb 4f       	sbci	r31, 0xFB	; 251
     a8c:	45 91       	lpm	r20, Z+
     a8e:	54 91       	lpm	r21, Z
     a90:	88 0f       	add	r24, r24
     a92:	99 1f       	adc	r25, r25
     a94:	28 0f       	add	r18, r24
     a96:	39 1f       	adc	r19, r25
     a98:	f9 01       	movw	r30, r18
     a9a:	ef 54       	subi	r30, 0x4F	; 79
     a9c:	fe 4f       	sbci	r31, 0xFE	; 254
     a9e:	51 83       	std	Z+1, r21	; 0x01
     aa0:	40 83       	st	Z, r20
     aa2:	8f cf       	rjmp	.-226    	; 0x9c2 <_ZNV22AnalogDigitalConverter6sampleEv+0x76>
     aa4:	88 81       	ld	r24, Y
     aa6:	8f 5f       	subi	r24, 0xFF	; 255
     aa8:	88 83       	st	Y, r24
     aaa:	90 cf       	rjmp	.-224    	; 0x9cc <_ZNV22AnalogDigitalConverter6sampleEv+0x80>
     aac:	e8 81       	ld	r30, Y
     aae:	f0 e0       	ldi	r31, 0x00	; 0
     ab0:	ee 0f       	add	r30, r30
     ab2:	ff 1f       	adc	r31, r31
     ab4:	2e 0f       	add	r18, r30
     ab6:	3f 1f       	adc	r19, r31
     ab8:	f9 01       	movw	r30, r18
     aba:	ef 54       	subi	r30, 0x4F	; 79
     abc:	fe 4f       	sbci	r31, 0xFE	; 254
     abe:	11 83       	std	Z+1, r17	; 0x01
     ac0:	00 83       	st	Z, r16
     ac2:	7f cf       	rjmp	.-258    	; 0x9c2 <_ZNV22AnalogDigitalConverter6sampleEv+0x76>
     ac4:	87 ec       	ldi	r24, 0xC7	; 199
     ac6:	80 93 7c 00 	sts	0x007C, r24	; 0x80007c <__TEXT_REGION_LENGTH__+0x70007c>
     aca:	53 cf       	rjmp	.-346    	; 0x972 <_ZNV22AnalogDigitalConverter6sampleEv+0x26>
     acc:	86 ec       	ldi	r24, 0xC6	; 198
     ace:	80 93 7c 00 	sts	0x007C, r24	; 0x80007c <__TEXT_REGION_LENGTH__+0x70007c>
     ad2:	4f cf       	rjmp	.-354    	; 0x972 <_ZNV22AnalogDigitalConverter6sampleEv+0x26>
     ad4:	85 ec       	ldi	r24, 0xC5	; 197
     ad6:	80 93 7c 00 	sts	0x007C, r24	; 0x80007c <__TEXT_REGION_LENGTH__+0x70007c>
     ada:	4b cf       	rjmp	.-362    	; 0x972 <_ZNV22AnalogDigitalConverter6sampleEv+0x26>
     adc:	84 ec       	ldi	r24, 0xC4	; 196
     ade:	80 93 7c 00 	sts	0x007C, r24	; 0x80007c <__TEXT_REGION_LENGTH__+0x70007c>
     ae2:	47 cf       	rjmp	.-370    	; 0x972 <_ZNV22AnalogDigitalConverter6sampleEv+0x26>
     ae4:	83 ec       	ldi	r24, 0xC3	; 195
     ae6:	80 93 7c 00 	sts	0x007C, r24	; 0x80007c <__TEXT_REGION_LENGTH__+0x70007c>
     aea:	43 cf       	rjmp	.-378    	; 0x972 <_ZNV22AnalogDigitalConverter6sampleEv+0x26>
     aec:	82 ec       	ldi	r24, 0xC2	; 194
     aee:	80 93 7c 00 	sts	0x007C, r24	; 0x80007c <__TEXT_REGION_LENGTH__+0x70007c>
     af2:	3f cf       	rjmp	.-386    	; 0x972 <_ZNV22AnalogDigitalConverter6sampleEv+0x26>
     af4:	81 ec       	ldi	r24, 0xC1	; 193
     af6:	80 93 7c 00 	sts	0x007C, r24	; 0x80007c <__TEXT_REGION_LENGTH__+0x70007c>
     afa:	3b cf       	rjmp	.-394    	; 0x972 <_ZNV22AnalogDigitalConverter6sampleEv+0x26>
     afc:	80 ec       	ldi	r24, 0xC0	; 192
     afe:	80 93 7c 00 	sts	0x007C, r24	; 0x80007c <__TEXT_REGION_LENGTH__+0x70007c>
     b02:	85 e0       	ldi	r24, 0x05	; 5
     b04:	80 93 7b 00 	sts	0x007B, r24	; 0x80007b <__TEXT_REGION_LENGTH__+0x70007b>
     b08:	34 cf       	rjmp	.-408    	; 0x972 <_ZNV22AnalogDigitalConverter6sampleEv+0x26>
     b0a:	8d e0       	ldi	r24, 0x0D	; 13
     b0c:	80 93 7b 00 	sts	0x007B, r24	; 0x80007b <__TEXT_REGION_LENGTH__+0x70007b>
     b10:	80 ec       	ldi	r24, 0xC0	; 192
     b12:	80 93 7c 00 	sts	0x007C, r24	; 0x80007c <__TEXT_REGION_LENGTH__+0x70007c>
     b16:	2d cf       	rjmp	.-422    	; 0x972 <_ZNV22AnalogDigitalConverter6sampleEv+0x26>
     b18:	c8 80       	ld	r12, Y
     b1a:	d1 2c       	mov	r13, r1
     b1c:	88 81       	ld	r24, Y
     b1e:	90 e0       	ldi	r25, 0x00	; 0
     b20:	9c 01       	movw	r18, r24
     b22:	22 0f       	add	r18, r18
     b24:	33 1f       	adc	r19, r19
     b26:	82 0f       	add	r24, r18
     b28:	93 1f       	adc	r25, r19
     b2a:	88 0f       	add	r24, r24
     b2c:	99 1f       	adc	r25, r25
     b2e:	88 0f       	add	r24, r24
     b30:	99 1f       	adc	r25, r25
     b32:	88 0f       	add	r24, r24
     b34:	99 1f       	adc	r25, r25
     b36:	b8 01       	movw	r22, r16
     b38:	8e 0d       	add	r24, r14
     b3a:	9f 1d       	adc	r25, r15
     b3c:	f4 d6       	rcall	.+3560   	; 0x1926 <_ZNV10iirlowpass6sampleEi>
     b3e:	96 01       	movw	r18, r12
     b40:	22 0f       	add	r18, r18
     b42:	33 1f       	adc	r19, r19
     b44:	2e 0d       	add	r18, r14
     b46:	3f 1d       	adc	r19, r15
     b48:	f9 01       	movw	r30, r18
     b4a:	ef 54       	subi	r30, 0x4F	; 79
     b4c:	fe 4f       	sbci	r31, 0xFE	; 254
     b4e:	91 83       	std	Z+1, r25	; 0x01
     b50:	80 83       	st	Z, r24
     b52:	37 cf       	rjmp	.-402    	; 0x9c2 <_ZNV22AnalogDigitalConverter6sampleEv+0x76>
     b54:	c8 80       	ld	r12, Y
     b56:	d1 2c       	mov	r13, r1
     b58:	88 81       	ld	r24, Y
     b5a:	90 e0       	ldi	r25, 0x00	; 0
     b5c:	9c 01       	movw	r18, r24
     b5e:	22 0f       	add	r18, r18
     b60:	33 1f       	adc	r19, r19
     b62:	82 0f       	add	r24, r18
     b64:	93 1f       	adc	r25, r19
     b66:	88 0f       	add	r24, r24
     b68:	99 1f       	adc	r25, r25
     b6a:	88 0f       	add	r24, r24
     b6c:	99 1f       	adc	r25, r25
     b6e:	88 0f       	add	r24, r24
     b70:	99 1f       	adc	r25, r25
     b72:	b8 01       	movw	r22, r16
     b74:	8e 0d       	add	r24, r14
     b76:	9f 1d       	adc	r25, r15
     b78:	d6 d6       	rcall	.+3500   	; 0x1926 <_ZNV10iirlowpass6sampleEi>
     b7a:	80 39       	cpi	r24, 0x90	; 144
     b7c:	21 e0       	ldi	r18, 0x01	; 1
     b7e:	92 07       	cpc	r25, r18
     b80:	d4 f0       	brlt	.+52     	; 0xbb6 <_ZNV22AnalogDigitalConverter6sampleEv+0x26a>
     b82:	8f 33       	cpi	r24, 0x3F	; 63
     b84:	43 e0       	ldi	r20, 0x03	; 3
     b86:	94 07       	cpc	r25, r20
     b88:	0c f4       	brge	.+2      	; 0xb8c <_ZNV22AnalogDigitalConverter6sampleEv+0x240>
     b8a:	4a c0       	rjmp	.+148    	; 0xc20 <_ZNV22AnalogDigitalConverter6sampleEv+0x2d4>
     b8c:	ee ea       	ldi	r30, 0xAE	; 174
     b8e:	f1 e0       	ldi	r31, 0x01	; 1
     b90:	ee 0f       	add	r30, r30
     b92:	ff 1f       	adc	r31, r31
     b94:	ec 5f       	subi	r30, 0xFC	; 252
     b96:	fe 4f       	sbci	r31, 0xFE	; 254
     b98:	85 91       	lpm	r24, Z+
     b9a:	94 91       	lpm	r25, Z
     b9c:	f6 01       	movw	r30, r12
     b9e:	ee 0f       	add	r30, r30
     ba0:	ff 1f       	adc	r31, r31
     ba2:	ee 0d       	add	r30, r14
     ba4:	ff 1d       	adc	r31, r15
     ba6:	ef 54       	subi	r30, 0x4F	; 79
     ba8:	fe 4f       	sbci	r31, 0xFE	; 254
     baa:	91 83       	std	Z+1, r25	; 0x01
     bac:	80 83       	st	Z, r24
     bae:	ff ce       	rjmp	.-514    	; 0x9ae <_ZNV22AnalogDigitalConverter6sampleEv+0x62>
     bb0:	e0 e0       	ldi	r30, 0x00	; 0
     bb2:	f0 e0       	ldi	r31, 0x00	; 0
     bb4:	40 cf       	rjmp	.-384    	; 0xa36 <_ZNV22AnalogDigitalConverter6sampleEv+0xea>
     bb6:	e0 e0       	ldi	r30, 0x00	; 0
     bb8:	f0 e0       	ldi	r31, 0x00	; 0
     bba:	ea cf       	rjmp	.-44     	; 0xb90 <_ZNV22AnalogDigitalConverter6sampleEv+0x244>
     bbc:	e0 e0       	ldi	r30, 0x00	; 0
     bbe:	f0 e0       	ldi	r31, 0x00	; 0
     bc0:	61 cf       	rjmp	.-318    	; 0xa84 <_ZNV22AnalogDigitalConverter6sampleEv+0x138>
     bc2:	c8 80       	ld	r12, Y
     bc4:	d1 2c       	mov	r13, r1
     bc6:	88 81       	ld	r24, Y
     bc8:	90 e0       	ldi	r25, 0x00	; 0
     bca:	9c 01       	movw	r18, r24
     bcc:	22 0f       	add	r18, r18
     bce:	33 1f       	adc	r19, r19
     bd0:	82 0f       	add	r24, r18
     bd2:	93 1f       	adc	r25, r19
     bd4:	88 0f       	add	r24, r24
     bd6:	99 1f       	adc	r25, r25
     bd8:	88 0f       	add	r24, r24
     bda:	99 1f       	adc	r25, r25
     bdc:	88 0f       	add	r24, r24
     bde:	99 1f       	adc	r25, r25
     be0:	b8 01       	movw	r22, r16
     be2:	8e 0d       	add	r24, r14
     be4:	9f 1d       	adc	r25, r15
     be6:	9f d6       	rcall	.+3390   	; 0x1926 <_ZNV10iirlowpass6sampleEi>
     be8:	88 35       	cpi	r24, 0x58	; 88
     bea:	22 e0       	ldi	r18, 0x02	; 2
     bec:	92 07       	cpc	r25, r18
     bee:	6c f0       	brlt	.+26     	; 0xc0a <_ZNV22AnalogDigitalConverter6sampleEv+0x2be>
     bf0:	81 15       	cp	r24, r1
     bf2:	44 e0       	ldi	r20, 0x04	; 4
     bf4:	94 07       	cpc	r25, r20
     bf6:	c4 f0       	brlt	.+48     	; 0xc28 <_ZNV22AnalogDigitalConverter6sampleEv+0x2dc>
     bf8:	e7 ea       	ldi	r30, 0xA7	; 167
     bfa:	f1 e0       	ldi	r31, 0x01	; 1
     bfc:	ee 0f       	add	r30, r30
     bfe:	ff 1f       	adc	r31, r31
     c00:	ee 59       	subi	r30, 0x9E	; 158
     c02:	fb 4f       	sbci	r31, 0xFB	; 251
     c04:	85 91       	lpm	r24, Z+
     c06:	94 91       	lpm	r25, Z
     c08:	9a cf       	rjmp	.-204    	; 0xb3e <_ZNV22AnalogDigitalConverter6sampleEv+0x1f2>
     c0a:	e0 e0       	ldi	r30, 0x00	; 0
     c0c:	f0 e0       	ldi	r31, 0x00	; 0
     c0e:	f6 cf       	rjmp	.-20     	; 0xbfc <_ZNV22AnalogDigitalConverter6sampleEv+0x2b0>
     c10:	f8 01       	movw	r30, r16
     c12:	e0 59       	subi	r30, 0x90	; 144
     c14:	f1 40       	sbci	r31, 0x01	; 1
     c16:	0f cf       	rjmp	.-482    	; 0xa36 <_ZNV22AnalogDigitalConverter6sampleEv+0xea>
     c18:	f8 01       	movw	r30, r16
     c1a:	e8 55       	subi	r30, 0x58	; 88
     c1c:	f2 40       	sbci	r31, 0x02	; 2
     c1e:	32 cf       	rjmp	.-412    	; 0xa84 <_ZNV22AnalogDigitalConverter6sampleEv+0x138>
     c20:	fc 01       	movw	r30, r24
     c22:	e0 59       	subi	r30, 0x90	; 144
     c24:	f1 40       	sbci	r31, 0x01	; 1
     c26:	b4 cf       	rjmp	.-152    	; 0xb90 <_ZNV22AnalogDigitalConverter6sampleEv+0x244>
     c28:	fc 01       	movw	r30, r24
     c2a:	e8 55       	subi	r30, 0x58	; 88
     c2c:	f2 40       	sbci	r31, 0x02	; 2
     c2e:	e6 cf       	rjmp	.-52     	; 0xbfc <_ZNV22AnalogDigitalConverter6sampleEv+0x2b0>

00000c30 <_ZNV22AnalogDigitalConverter9getoutputEh>:
     c30:	60 31       	cpi	r22, 0x10	; 16
     c32:	58 f4       	brcc	.+22     	; 0xc4a <_ZNV22AnalogDigitalConverter9getoutputEh+0x1a>
     c34:	70 e0       	ldi	r23, 0x00	; 0
     c36:	66 0f       	add	r22, r22
     c38:	77 1f       	adc	r23, r23
     c3a:	fc 01       	movw	r30, r24
     c3c:	e6 0f       	add	r30, r22
     c3e:	f7 1f       	adc	r31, r23
     c40:	ef 54       	subi	r30, 0x4F	; 79
     c42:	fe 4f       	sbci	r31, 0xFE	; 254
     c44:	80 81       	ld	r24, Z
     c46:	91 81       	ldd	r25, Z+1	; 0x01
     c48:	08 95       	ret
     c4a:	8f ef       	ldi	r24, 0xFF	; 255
     c4c:	9f ef       	ldi	r25, 0xFF	; 255
     c4e:	08 95       	ret

00000c50 <_ZNV22AnalogDigitalConverter9getconfigEh>:
uint8_t AnalogDigitalConverter::getconfig(uint8_t channel) volatile
{
	if(channel > 15 || channel < 0){
     c50:	60 31       	cpi	r22, 0x10	; 16
     c52:	90 f4       	brcc	.+36     	; 0xc78 <_ZNV22AnalogDigitalConverter9getconfigEh+0x28>
		return 0;
	}
	uint8_t config = 0;
	if(tp_en[channel]){
     c54:	86 0f       	add	r24, r22
     c56:	91 1d       	adc	r25, r1
     c58:	fc 01       	movw	r30, r24
     c5a:	e0 56       	subi	r30, 0x60	; 96
     c5c:	fe 4f       	sbci	r31, 0xFE	; 254
     c5e:	20 81       	ld	r18, Z
		config|=1;
	}
	if(sensor_en[channel]){
     c60:	70 97       	sbiw	r30, 0x10	; 16
     c62:	30 81       	ld	r19, Z
     c64:	31 11       	cpse	r19, r1
		config|=2;
     c66:	22 60       	ori	r18, 0x02	; 2
	}
	config|=((uint8_t)(m_sensortype[channel]) << 2);
     c68:	fc 01       	movw	r30, r24
     c6a:	e0 58       	subi	r30, 0x80	; 128
     c6c:	fe 4f       	sbci	r31, 0xFE	; 254
     c6e:	80 81       	ld	r24, Z
     c70:	88 0f       	add	r24, r24
     c72:	88 0f       	add	r24, r24
     c74:	82 2b       	or	r24, r18
	return config;
     c76:	08 95       	ret
	return (int16_t)pgm_read_word(&_pt2000[offset]);
}
uint8_t AnalogDigitalConverter::getconfig(uint8_t channel) volatile
{
	if(channel > 15 || channel < 0){
		return 0;
     c78:	80 e0       	ldi	r24, 0x00	; 0
	if(sensor_en[channel]){
		config|=2;
	}
	config|=((uint8_t)(m_sensortype[channel]) << 2);
	return config;
}
     c7a:	08 95       	ret

00000c7c <_ZNV22AnalogDigitalConverter9setconfigEhh>:
bool AnalogDigitalConverter::setconfig(uint8_t channel, uint8_t config) volatile
{
	if(channel > 15 || channel < 0){
     c7c:	60 31       	cpi	r22, 0x10	; 16
     c7e:	20 f5       	brcc	.+72     	; 0xcc8 <_ZNV22AnalogDigitalConverter9setconfigEhh+0x4c>
		return true;
	}

	if((config & 1) == 1){
		tp_en[channel]=true;
     c80:	86 0f       	add	r24, r22
     c82:	91 1d       	adc	r25, r1
     c84:	fc 01       	movw	r30, r24
     c86:	e0 56       	subi	r30, 0x60	; 96
     c88:	fe 4f       	sbci	r31, 0xFE	; 254
{
	if(channel > 15 || channel < 0){
		return true;
	}

	if((config & 1) == 1){
     c8a:	40 fd       	sbrc	r20, 0
     c8c:	14 c0       	rjmp	.+40     	; 0xcb6 <_ZNV22AnalogDigitalConverter9setconfigEhh+0x3a>
		tp_en[channel]=true;
	}else{
		tp_en[channel]=false;
     c8e:	10 82       	st	Z, r1
	}

	if((config & 2) == 2){
     c90:	41 ff       	sbrs	r20, 1
     c92:	15 c0       	rjmp	.+42     	; 0xcbe <_ZNV22AnalogDigitalConverter9setconfigEhh+0x42>
		sensor_en[channel] = true;
     c94:	21 e0       	ldi	r18, 0x01	; 1
     c96:	fc 01       	movw	r30, r24
     c98:	e0 57       	subi	r30, 0x70	; 112
     c9a:	fe 4f       	sbci	r31, 0xFE	; 254
     c9c:	20 83       	st	Z, r18
	}else{
		sensor_en[channel] = false;
	}

	m_sensortype[channel] = (sensortype)((config & 12) >> 2);
     c9e:	4c 70       	andi	r20, 0x0C	; 12
     ca0:	50 e0       	ldi	r21, 0x00	; 0
     ca2:	55 95       	asr	r21
     ca4:	47 95       	ror	r20
     ca6:	55 95       	asr	r21
     ca8:	47 95       	ror	r20
     caa:	fc 01       	movw	r30, r24
     cac:	e0 58       	subi	r30, 0x80	; 128
     cae:	fe 4f       	sbci	r31, 0xFE	; 254
     cb0:	40 83       	st	Z, r20
	return false;
     cb2:	80 e0       	ldi	r24, 0x00	; 0
     cb4:	08 95       	ret
	if(channel > 15 || channel < 0){
		return true;
	}

	if((config & 1) == 1){
		tp_en[channel]=true;
     cb6:	21 e0       	ldi	r18, 0x01	; 1
     cb8:	20 83       	st	Z, r18
	}else{
		tp_en[channel]=false;
	}

	if((config & 2) == 2){
     cba:	41 fd       	sbrc	r20, 1
     cbc:	eb cf       	rjmp	.-42     	; 0xc94 <_ZNV22AnalogDigitalConverter9setconfigEhh+0x18>
		sensor_en[channel] = true;
	}else{
		sensor_en[channel] = false;
     cbe:	fc 01       	movw	r30, r24
     cc0:	e0 57       	subi	r30, 0x70	; 112
     cc2:	fe 4f       	sbci	r31, 0xFE	; 254
     cc4:	10 82       	st	Z, r1
     cc6:	eb cf       	rjmp	.-42     	; 0xc9e <_ZNV22AnalogDigitalConverter9setconfigEhh+0x22>
	return config;
}
bool AnalogDigitalConverter::setconfig(uint8_t channel, uint8_t config) volatile
{
	if(channel > 15 || channel < 0){
		return true;
     cc8:	81 e0       	ldi	r24, 0x01	; 1
		sensor_en[channel] = false;
	}

	m_sensortype[channel] = (sensortype)((config & 12) >> 2);
	return false;
}
     cca:	08 95       	ret

00000ccc <__vector_18>:
ISR(TIMER1_COMPB_vect){///zum lschen des interupt bits
     ccc:	1f 92       	push	r1
     cce:	0f 92       	push	r0
     cd0:	0f b6       	in	r0, 0x3f	; 63
     cd2:	0f 92       	push	r0
     cd4:	11 24       	eor	r1, r1
	asm("nop");
     cd6:	00 00       	nop
}
     cd8:	0f 90       	pop	r0
     cda:	0f be       	out	0x3f, r0	; 63
     cdc:	0f 90       	pop	r0
     cde:	1f 90       	pop	r1
     ce0:	18 95       	reti

00000ce2 <_Z19cmdHandler_resetMCUv>:
				: "n" (_SFR_MEM_ADDR(_WD_CONTROL_REG)),
				"r" ((uint8_t)(_BV(_WD_CHANGE_BIT) | _BV(WDE))),
				"r" ((uint8_t) ((value & 0x08 ? _WD_PS3_MASK : 0x00) |
						_BV(WDE) | (value & 0x07)) )
				: "r0"
		);
     ce2:	98 e0       	ldi	r25, 0x08	; 8
     ce4:	88 e1       	ldi	r24, 0x18	; 24
     ce6:	0f b6       	in	r0, 0x3f	; 63
     ce8:	f8 94       	cli
     cea:	a8 95       	wdr
     cec:	80 93 60 00 	sts	0x0060, r24	; 0x800060 <__TEXT_REGION_LENGTH__+0x700060>
     cf0:	0f be       	out	0x3f, r0	; 63
     cf2:	90 93 60 00 	sts	0x0060, r25	; 0x800060 <__TEXT_REGION_LENGTH__+0x700060>
     cf6:	08 95       	ret

00000cf8 <_Z18cmdHandler_freeMemv>:
 {
	wdt_enable(WDTO_15MS);
 }
 
 void cmdHandler_freeMem()
 {
     cf8:	cf 93       	push	r28
     cfa:	df 93       	push	r29
     cfc:	00 d0       	rcall	.+0      	; 0xcfe <_Z18cmdHandler_freeMemv+0x6>
     cfe:	00 d0       	rcall	.+0      	; 0xd00 <_Z18cmdHandler_freeMemv+0x8>
     d00:	cd b7       	in	r28, 0x3d	; 61
     d02:	de b7       	in	r29, 0x3e	; 62
	 uint8_t returnStr[6];
	 returnStr[0] = cmdfreeRam;
     d04:	83 ef       	ldi	r24, 0xF3	; 243
     d06:	89 83       	std	Y+1, r24	; 0x01
	 plotNumber( freeRam(), returnStr+1);
     d08:	df d5       	rcall	.+3006   	; 0x18c8 <_Z7freeRamv>
     d0a:	be 01       	movw	r22, r28
     d0c:	6e 5f       	subi	r22, 0xFE	; 254
     d0e:	7f 4f       	sbci	r23, 0xFF	; 255
     d10:	a4 d1       	rcall	.+840    	; 0x105a <_Z10plotNumberiPh>
	 returnStr[5] = eot;
     d12:	82 e1       	ldi	r24, 0x12	; 18
     d14:	8e 83       	std	Y+6, r24	; 0x06
	 serial_out0(returnStr, 6);
     d16:	66 e0       	ldi	r22, 0x06	; 6
     d18:	ce 01       	movw	r24, r28
     d1a:	01 96       	adiw	r24, 0x01	; 1
     d1c:	a3 d7       	rcall	.+3910   	; 0x1c64 <_Z11serial_out0Phh>
 }
     d1e:	26 96       	adiw	r28, 0x06	; 6
     d20:	0f b6       	in	r0, 0x3f	; 63
     d22:	f8 94       	cli
     d24:	de bf       	out	0x3e, r29	; 62
     d26:	0f be       	out	0x3f, r0	; 63
     d28:	cd bf       	out	0x3d, r28	; 61
     d2a:	df 91       	pop	r29
     d2c:	cf 91       	pop	r28
     d2e:	08 95       	ret

00000d30 <_Z23cmdHandler_get_value_ioh>:
 void cmdHandler_get_value_io(uint8_t pin)
 {
     d30:	cf 93       	push	r28
     d32:	df 93       	push	r29
     d34:	00 d0       	rcall	.+0      	; 0xd36 <_Z23cmdHandler_get_value_ioh+0x6>
     d36:	1f 92       	push	r1
     d38:	cd b7       	in	r28, 0x3d	; 61
     d3a:	de b7       	in	r29, 0x3e	; 62
	if(pin < 40){
     d3c:	88 32       	cpi	r24, 0x28	; 40
     d3e:	b0 f4       	brcc	.+44     	; 0xd6c <_Z23cmdHandler_get_value_ioh+0x3c>
		uint8_t returnStr[4];
		returnStr[0] = setVI0 + pin;
     d40:	93 e5       	ldi	r25, 0x53	; 83
     d42:	98 0f       	add	r25, r24
     d44:	99 83       	std	Y+1, r25	; 0x01
		plotNumber(io[pin]->get(), returnStr+1);
     d46:	e8 2f       	mov	r30, r24
     d48:	f0 e0       	ldi	r31, 0x00	; 0
     d4a:	ee 0f       	add	r30, r30
     d4c:	ff 1f       	adc	r31, r31
     d4e:	ea 5f       	subi	r30, 0xFA	; 250
     d50:	fd 4f       	sbci	r31, 0xFD	; 253
     d52:	80 81       	ld	r24, Z
     d54:	91 81       	ldd	r25, Z+1	; 0x01
     d56:	c0 d1       	rcall	.+896    	; 0x10d8 <_ZNV6io_pin3getEv>
     d58:	be 01       	movw	r22, r28
     d5a:	6e 5f       	subi	r22, 0xFE	; 254
     d5c:	7f 4f       	sbci	r23, 0xFF	; 255
     d5e:	75 d1       	rcall	.+746    	; 0x104a <_Z10plotNumberhPh>
		returnStr[3] = eot;
     d60:	82 e1       	ldi	r24, 0x12	; 18
     d62:	8c 83       	std	Y+4, r24	; 0x04
		serial_out0(returnStr, 4);
     d64:	64 e0       	ldi	r22, 0x04	; 4
     d66:	ce 01       	movw	r24, r28
     d68:	01 96       	adiw	r24, 0x01	; 1
     d6a:	7c d7       	rcall	.+3832   	; 0x1c64 <_Z11serial_out0Phh>
	}
 }
     d6c:	0f 90       	pop	r0
     d6e:	0f 90       	pop	r0
     d70:	0f 90       	pop	r0
     d72:	0f 90       	pop	r0
     d74:	df 91       	pop	r29
     d76:	cf 91       	pop	r28
     d78:	08 95       	ret

00000d7a <_Z24cmdHandler_get_value_adch>:
void cmdHandler_get_value_adc(uint8_t pin)
{
     d7a:	cf 93       	push	r28
     d7c:	df 93       	push	r29
     d7e:	00 d0       	rcall	.+0      	; 0xd80 <_Z24cmdHandler_get_value_adch+0x6>
     d80:	00 d0       	rcall	.+0      	; 0xd82 <_Z24cmdHandler_get_value_adch+0x8>
     d82:	cd b7       	in	r28, 0x3d	; 61
     d84:	de b7       	in	r29, 0x3e	; 62
	if (pin < 16){
     d86:	80 31       	cpi	r24, 0x10	; 16
     d88:	88 f4       	brcc	.+34     	; 0xdac <_Z24cmdHandler_get_value_adch+0x32>
     d8a:	68 2f       	mov	r22, r24
		uint8_t returnStr[6];
		returnStr[0] = setVA0 + pin;
     d8c:	83 e1       	ldi	r24, 0x13	; 19
     d8e:	86 0f       	add	r24, r22
     d90:	89 83       	std	Y+1, r24	; 0x01
		plotNumber( myADC.getoutput(pin), returnStr+1);
     d92:	88 e5       	ldi	r24, 0x58	; 88
     d94:	92 e0       	ldi	r25, 0x02	; 2
     d96:	4c df       	rcall	.-360    	; 0xc30 <_ZNV22AnalogDigitalConverter9getoutputEh>
     d98:	be 01       	movw	r22, r28
     d9a:	6e 5f       	subi	r22, 0xFE	; 254
     d9c:	7f 4f       	sbci	r23, 0xFF	; 255
     d9e:	5d d1       	rcall	.+698    	; 0x105a <_Z10plotNumberiPh>
		returnStr[5] = eot;
     da0:	82 e1       	ldi	r24, 0x12	; 18
     da2:	8e 83       	std	Y+6, r24	; 0x06
		serial_out0(returnStr, 6);
     da4:	66 e0       	ldi	r22, 0x06	; 6
     da6:	ce 01       	movw	r24, r28
     da8:	01 96       	adiw	r24, 0x01	; 1
     daa:	5c d7       	rcall	.+3768   	; 0x1c64 <_Z11serial_out0Phh>
	}
}
     dac:	26 96       	adiw	r28, 0x06	; 6
     dae:	0f b6       	in	r0, 0x3f	; 63
     db0:	f8 94       	cli
     db2:	de bf       	out	0x3e, r29	; 62
     db4:	0f be       	out	0x3f, r0	; 63
     db6:	cd bf       	out	0x3d, r28	; 61
     db8:	df 91       	pop	r29
     dba:	cf 91       	pop	r28
     dbc:	08 95       	ret

00000dbe <_Z24cmdHandler_get_config_ioh>:
void cmdHandler_get_config_io(uint8_t pin)
{
     dbe:	cf 93       	push	r28
     dc0:	df 93       	push	r29
     dc2:	00 d0       	rcall	.+0      	; 0xdc4 <_Z24cmdHandler_get_config_ioh+0x6>
     dc4:	1f 92       	push	r1
     dc6:	cd b7       	in	r28, 0x3d	; 61
     dc8:	de b7       	in	r29, 0x3e	; 62
	if(pin < 40){
     dca:	88 32       	cpi	r24, 0x28	; 40
     dcc:	b0 f4       	brcc	.+44     	; 0xdfa <_Z24cmdHandler_get_config_ioh+0x3c>
		uint8_t returnStr[4];
		returnStr[0] = setCI0 + pin;
     dce:	93 ea       	ldi	r25, 0xA3	; 163
     dd0:	98 0f       	add	r25, r24
     dd2:	99 83       	std	Y+1, r25	; 0x01
		plotNumber(io[pin]->getconfig(), returnStr+1);
     dd4:	e8 2f       	mov	r30, r24
     dd6:	f0 e0       	ldi	r31, 0x00	; 0
     dd8:	ee 0f       	add	r30, r30
     dda:	ff 1f       	adc	r31, r31
     ddc:	ea 5f       	subi	r30, 0xFA	; 250
     dde:	fd 4f       	sbci	r31, 0xFD	; 253
     de0:	80 81       	ld	r24, Z
     de2:	91 81       	ldd	r25, Z+1	; 0x01
     de4:	46 d2       	rcall	.+1164   	; 0x1272 <_ZNV6io_pin9getconfigEv>
     de6:	be 01       	movw	r22, r28
     de8:	6e 5f       	subi	r22, 0xFE	; 254
     dea:	7f 4f       	sbci	r23, 0xFF	; 255
     dec:	2e d1       	rcall	.+604    	; 0x104a <_Z10plotNumberhPh>
		returnStr[3] = eot;
     dee:	82 e1       	ldi	r24, 0x12	; 18
     df0:	8c 83       	std	Y+4, r24	; 0x04
		serial_out0(returnStr, 4);
     df2:	64 e0       	ldi	r22, 0x04	; 4
     df4:	ce 01       	movw	r24, r28
     df6:	01 96       	adiw	r24, 0x01	; 1
     df8:	35 d7       	rcall	.+3690   	; 0x1c64 <_Z11serial_out0Phh>
	}
}
     dfa:	0f 90       	pop	r0
     dfc:	0f 90       	pop	r0
     dfe:	0f 90       	pop	r0
     e00:	0f 90       	pop	r0
     e02:	df 91       	pop	r29
     e04:	cf 91       	pop	r28
     e06:	08 95       	ret

00000e08 <_Z25cmdHandler_get_config_adch>:
void cmdHandler_get_config_adc(uint8_t pin)
{
     e08:	cf 93       	push	r28
     e0a:	df 93       	push	r29
     e0c:	00 d0       	rcall	.+0      	; 0xe0e <_Z25cmdHandler_get_config_adch+0x6>
     e0e:	1f 92       	push	r1
     e10:	cd b7       	in	r28, 0x3d	; 61
     e12:	de b7       	in	r29, 0x3e	; 62
	if (pin < 16){
     e14:	80 31       	cpi	r24, 0x10	; 16
     e16:	88 f4       	brcc	.+34     	; 0xe3a <_Z25cmdHandler_get_config_adch+0x32>
     e18:	68 2f       	mov	r22, r24
		uint8_t returnStr[4];
		returnStr[0] = setCA0 + pin;
     e1a:	83 e3       	ldi	r24, 0x33	; 51
     e1c:	86 0f       	add	r24, r22
     e1e:	89 83       	std	Y+1, r24	; 0x01
		plotNumber( myADC.getconfig(pin), returnStr+1);
     e20:	88 e5       	ldi	r24, 0x58	; 88
     e22:	92 e0       	ldi	r25, 0x02	; 2
     e24:	15 df       	rcall	.-470    	; 0xc50 <_ZNV22AnalogDigitalConverter9getconfigEh>
     e26:	be 01       	movw	r22, r28
     e28:	6e 5f       	subi	r22, 0xFE	; 254
     e2a:	7f 4f       	sbci	r23, 0xFF	; 255
     e2c:	0e d1       	rcall	.+540    	; 0x104a <_Z10plotNumberhPh>
		returnStr[3] = eot;
     e2e:	82 e1       	ldi	r24, 0x12	; 18
     e30:	8c 83       	std	Y+4, r24	; 0x04
		serial_out0(returnStr, 4);
     e32:	64 e0       	ldi	r22, 0x04	; 4
     e34:	ce 01       	movw	r24, r28
     e36:	01 96       	adiw	r24, 0x01	; 1
     e38:	15 d7       	rcall	.+3626   	; 0x1c64 <_Z11serial_out0Phh>
	}
}
     e3a:	0f 90       	pop	r0
     e3c:	0f 90       	pop	r0
     e3e:	0f 90       	pop	r0
     e40:	0f 90       	pop	r0
     e42:	df 91       	pop	r29
     e44:	cf 91       	pop	r28
     e46:	08 95       	ret

00000e48 <_Z23cmdHandler_set_value_iohh>:
void cmdHandler_set_value_io(uint8_t pin, uint8_t value)
{
     e48:	ef 92       	push	r14
     e4a:	ff 92       	push	r15
     e4c:	1f 93       	push	r17
     e4e:	cf 93       	push	r28
     e50:	df 93       	push	r29
     e52:	00 d0       	rcall	.+0      	; 0xe54 <_Z23cmdHandler_set_value_iohh+0xc>
     e54:	1f 92       	push	r1
     e56:	cd b7       	in	r28, 0x3d	; 61
     e58:	de b7       	in	r29, 0x3e	; 62
	if(pin < 40){
     e5a:	88 32       	cpi	r24, 0x28	; 40
     e5c:	f8 f4       	brcc	.+62     	; 0xe9c <_Z23cmdHandler_set_value_iohh+0x54>
     e5e:	18 2f       	mov	r17, r24
		io[pin]->set(value);
     e60:	e8 2e       	mov	r14, r24
     e62:	f1 2c       	mov	r15, r1
     e64:	c7 01       	movw	r24, r14
     e66:	88 0f       	add	r24, r24
     e68:	99 1f       	adc	r25, r25
     e6a:	9c 01       	movw	r18, r24
     e6c:	2a 5f       	subi	r18, 0xFA	; 250
     e6e:	3d 4f       	sbci	r19, 0xFD	; 253
     e70:	79 01       	movw	r14, r18
     e72:	f9 01       	movw	r30, r18
     e74:	80 81       	ld	r24, Z
     e76:	91 81       	ldd	r25, Z+1	; 0x01
     e78:	65 d1       	rcall	.+714    	; 0x1144 <_ZNV6io_pin3setEh>
 }
 void cmdHandler_get_value_io(uint8_t pin)
 {
	if(pin < 40){
		uint8_t returnStr[4];
		returnStr[0] = setVI0 + pin;
     e7a:	83 e5       	ldi	r24, 0x53	; 83
     e7c:	81 0f       	add	r24, r17
     e7e:	89 83       	std	Y+1, r24	; 0x01
		plotNumber(io[pin]->get(), returnStr+1);
     e80:	f7 01       	movw	r30, r14
     e82:	80 81       	ld	r24, Z
     e84:	91 81       	ldd	r25, Z+1	; 0x01
     e86:	28 d1       	rcall	.+592    	; 0x10d8 <_ZNV6io_pin3getEv>
     e88:	be 01       	movw	r22, r28
     e8a:	6e 5f       	subi	r22, 0xFE	; 254
     e8c:	7f 4f       	sbci	r23, 0xFF	; 255
     e8e:	dd d0       	rcall	.+442    	; 0x104a <_Z10plotNumberhPh>
		returnStr[3] = eot;
     e90:	82 e1       	ldi	r24, 0x12	; 18
     e92:	8c 83       	std	Y+4, r24	; 0x04
		serial_out0(returnStr, 4);
     e94:	64 e0       	ldi	r22, 0x04	; 4
     e96:	ce 01       	movw	r24, r28
     e98:	01 96       	adiw	r24, 0x01	; 1
     e9a:	e4 d6       	rcall	.+3528   	; 0x1c64 <_Z11serial_out0Phh>
{
	if(pin < 40){
		io[pin]->set(value);
		cmdHandler_get_value_io(pin);
	}
}
     e9c:	0f 90       	pop	r0
     e9e:	0f 90       	pop	r0
     ea0:	0f 90       	pop	r0
     ea2:	0f 90       	pop	r0
     ea4:	df 91       	pop	r29
     ea6:	cf 91       	pop	r28
     ea8:	1f 91       	pop	r17
     eaa:	ff 90       	pop	r15
     eac:	ef 90       	pop	r14
     eae:	08 95       	ret

00000eb0 <_Z24cmdHandler_set_config_iohh>:
void cmdHandler_set_config_io(uint8_t pin, uint8_t config)
{
     eb0:	ef 92       	push	r14
     eb2:	ff 92       	push	r15
     eb4:	1f 93       	push	r17
     eb6:	cf 93       	push	r28
     eb8:	df 93       	push	r29
     eba:	00 d0       	rcall	.+0      	; 0xebc <_Z24cmdHandler_set_config_iohh+0xc>
     ebc:	1f 92       	push	r1
     ebe:	cd b7       	in	r28, 0x3d	; 61
     ec0:	de b7       	in	r29, 0x3e	; 62
	if(pin < 40){
     ec2:	88 32       	cpi	r24, 0x28	; 40
     ec4:	f8 f4       	brcc	.+62     	; 0xf04 <_Z24cmdHandler_set_config_iohh+0x54>
     ec6:	18 2f       	mov	r17, r24
		io[pin]->setconfig(config);
     ec8:	e8 2e       	mov	r14, r24
     eca:	f1 2c       	mov	r15, r1
     ecc:	c7 01       	movw	r24, r14
     ece:	88 0f       	add	r24, r24
     ed0:	99 1f       	adc	r25, r25
     ed2:	9c 01       	movw	r18, r24
     ed4:	2a 5f       	subi	r18, 0xFA	; 250
     ed6:	3d 4f       	sbci	r19, 0xFD	; 253
     ed8:	79 01       	movw	r14, r18
     eda:	f9 01       	movw	r30, r18
     edc:	80 81       	ld	r24, Z
     ede:	91 81       	ldd	r25, Z+1	; 0x01
     ee0:	64 d1       	rcall	.+712    	; 0x11aa <_ZNV6io_pin9setconfigEh>
}
void cmdHandler_get_config_io(uint8_t pin)
{
	if(pin < 40){
		uint8_t returnStr[4];
		returnStr[0] = setCI0 + pin;
     ee2:	83 ea       	ldi	r24, 0xA3	; 163
     ee4:	81 0f       	add	r24, r17
     ee6:	89 83       	std	Y+1, r24	; 0x01
		plotNumber(io[pin]->getconfig(), returnStr+1);
     ee8:	f7 01       	movw	r30, r14
     eea:	80 81       	ld	r24, Z
     eec:	91 81       	ldd	r25, Z+1	; 0x01
     eee:	c1 d1       	rcall	.+898    	; 0x1272 <_ZNV6io_pin9getconfigEv>
     ef0:	be 01       	movw	r22, r28
     ef2:	6e 5f       	subi	r22, 0xFE	; 254
     ef4:	7f 4f       	sbci	r23, 0xFF	; 255
     ef6:	a9 d0       	rcall	.+338    	; 0x104a <_Z10plotNumberhPh>
		returnStr[3] = eot;
     ef8:	82 e1       	ldi	r24, 0x12	; 18
     efa:	8c 83       	std	Y+4, r24	; 0x04
		serial_out0(returnStr, 4);
     efc:	64 e0       	ldi	r22, 0x04	; 4
     efe:	ce 01       	movw	r24, r28
     f00:	01 96       	adiw	r24, 0x01	; 1
     f02:	b0 d6       	rcall	.+3424   	; 0x1c64 <_Z11serial_out0Phh>
{
	if(pin < 40){
		io[pin]->setconfig(config);
		cmdHandler_get_config_io(pin);
	}
}
     f04:	0f 90       	pop	r0
     f06:	0f 90       	pop	r0
     f08:	0f 90       	pop	r0
     f0a:	0f 90       	pop	r0
     f0c:	df 91       	pop	r29
     f0e:	cf 91       	pop	r28
     f10:	1f 91       	pop	r17
     f12:	ff 90       	pop	r15
     f14:	ef 90       	pop	r14
     f16:	08 95       	ret

00000f18 <_Z25cmdHandler_set_config_adchh>:
void cmdHandler_set_config_adc(uint8_t pin, uint8_t config)
{
     f18:	1f 93       	push	r17
     f1a:	cf 93       	push	r28
     f1c:	df 93       	push	r29
     f1e:	00 d0       	rcall	.+0      	; 0xf20 <_Z25cmdHandler_set_config_adchh+0x8>
     f20:	1f 92       	push	r1
     f22:	cd b7       	in	r28, 0x3d	; 61
     f24:	de b7       	in	r29, 0x3e	; 62
	if(pin < 16){
     f26:	80 31       	cpi	r24, 0x10	; 16
     f28:	b8 f4       	brcc	.+46     	; 0xf58 <_Z25cmdHandler_set_config_adchh+0x40>
     f2a:	46 2f       	mov	r20, r22
     f2c:	18 2f       	mov	r17, r24
		myADC.setconfig(pin, config);
     f2e:	68 2f       	mov	r22, r24
     f30:	88 e5       	ldi	r24, 0x58	; 88
     f32:	92 e0       	ldi	r25, 0x02	; 2
     f34:	a3 de       	rcall	.-698    	; 0xc7c <_ZNV22AnalogDigitalConverter9setconfigEhh>
}
void cmdHandler_get_config_adc(uint8_t pin)
{
	if (pin < 16){
		uint8_t returnStr[4];
		returnStr[0] = setCA0 + pin;
     f36:	83 e3       	ldi	r24, 0x33	; 51
     f38:	81 0f       	add	r24, r17
     f3a:	89 83       	std	Y+1, r24	; 0x01
		plotNumber( myADC.getconfig(pin), returnStr+1);
     f3c:	61 2f       	mov	r22, r17
     f3e:	88 e5       	ldi	r24, 0x58	; 88
     f40:	92 e0       	ldi	r25, 0x02	; 2
     f42:	86 de       	rcall	.-756    	; 0xc50 <_ZNV22AnalogDigitalConverter9getconfigEh>
     f44:	be 01       	movw	r22, r28
     f46:	6e 5f       	subi	r22, 0xFE	; 254
     f48:	7f 4f       	sbci	r23, 0xFF	; 255
     f4a:	7f d0       	rcall	.+254    	; 0x104a <_Z10plotNumberhPh>
		returnStr[3] = eot;
     f4c:	82 e1       	ldi	r24, 0x12	; 18
     f4e:	8c 83       	std	Y+4, r24	; 0x04
		serial_out0(returnStr, 4);
     f50:	64 e0       	ldi	r22, 0x04	; 4
     f52:	ce 01       	movw	r24, r28
     f54:	01 96       	adiw	r24, 0x01	; 1
     f56:	86 d6       	rcall	.+3340   	; 0x1c64 <_Z11serial_out0Phh>
{
	if(pin < 16){
		myADC.setconfig(pin, config);
		cmdHandler_get_config_adc(pin);
	}
}
     f58:	0f 90       	pop	r0
     f5a:	0f 90       	pop	r0
     f5c:	0f 90       	pop	r0
     f5e:	0f 90       	pop	r0
     f60:	df 91       	pop	r29
     f62:	cf 91       	pop	r28
     f64:	1f 91       	pop	r17
     f66:	08 95       	ret

00000f68 <_ZN9cmdParserC1Ev>:
	uint8_t result = 0;
	uint8_t partitialResult = InBufferUart0[readCursor];
	while(partitialResult != eot){
		switch(i){
			case 0:{
				result += partitialResult;
     f68:	fc 01       	movw	r30, r24
     f6a:	10 82       	st	Z, r1
     f6c:	11 82       	std	Z+1, r1	; 0x01
     f6e:	08 95       	ret

00000f70 <_ZNV9cmdParser11checkparserEv>:
     f70:	cf 93       	push	r28
     f72:	df 93       	push	r29
     f74:	fc 01       	movw	r30, r24
     f76:	21 81       	ldd	r18, Z+1	; 0x01
     f78:	21 11       	cpse	r18, r1
     f7a:	03 c0       	rjmp	.+6      	; 0xf82 <_ZNV9cmdParser11checkparserEv+0x12>
     f7c:	df 91       	pop	r29
     f7e:	cf 91       	pop	r28
     f80:	08 95       	ret
     f82:	ec 01       	movw	r28, r24
     f84:	e0 81       	ld	r30, Z
     f86:	f0 e0       	ldi	r31, 0x00	; 0
     f88:	e5 5d       	subi	r30, 0xD5	; 213
     f8a:	fb 4f       	sbci	r31, 0xFB	; 251
     f8c:	80 81       	ld	r24, Z
     f8e:	98 81       	ld	r25, Y
     f90:	9f 5f       	subi	r25, 0xFF	; 255
     f92:	98 83       	st	Y, r25
     f94:	83 31       	cpi	r24, 0x13	; 19
     f96:	38 f1       	brcs	.+78     	; 0xfe6 <_ZNV9cmdParser11checkparserEv+0x76>
     f98:	e8 81       	ld	r30, Y
     f9a:	f0 e0       	ldi	r31, 0x00	; 0
     f9c:	e5 5d       	subi	r30, 0xD5	; 213
     f9e:	fb 4f       	sbci	r31, 0xFB	; 251
     fa0:	60 81       	ld	r22, Z
     fa2:	62 31       	cpi	r22, 0x12	; 18
     fa4:	b1 f0       	breq	.+44     	; 0xfd2 <_ZNV9cmdParser11checkparserEv+0x62>
     fa6:	e8 81       	ld	r30, Y
     fa8:	ef 5f       	subi	r30, 0xFF	; 255
     faa:	e8 83       	st	Y, r30
     fac:	f0 e0       	ldi	r31, 0x00	; 0
     fae:	e5 5d       	subi	r30, 0xD5	; 213
     fb0:	fb 4f       	sbci	r31, 0xFB	; 251
     fb2:	90 81       	ld	r25, Z
     fb4:	92 31       	cpi	r25, 0x12	; 18
     fb6:	71 f0       	breq	.+28     	; 0xfd4 <_ZNV9cmdParser11checkparserEv+0x64>
     fb8:	f0 e1       	ldi	r31, 0x10	; 16
     fba:	9f 9f       	mul	r25, r31
     fbc:	60 0d       	add	r22, r0
     fbe:	11 24       	eor	r1, r1
     fc0:	e8 81       	ld	r30, Y
     fc2:	ef 5f       	subi	r30, 0xFF	; 255
     fc4:	e8 83       	st	Y, r30
     fc6:	f0 e0       	ldi	r31, 0x00	; 0
     fc8:	e5 5d       	subi	r30, 0xD5	; 213
     fca:	fb 4f       	sbci	r31, 0xFB	; 251
     fcc:	90 81       	ld	r25, Z
     fce:	92 31       	cpi	r25, 0x12	; 18
     fd0:	09 f0       	breq	.+2      	; 0xfd4 <_ZNV9cmdParser11checkparserEv+0x64>
     fd2:	60 e0       	ldi	r22, 0x00	; 0
     fd4:	98 81       	ld	r25, Y
     fd6:	9f 5f       	subi	r25, 0xFF	; 255
     fd8:	98 83       	st	Y, r25
     fda:	83 35       	cpi	r24, 0x53	; 83
     fdc:	50 f4       	brcc	.+20     	; 0xff2 <_ZNV9cmdParser11checkparserEv+0x82>
     fde:	83 33       	cpi	r24, 0x33	; 51
     fe0:	c8 f4       	brcc	.+50     	; 0x1014 <_ZNV9cmdParser11checkparserEv+0xa4>
     fe2:	83 32       	cpi	r24, 0x23	; 35
     fe4:	10 f5       	brcc	.+68     	; 0x102a <_ZNV9cmdParser11checkparserEv+0xba>
     fe6:	89 81       	ldd	r24, Y+1	; 0x01
     fe8:	81 50       	subi	r24, 0x01	; 1
     fea:	89 83       	std	Y+1, r24	; 0x01
     fec:	df 91       	pop	r29
     fee:	cf 91       	pop	r28
     ff0:	08 95       	ret
     ff2:	83 3a       	cpi	r24, 0xA3	; 163
     ff4:	28 f4       	brcc	.+10     	; 0x1000 <_ZNV9cmdParser11checkparserEv+0x90>
     ff6:	8b 37       	cpi	r24, 0x7B	; 123
     ff8:	90 f4       	brcc	.+36     	; 0x101e <_ZNV9cmdParser11checkparserEv+0xae>
     ffa:	83 55       	subi	r24, 0x53	; 83
     ffc:	25 df       	rcall	.-438    	; 0xe48 <_Z23cmdHandler_set_value_iohh>
     ffe:	f3 cf       	rjmp	.-26     	; 0xfe6 <_ZNV9cmdParser11checkparserEv+0x76>
    1000:	8b 3c       	cpi	r24, 0xCB	; 203
    1002:	b0 f0       	brcs	.+44     	; 0x1030 <_ZNV9cmdParser11checkparserEv+0xc0>
    1004:	83 3f       	cpi	r24, 0xF3	; 243
    1006:	b8 f0       	brcs	.+46     	; 0x1036 <_ZNV9cmdParser11checkparserEv+0xc6>
    1008:	83 3f       	cpi	r24, 0xF3	; 243
    100a:	c1 f0       	breq	.+48     	; 0x103c <_ZNV9cmdParser11checkparserEv+0xcc>
    100c:	87 3f       	cpi	r24, 0xF7	; 247
    100e:	59 f7       	brne	.-42     	; 0xfe6 <_ZNV9cmdParser11checkparserEv+0x76>
    1010:	68 de       	rcall	.-816    	; 0xce2 <_Z19cmdHandler_resetMCUv>
    1012:	e9 cf       	rjmp	.-46     	; 0xfe6 <_ZNV9cmdParser11checkparserEv+0x76>
    1014:	83 34       	cpi	r24, 0x43	; 67
    1016:	30 f4       	brcc	.+12     	; 0x1024 <_ZNV9cmdParser11checkparserEv+0xb4>
    1018:	83 53       	subi	r24, 0x33	; 51
    101a:	7e df       	rcall	.-260    	; 0xf18 <_Z25cmdHandler_set_config_adchh>
    101c:	e4 cf       	rjmp	.-56     	; 0xfe6 <_ZNV9cmdParser11checkparserEv+0x76>
    101e:	8b 57       	subi	r24, 0x7B	; 123
    1020:	87 de       	rcall	.-754    	; 0xd30 <_Z23cmdHandler_get_value_ioh>
    1022:	e1 cf       	rjmp	.-62     	; 0xfe6 <_ZNV9cmdParser11checkparserEv+0x76>
    1024:	83 54       	subi	r24, 0x43	; 67
    1026:	f0 de       	rcall	.-544    	; 0xe08 <_Z25cmdHandler_get_config_adch>
    1028:	de cf       	rjmp	.-68     	; 0xfe6 <_ZNV9cmdParser11checkparserEv+0x76>
    102a:	83 52       	subi	r24, 0x23	; 35
    102c:	a6 de       	rcall	.-692    	; 0xd7a <_Z24cmdHandler_get_value_adch>
    102e:	db cf       	rjmp	.-74     	; 0xfe6 <_ZNV9cmdParser11checkparserEv+0x76>
    1030:	83 5a       	subi	r24, 0xA3	; 163
    1032:	3e df       	rcall	.-388    	; 0xeb0 <_Z24cmdHandler_set_config_iohh>
    1034:	d8 cf       	rjmp	.-80     	; 0xfe6 <_ZNV9cmdParser11checkparserEv+0x76>
    1036:	8b 5c       	subi	r24, 0xCB	; 203
    1038:	c2 de       	rcall	.-636    	; 0xdbe <_Z24cmdHandler_get_config_ioh>
    103a:	d5 cf       	rjmp	.-86     	; 0xfe6 <_ZNV9cmdParser11checkparserEv+0x76>
    103c:	5d de       	rcall	.-838    	; 0xcf8 <_Z18cmdHandler_freeMemv>
    103e:	d3 cf       	rjmp	.-90     	; 0xfe6 <_ZNV9cmdParser11checkparserEv+0x76>

00001040 <_ZNV9cmdParser14inc_parser_cntEv>:
    1040:	fc 01       	movw	r30, r24
    1042:	91 81       	ldd	r25, Z+1	; 0x01
    1044:	9f 5f       	subi	r25, 0xFF	; 255
    1046:	91 83       	std	Z+1, r25	; 0x01
    1048:	08 95       	ret

0000104a <_Z10plotNumberhPh>:
	}
	return result;
}

void plotNumber(uint8_t number, unsigned char* result){
	result[0] = (unsigned char)( number & 0x0F );
    104a:	98 2f       	mov	r25, r24
    104c:	9f 70       	andi	r25, 0x0F	; 15
    104e:	fb 01       	movw	r30, r22
    1050:	90 83       	st	Z, r25
	result[1] = (unsigned char)( number >> 4 ) & 0x0F;
    1052:	82 95       	swap	r24
    1054:	8f 70       	andi	r24, 0x0F	; 15
    1056:	81 83       	std	Z+1, r24	; 0x01
    1058:	08 95       	ret

0000105a <_Z10plotNumberiPh>:
}
void plotNumber(int16_t number, unsigned char* result){
    105a:	fb 01       	movw	r30, r22
	result[0] = (unsigned char)( number & 0x000F );
    105c:	28 2f       	mov	r18, r24
    105e:	2f 70       	andi	r18, 0x0F	; 15
    1060:	20 83       	st	Z, r18
	result[1] = (unsigned char)( ( number >> 4 ) & 0x000F );
    1062:	9c 01       	movw	r18, r24
    1064:	35 95       	asr	r19
    1066:	27 95       	ror	r18
    1068:	35 95       	asr	r19
    106a:	27 95       	ror	r18
    106c:	35 95       	asr	r19
    106e:	27 95       	ror	r18
    1070:	35 95       	asr	r19
    1072:	27 95       	ror	r18
    1074:	2f 70       	andi	r18, 0x0F	; 15
    1076:	21 83       	std	Z+1, r18	; 0x01
	result[2] = (unsigned char)( ( number >> 8 ) & 0x000F );
    1078:	89 2f       	mov	r24, r25
    107a:	8f 70       	andi	r24, 0x0F	; 15
    107c:	82 83       	std	Z+2, r24	; 0x02
	result[3] = (unsigned char)( ( number >> 12 ) & 0x000F );
    107e:	89 2f       	mov	r24, r25
    1080:	82 95       	swap	r24
    1082:	8f 70       	andi	r24, 0x0F	; 15
    1084:	83 83       	std	Z+3, r24	; 0x03
    1086:	08 95       	ret

00001088 <_ZN6io_pinC1EPVhS1_S1_h>:
			}
		}
	this->config=_config;
}

 io_pin::~io_pin(){
    1088:	0f 93       	push	r16
    108a:	fc 01       	movw	r30, r24
    108c:	76 83       	std	Z+6, r23	; 0x06
    108e:	65 83       	std	Z+5, r22	; 0x05
    1090:	54 83       	std	Z+4, r21	; 0x04
    1092:	43 83       	std	Z+3, r20	; 0x03
    1094:	32 83       	std	Z+2, r19	; 0x02
    1096:	21 83       	std	Z+1, r18	; 0x01
    1098:	07 83       	std	Z+7, r16	; 0x07
    109a:	27 81       	ldd	r18, Z+7	; 0x07
    109c:	a5 81       	ldd	r26, Z+5	; 0x05
    109e:	b6 81       	ldd	r27, Z+6	; 0x06
    10a0:	4c 91       	ld	r20, X
    10a2:	81 e0       	ldi	r24, 0x01	; 1
    10a4:	90 e0       	ldi	r25, 0x00	; 0
    10a6:	bc 01       	movw	r22, r24
    10a8:	02 c0       	rjmp	.+4      	; 0x10ae <_ZN6io_pinC1EPVhS1_S1_h+0x26>
    10aa:	66 0f       	add	r22, r22
    10ac:	77 1f       	adc	r23, r23
    10ae:	2a 95       	dec	r18
    10b0:	e2 f7       	brpl	.-8      	; 0x10aa <_ZN6io_pinC1EPVhS1_S1_h+0x22>
    10b2:	9b 01       	movw	r18, r22
    10b4:	24 2b       	or	r18, r20
    10b6:	2c 93       	st	X, r18
    10b8:	37 81       	ldd	r19, Z+7	; 0x07
    10ba:	a3 81       	ldd	r26, Z+3	; 0x03
    10bc:	b4 81       	ldd	r27, Z+4	; 0x04
    10be:	2c 91       	ld	r18, X
    10c0:	01 c0       	rjmp	.+2      	; 0x10c4 <_ZN6io_pinC1EPVhS1_S1_h+0x3c>
    10c2:	88 0f       	add	r24, r24
    10c4:	3a 95       	dec	r19
    10c6:	ea f7       	brpl	.-6      	; 0x10c2 <_ZN6io_pinC1EPVhS1_S1_h+0x3a>
    10c8:	82 2b       	or	r24, r18
    10ca:	8c 93       	st	X, r24
    10cc:	83 e0       	ldi	r24, 0x03	; 3
    10ce:	80 83       	st	Z, r24
    10d0:	10 86       	std	Z+8, r1	; 0x08
    10d2:	11 86       	std	Z+9, r1	; 0x09
    10d4:	0f 91       	pop	r16
    10d6:	08 95       	ret

000010d8 <_ZNV6io_pin3getEv>:

 }
 uint8_t io_pin::get() volatile
 {
    10d8:	fc 01       	movw	r30, r24
	switch(config){
    10da:	90 81       	ld	r25, Z
    10dc:	92 30       	cpi	r25, 0x02	; 2
    10de:	79 f1       	breq	.+94     	; 0x113e <_ZNV6io_pin3getEv+0x66>
    10e0:	38 f0       	brcs	.+14     	; 0x10f0 <_ZNV6io_pin3getEv+0x18>
    10e2:	94 30       	cpi	r25, 0x04	; 4
    10e4:	19 f0       	breq	.+6      	; 0x10ec <_ZNV6io_pin3getEv+0x14>
    10e6:	40 f1       	brcs	.+80     	; 0x1138 <_ZNV6io_pin3getEv+0x60>
    10e8:	95 30       	cpi	r25, 0x05	; 5
    10ea:	b9 f4       	brne	.+46     	; 0x111a <_ZNV6io_pin3getEv+0x42>
		}break;
		case ninvertPwmOutput:{
			return DutyCycle;
		}break;
		case invertPwmOutput:{
			return DutyCycle;
    10ec:	80 85       	ldd	r24, Z+8	; 0x08
    10ee:	08 95       	ret
 io_pin::~io_pin(){

 }
 uint8_t io_pin::get() volatile
 {
	switch(config){
    10f0:	99 23       	and	r25, r25
    10f2:	a9 f0       	breq	.+42     	; 0x111e <_ZNV6io_pin3getEv+0x46>
    10f4:	91 30       	cpi	r25, 0x01	; 1
    10f6:	89 f4       	brne	.+34     	; 0x111a <_ZNV6io_pin3getEv+0x42>
			}else{
				return 0;
			}
		}break;
		case invertInput:{
			if((((*PORT_IN)>>PIN) & 1)==1){
    10f8:	a1 81       	ldd	r26, Z+1	; 0x01
    10fa:	b2 81       	ldd	r27, Z+2	; 0x02
				}else{
				return 0;
			}
		}break;
		case invertOutput:{
			if((((*PORT_OUT)>>PIN) & 1)==1){
    10fc:	9c 91       	ld	r25, X
    10fe:	27 81       	ldd	r18, Z+7	; 0x07
 uint8_t io_pin::get() volatile
 {
	switch(config){
		case ninvertInput:{
			if((((*PORT_IN)>>PIN) & 1)==1){
				return 1;
    1100:	89 2f       	mov	r24, r25
    1102:	90 e0       	ldi	r25, 0x00	; 0
    1104:	02 c0       	rjmp	.+4      	; 0x110a <_ZNV6io_pin3getEv+0x32>
    1106:	95 95       	asr	r25
    1108:	87 95       	ror	r24
    110a:	2a 95       	dec	r18
    110c:	e2 f7       	brpl	.-8      	; 0x1106 <_ZNV6io_pin3getEv+0x2e>
    110e:	81 70       	andi	r24, 0x01	; 1
    1110:	99 27       	eor	r25, r25
    1112:	21 e0       	ldi	r18, 0x01	; 1
    1114:	82 27       	eor	r24, r18
    1116:	81 70       	andi	r24, 0x01	; 1
    1118:	08 95       	ret
		case invertPwmOutput:{
			return DutyCycle;
		}break;

	}
	return 0;
    111a:	80 e0       	ldi	r24, 0x00	; 0
 }
    111c:	08 95       	ret
 }
 uint8_t io_pin::get() volatile
 {
	switch(config){
		case ninvertInput:{
			if((((*PORT_IN)>>PIN) & 1)==1){
    111e:	a1 81       	ldd	r26, Z+1	; 0x01
    1120:	b2 81       	ldd	r27, Z+2	; 0x02
			}else{
				return 1;
			}
		}break;
		case ninvertOutput:{
			if((((*PORT_OUT)>>PIN) & 1)==1){
    1122:	9c 91       	ld	r25, X
    1124:	27 81       	ldd	r18, Z+7	; 0x07
 uint8_t io_pin::get() volatile
 {
	switch(config){
		case ninvertInput:{
			if((((*PORT_IN)>>PIN) & 1)==1){
				return 1;
    1126:	89 2f       	mov	r24, r25
    1128:	90 e0       	ldi	r25, 0x00	; 0
    112a:	02 c0       	rjmp	.+4      	; 0x1130 <_ZNV6io_pin3getEv+0x58>
    112c:	95 95       	asr	r25
    112e:	87 95       	ror	r24
    1130:	2a 95       	dec	r18
    1132:	e2 f7       	brpl	.-8      	; 0x112c <_ZNV6io_pin3getEv+0x54>
    1134:	81 70       	andi	r24, 0x01	; 1
    1136:	08 95       	ret
				}else{
				return 0;
			}
		}break;
		case invertOutput:{
			if((((*PORT_OUT)>>PIN) & 1)==1){
    1138:	a3 81       	ldd	r26, Z+3	; 0x03
    113a:	b4 81       	ldd	r27, Z+4	; 0x04
    113c:	df cf       	rjmp	.-66     	; 0x10fc <_ZNV6io_pin3getEv+0x24>
			}else{
				return 1;
			}
		}break;
		case ninvertOutput:{
			if((((*PORT_OUT)>>PIN) & 1)==1){
    113e:	a3 81       	ldd	r26, Z+3	; 0x03
    1140:	b4 81       	ldd	r27, Z+4	; 0x04
    1142:	ef cf       	rjmp	.-34     	; 0x1122 <_ZNV6io_pin3getEv+0x4a>

00001144 <_ZNV6io_pin3setEh>:

	}
	return 0;
 }
 void io_pin::set(uint8_t value) volatile
 {
    1144:	fc 01       	movw	r30, r24
 	switch(this->config){
    1146:	90 81       	ld	r25, Z
    1148:	93 30       	cpi	r25, 0x03	; 3
    114a:	d1 f0       	breq	.+52     	; 0x1180 <_ZNV6io_pin3setEh+0x3c>
    114c:	30 f0       	brcs	.+12     	; 0x115a <_ZNV6io_pin3setEh+0x16>
    114e:	94 30       	cpi	r25, 0x04	; 4
    1150:	11 f0       	breq	.+4      	; 0x1156 <_ZNV6io_pin3setEh+0x12>
    1152:	95 30       	cpi	r25, 0x05	; 5
    1154:	41 f5       	brne	.+80     	; 0x11a6 <_ZNV6io_pin3setEh+0x62>
		}break;
		case ninvertPwmOutput:{
			DutyCycle = value;
		}break;
		case invertPwmOutput:{
			DutyCycle = value;
    1156:	60 87       	std	Z+8, r22	; 0x08
    1158:	08 95       	ret
	}
	return 0;
 }
 void io_pin::set(uint8_t value) volatile
 {
 	switch(this->config){
    115a:	92 30       	cpi	r25, 0x02	; 2
    115c:	29 f5       	brne	.+74     	; 0x11a8 <_ZNV6io_pin3setEh+0x64>
		case invertInput:{
			
		}break;
		case ninvertOutput:{
			if(value){
				*PORT_OUT |= 1<<PIN;
    115e:	37 81       	ldd	r19, Z+7	; 0x07
    1160:	03 80       	ldd	r0, Z+3	; 0x03
    1162:	f4 81       	ldd	r31, Z+4	; 0x04
    1164:	e0 2d       	mov	r30, r0
    1166:	20 81       	ld	r18, Z
    1168:	81 e0       	ldi	r24, 0x01	; 1
    116a:	90 e0       	ldi	r25, 0x00	; 0
    116c:	02 c0       	rjmp	.+4      	; 0x1172 <_ZNV6io_pin3setEh+0x2e>
    116e:	88 0f       	add	r24, r24
    1170:	99 1f       	adc	r25, r25
    1172:	3a 95       	dec	r19
    1174:	e2 f7       	brpl	.-8      	; 0x116e <_ZNV6io_pin3setEh+0x2a>
		}break;
		case invertInput:{
			
		}break;
		case ninvertOutput:{
			if(value){
    1176:	66 23       	and	r22, r22
    1178:	89 f0       	breq	.+34     	; 0x119c <_ZNV6io_pin3setEh+0x58>
		}break;
		case invertOutput:{
			if(value){
				*PORT_OUT &= ~(1<<PIN);
			}else{
				*PORT_OUT |= 1<<PIN;
    117a:	82 2b       	or	r24, r18
    117c:	80 83       	st	Z, r24
    117e:	08 95       	ret
				*PORT_OUT &= ~(1<<PIN);
			}
		}break;
		case invertOutput:{
			if(value){
				*PORT_OUT &= ~(1<<PIN);
    1180:	37 81       	ldd	r19, Z+7	; 0x07
    1182:	03 80       	ldd	r0, Z+3	; 0x03
    1184:	f4 81       	ldd	r31, Z+4	; 0x04
    1186:	e0 2d       	mov	r30, r0
    1188:	20 81       	ld	r18, Z
    118a:	81 e0       	ldi	r24, 0x01	; 1
    118c:	90 e0       	ldi	r25, 0x00	; 0
    118e:	02 c0       	rjmp	.+4      	; 0x1194 <_ZNV6io_pin3setEh+0x50>
    1190:	88 0f       	add	r24, r24
    1192:	99 1f       	adc	r25, r25
    1194:	3a 95       	dec	r19
    1196:	e2 f7       	brpl	.-8      	; 0x1190 <_ZNV6io_pin3setEh+0x4c>
			}else{
				*PORT_OUT &= ~(1<<PIN);
			}
		}break;
		case invertOutput:{
			if(value){
    1198:	66 23       	and	r22, r22
    119a:	79 f3       	breq	.-34     	; 0x117a <_ZNV6io_pin3setEh+0x36>
				*PORT_OUT &= ~(1<<PIN);
    119c:	80 95       	com	r24
    119e:	90 95       	com	r25
    11a0:	82 23       	and	r24, r18
    11a2:	80 83       	st	Z, r24
    11a4:	08 95       	ret
    11a6:	08 95       	ret
    11a8:	08 95       	ret

000011aa <_ZNV6io_pin9setconfigEh>:
			DutyCycle = value;
		}
	}
 }
 void io_pin::setconfig(uint8_t config) volatile
 {
    11aa:	cf 93       	push	r28
    11ac:	df 93       	push	r29
    11ae:	fc 01       	movw	r30, r24
	if(this->config != static_cast<io_config>(config))
    11b0:	80 81       	ld	r24, Z
    11b2:	86 17       	cp	r24, r22
    11b4:	c1 f1       	breq	.+112    	; 0x1226 <_ZNV6io_pin9setconfigEh+0x7c>
	{
		switch(config){
    11b6:	62 30       	cpi	r22, 0x02	; 2
    11b8:	e1 f1       	breq	.+120    	; 0x1232 <_ZNV6io_pin9setconfigEh+0x88>
    11ba:	b0 f0       	brcs	.+44     	; 0x11e8 <_ZNV6io_pin9setconfigEh+0x3e>
    11bc:	64 30       	cpi	r22, 0x04	; 4
    11be:	b9 f1       	breq	.+110    	; 0x122e <_ZNV6io_pin9setconfigEh+0x84>
    11c0:	20 f0       	brcs	.+8      	; 0x11ca <_ZNV6io_pin9setconfigEh+0x20>
    11c2:	65 30       	cpi	r22, 0x05	; 5
    11c4:	81 f5       	brne	.+96     	; 0x1226 <_ZNV6io_pin9setconfigEh+0x7c>
				DutyCycle=0;
				*DDR |= 1<<PIN;
				*PORT_OUT &= ~(1<<PIN);
			}break;
			case invertPwmOutput:{
				cnt=0;
    11c6:	11 86       	std	Z+9, r1	; 0x09
				DutyCycle=0;
    11c8:	10 86       	std	Z+8, r1	; 0x08
				*DDR |= 1<<PIN;
    11ca:	27 81       	ldd	r18, Z+7	; 0x07
    11cc:	a5 81       	ldd	r26, Z+5	; 0x05
    11ce:	b6 81       	ldd	r27, Z+6	; 0x06
    11d0:	4c 91       	ld	r20, X
    11d2:	81 e0       	ldi	r24, 0x01	; 1
    11d4:	90 e0       	ldi	r25, 0x00	; 0
    11d6:	ec 01       	movw	r28, r24
    11d8:	02 c0       	rjmp	.+4      	; 0x11de <_ZNV6io_pin9setconfigEh+0x34>
    11da:	cc 0f       	add	r28, r28
    11dc:	dd 1f       	adc	r29, r29
    11de:	2a 95       	dec	r18
    11e0:	e2 f7       	brpl	.-8      	; 0x11da <_ZNV6io_pin9setconfigEh+0x30>
    11e2:	9e 01       	movw	r18, r28
    11e4:	24 2b       	or	r18, r20
    11e6:	14 c0       	rjmp	.+40     	; 0x1210 <_ZNV6io_pin9setconfigEh+0x66>
 }
 void io_pin::setconfig(uint8_t config) volatile
 {
	if(this->config != static_cast<io_config>(config))
	{
		switch(config){
    11e8:	66 23       	and	r22, r22
    11ea:	11 f0       	breq	.+4      	; 0x11f0 <_ZNV6io_pin9setconfigEh+0x46>
    11ec:	61 30       	cpi	r22, 0x01	; 1
    11ee:	d9 f4       	brne	.+54     	; 0x1226 <_ZNV6io_pin9setconfigEh+0x7c>
			case ninvertInput:{
				*DDR &= ~(1<<PIN);
				*PORT_OUT |= 1<<PIN;
			}break;
			case invertInput:{
				*DDR &= ~(1<<PIN);
    11f0:	27 81       	ldd	r18, Z+7	; 0x07
    11f2:	a5 81       	ldd	r26, Z+5	; 0x05
    11f4:	b6 81       	ldd	r27, Z+6	; 0x06
    11f6:	4c 91       	ld	r20, X
    11f8:	81 e0       	ldi	r24, 0x01	; 1
    11fa:	90 e0       	ldi	r25, 0x00	; 0
    11fc:	ec 01       	movw	r28, r24
    11fe:	02 c0       	rjmp	.+4      	; 0x1204 <_ZNV6io_pin9setconfigEh+0x5a>
    1200:	cc 0f       	add	r28, r28
    1202:	dd 1f       	adc	r29, r29
    1204:	2a 95       	dec	r18
    1206:	e2 f7       	brpl	.-8      	; 0x1200 <_ZNV6io_pin9setconfigEh+0x56>
    1208:	9e 01       	movw	r18, r28
    120a:	20 95       	com	r18
    120c:	30 95       	com	r19
    120e:	24 23       	and	r18, r20
				*PORT_OUT &= ~(1<<PIN);
			}break;
			case invertPwmOutput:{
				cnt=0;
				DutyCycle=0;
				*DDR |= 1<<PIN;
    1210:	2c 93       	st	X, r18
				*PORT_OUT |= 1<<PIN;
    1212:	37 81       	ldd	r19, Z+7	; 0x07
    1214:	a3 81       	ldd	r26, Z+3	; 0x03
    1216:	b4 81       	ldd	r27, Z+4	; 0x04
    1218:	2c 91       	ld	r18, X
    121a:	01 c0       	rjmp	.+2      	; 0x121e <_ZNV6io_pin9setconfigEh+0x74>
    121c:	88 0f       	add	r24, r24
    121e:	3a 95       	dec	r19
    1220:	ea f7       	brpl	.-6      	; 0x121c <_ZNV6io_pin9setconfigEh+0x72>
    1222:	82 2b       	or	r24, r18
    1224:	8c 93       	st	X, r24
			}
		}
		
	}
	this->config=static_cast<io_config>(config);
    1226:	60 83       	st	Z, r22
	
 }
    1228:	df 91       	pop	r29
    122a:	cf 91       	pop	r28
    122c:	08 95       	ret
			case invertOutput:{
				*DDR |= 1<<PIN;
				*PORT_OUT |= 1<<PIN;
			}break;
			case ninvertPwmOutput:{
				cnt=0;
    122e:	11 86       	std	Z+9, r1	; 0x09
				DutyCycle=0;
    1230:	10 86       	std	Z+8, r1	; 0x08
				*DDR |= 1<<PIN;
    1232:	27 81       	ldd	r18, Z+7	; 0x07
    1234:	a5 81       	ldd	r26, Z+5	; 0x05
    1236:	b6 81       	ldd	r27, Z+6	; 0x06
    1238:	4c 91       	ld	r20, X
    123a:	81 e0       	ldi	r24, 0x01	; 1
    123c:	90 e0       	ldi	r25, 0x00	; 0
    123e:	ec 01       	movw	r28, r24
    1240:	02 c0       	rjmp	.+4      	; 0x1246 <_ZNV6io_pin9setconfigEh+0x9c>
    1242:	cc 0f       	add	r28, r28
    1244:	dd 1f       	adc	r29, r29
    1246:	2a 95       	dec	r18
    1248:	e2 f7       	brpl	.-8      	; 0x1242 <_ZNV6io_pin9setconfigEh+0x98>
    124a:	9e 01       	movw	r18, r28
    124c:	24 2b       	or	r18, r20
    124e:	2c 93       	st	X, r18
				*PORT_OUT &= ~(1<<PIN);
    1250:	37 81       	ldd	r19, Z+7	; 0x07
    1252:	a3 81       	ldd	r26, Z+3	; 0x03
    1254:	b4 81       	ldd	r27, Z+4	; 0x04
    1256:	2c 91       	ld	r18, X
    1258:	02 c0       	rjmp	.+4      	; 0x125e <_ZNV6io_pin9setconfigEh+0xb4>
    125a:	88 0f       	add	r24, r24
    125c:	99 1f       	adc	r25, r25
    125e:	3a 95       	dec	r19
    1260:	e2 f7       	brpl	.-8      	; 0x125a <_ZNV6io_pin9setconfigEh+0xb0>
    1262:	80 95       	com	r24
    1264:	90 95       	com	r25
    1266:	82 23       	and	r24, r18
    1268:	8c 93       	st	X, r24
				*PORT_OUT |= 1<<PIN;
			}
		}
		
	}
	this->config=static_cast<io_config>(config);
    126a:	60 83       	st	Z, r22
	
 }
    126c:	df 91       	pop	r29
    126e:	cf 91       	pop	r28
    1270:	08 95       	ret

00001272 <_ZNV6io_pin9getconfigEv>:
 uint8_t io_pin::getconfig() volatile
 {
	 return static_cast<uint8_t>(config);
    1272:	fc 01       	movw	r30, r24
    1274:	80 81       	ld	r24, Z
 }
    1276:	08 95       	ret

00001278 <_ZNV6io_pin7triggerEv>:
 void io_pin::trigger() volatile
 {
    1278:	fc 01       	movw	r30, r24
	if(config == ninvertPwmOutput){
    127a:	80 81       	ld	r24, Z
    127c:	84 30       	cpi	r24, 0x04	; 4
    127e:	21 f1       	breq	.+72     	; 0x12c8 <_ZNV6io_pin7triggerEv+0x50>
		if(cnt > DutyCycle){
			*PORT_OUT &= ~(1<<PIN);		//switch off
		}else if(cnt == 0 && DutyCycle != 0){
			*PORT_OUT |= 1<<PIN;		//switch on
		}
	}else if(config == invertPwmOutput){
    1280:	80 81       	ld	r24, Z
    1282:	85 30       	cpi	r24, 0x05	; 5
    1284:	21 f0       	breq	.+8      	; 0x128e <_ZNV6io_pin7triggerEv+0x16>
			*PORT_OUT |= 1<<PIN;		//switch off
		}else if(cnt == 0 && DutyCycle != 0){
			*PORT_OUT &= ~(1<<PIN);		//switch on
		}
	}
	cnt++;
    1286:	81 85       	ldd	r24, Z+9	; 0x09
    1288:	8f 5f       	subi	r24, 0xFF	; 255
    128a:	81 87       	std	Z+9, r24	; 0x09
    128c:	08 95       	ret
			*PORT_OUT &= ~(1<<PIN);		//switch off
		}else if(cnt == 0 && DutyCycle != 0){
			*PORT_OUT |= 1<<PIN;		//switch on
		}
	}else if(config == invertPwmOutput){
		if(cnt > DutyCycle){
    128e:	91 85       	ldd	r25, Z+9	; 0x09
    1290:	80 85       	ldd	r24, Z+8	; 0x08
    1292:	89 17       	cp	r24, r25
    1294:	18 f1       	brcs	.+70     	; 0x12dc <_ZNV6io_pin7triggerEv+0x64>
			*PORT_OUT |= 1<<PIN;		//switch off
		}else if(cnt == 0 && DutyCycle != 0){
    1296:	81 85       	ldd	r24, Z+9	; 0x09
    1298:	81 11       	cpse	r24, r1
    129a:	f5 cf       	rjmp	.-22     	; 0x1286 <_ZNV6io_pin7triggerEv+0xe>
    129c:	80 85       	ldd	r24, Z+8	; 0x08
    129e:	88 23       	and	r24, r24
    12a0:	91 f3       	breq	.-28     	; 0x1286 <_ZNV6io_pin7triggerEv+0xe>
			*PORT_OUT &= ~(1<<PIN);		//switch on
    12a2:	37 81       	ldd	r19, Z+7	; 0x07
    12a4:	a3 81       	ldd	r26, Z+3	; 0x03
    12a6:	b4 81       	ldd	r27, Z+4	; 0x04
    12a8:	2c 91       	ld	r18, X
    12aa:	81 e0       	ldi	r24, 0x01	; 1
    12ac:	90 e0       	ldi	r25, 0x00	; 0
    12ae:	02 c0       	rjmp	.+4      	; 0x12b4 <_ZNV6io_pin7triggerEv+0x3c>
    12b0:	88 0f       	add	r24, r24
    12b2:	99 1f       	adc	r25, r25
    12b4:	3a 95       	dec	r19
    12b6:	e2 f7       	brpl	.-8      	; 0x12b0 <_ZNV6io_pin7triggerEv+0x38>
    12b8:	80 95       	com	r24
    12ba:	90 95       	com	r25
    12bc:	82 23       	and	r24, r18
    12be:	8c 93       	st	X, r24
		}
	}
	cnt++;
    12c0:	81 85       	ldd	r24, Z+9	; 0x09
    12c2:	8f 5f       	subi	r24, 0xFF	; 255
    12c4:	81 87       	std	Z+9, r24	; 0x09
    12c6:	08 95       	ret
	 return static_cast<uint8_t>(config);
 }
 void io_pin::trigger() volatile
 {
	if(config == ninvertPwmOutput){
		if(cnt > DutyCycle){
    12c8:	91 85       	ldd	r25, Z+9	; 0x09
    12ca:	80 85       	ldd	r24, Z+8	; 0x08
    12cc:	89 17       	cp	r24, r25
    12ce:	48 f3       	brcs	.-46     	; 0x12a2 <_ZNV6io_pin7triggerEv+0x2a>
			*PORT_OUT &= ~(1<<PIN);		//switch off
		}else if(cnt == 0 && DutyCycle != 0){
    12d0:	81 85       	ldd	r24, Z+9	; 0x09
    12d2:	81 11       	cpse	r24, r1
    12d4:	d8 cf       	rjmp	.-80     	; 0x1286 <_ZNV6io_pin7triggerEv+0xe>
    12d6:	80 85       	ldd	r24, Z+8	; 0x08
    12d8:	88 23       	and	r24, r24
    12da:	a9 f2       	breq	.-86     	; 0x1286 <_ZNV6io_pin7triggerEv+0xe>
			*PORT_OUT |= 1<<PIN;		//switch on
    12dc:	37 81       	ldd	r19, Z+7	; 0x07
    12de:	a3 81       	ldd	r26, Z+3	; 0x03
    12e0:	b4 81       	ldd	r27, Z+4	; 0x04
    12e2:	2c 91       	ld	r18, X
    12e4:	81 e0       	ldi	r24, 0x01	; 1
    12e6:	90 e0       	ldi	r25, 0x00	; 0
    12e8:	01 c0       	rjmp	.+2      	; 0x12ec <_ZNV6io_pin7triggerEv+0x74>
    12ea:	88 0f       	add	r24, r24
    12ec:	3a 95       	dec	r19
    12ee:	ea f7       	brpl	.-6      	; 0x12ea <_ZNV6io_pin7triggerEv+0x72>
    12f0:	82 2b       	or	r24, r18
    12f2:	8c 93       	st	X, r24
			*PORT_OUT |= 1<<PIN;		//switch off
		}else if(cnt == 0 && DutyCycle != 0){
			*PORT_OUT &= ~(1<<PIN);		//switch on
		}
	}
	cnt++;
    12f4:	81 85       	ldd	r24, Z+9	; 0x09
    12f6:	8f 5f       	subi	r24, 0xFF	; 255
    12f8:	81 87       	std	Z+9, r24	; 0x09
    12fa:	08 95       	ret

000012fc <_ZN4lockC1Ev>:
 *  Author: Florian Weber
 */
#include "lock.h"
lock::lock()
{
	locked = false;
    12fc:	fc 01       	movw	r30, r24
    12fe:	10 82       	st	Z, r1
    1300:	08 95       	ret

00001302 <_ZNV4lock7tryLockEv>:
}
void lock::tryLock() volatile
{
    1302:	fc 01       	movw	r30, r24
	
	while(locked){
    1304:	80 81       	ld	r24, Z
    1306:	88 23       	and	r24, r24
    1308:	21 f0       	breq	.+8      	; 0x1312 <_ZNV4lock7tryLockEv+0x10>
		asm volatile("nop");
    130a:	00 00       	nop
	locked = false;
}
void lock::tryLock() volatile
{
	
	while(locked){
    130c:	90 81       	ld	r25, Z
    130e:	91 11       	cpse	r25, r1
    1310:	fc cf       	rjmp	.-8      	; 0x130a <_ZNV4lock7tryLockEv+0x8>
		asm volatile("nop");
	}
	
	locked = true;
    1312:	81 e0       	ldi	r24, 0x01	; 1
    1314:	80 83       	st	Z, r24
    1316:	08 95       	ret

00001318 <_ZNV4lock6unlockEv>:
}
void lock::unlock() volatile
{
	this->locked = 0;
    1318:	fc 01       	movw	r30, r24
    131a:	10 82       	st	Z, r1
    131c:	08 95       	ret

0000131e <_Z7init_iov>:
}
void init_pwmTimer(){
	
	OCR3A	=	624;		//624 = alter wert-->50Hz
	TIMSK3	=	1<<OCIE3A;	//Timer/Countern3, Output Compare A Match Interrupt Enable
	TCCR3B	=	(1<<CS32) | (1<<WGM32);	//prescaler:256 ; CTC mode
    131e:	ef 92       	push	r14
    1320:	ff 92       	push	r15
    1322:	0f 93       	push	r16
    1324:	cf 93       	push	r28
    1326:	df 93       	push	r29
    1328:	8a e0       	ldi	r24, 0x0A	; 10
    132a:	90 e0       	ldi	r25, 0x00	; 0
    132c:	fb d2       	rcall	.+1526   	; 0x1924 <_Znwj>
    132e:	7c 01       	movw	r14, r24
    1330:	01 e0       	ldi	r16, 0x01	; 1
    1332:	26 e2       	ldi	r18, 0x26	; 38
    1334:	30 e0       	ldi	r19, 0x00	; 0
    1336:	48 e2       	ldi	r20, 0x28	; 40
    1338:	50 e0       	ldi	r21, 0x00	; 0
    133a:	67 e2       	ldi	r22, 0x27	; 39
    133c:	70 e0       	ldi	r23, 0x00	; 0
    133e:	a4 de       	rcall	.-696    	; 0x1088 <_ZN6io_pinC1EPVhS1_S1_h>
    1340:	c6 e0       	ldi	r28, 0x06	; 6
    1342:	d2 e0       	ldi	r29, 0x02	; 2
    1344:	f9 82       	std	Y+1, r15	; 0x01
    1346:	e8 82       	st	Y, r14
    1348:	8a e0       	ldi	r24, 0x0A	; 10
    134a:	90 e0       	ldi	r25, 0x00	; 0
    134c:	eb d2       	rcall	.+1494   	; 0x1924 <_Znwj>
    134e:	7c 01       	movw	r14, r24
    1350:	03 e0       	ldi	r16, 0x03	; 3
    1352:	26 e2       	ldi	r18, 0x26	; 38
    1354:	30 e0       	ldi	r19, 0x00	; 0
    1356:	48 e2       	ldi	r20, 0x28	; 40
    1358:	50 e0       	ldi	r21, 0x00	; 0
    135a:	67 e2       	ldi	r22, 0x27	; 39
    135c:	70 e0       	ldi	r23, 0x00	; 0
    135e:	94 de       	rcall	.-728    	; 0x1088 <_ZN6io_pinC1EPVhS1_S1_h>
    1360:	fb 82       	std	Y+3, r15	; 0x03
    1362:	ea 82       	std	Y+2, r14	; 0x02
    1364:	8a e0       	ldi	r24, 0x0A	; 10
    1366:	90 e0       	ldi	r25, 0x00	; 0
    1368:	dd d2       	rcall	.+1466   	; 0x1924 <_Znwj>
    136a:	7c 01       	movw	r14, r24
    136c:	05 e0       	ldi	r16, 0x05	; 5
    136e:	26 e2       	ldi	r18, 0x26	; 38
    1370:	30 e0       	ldi	r19, 0x00	; 0
    1372:	48 e2       	ldi	r20, 0x28	; 40
    1374:	50 e0       	ldi	r21, 0x00	; 0
    1376:	67 e2       	ldi	r22, 0x27	; 39
    1378:	70 e0       	ldi	r23, 0x00	; 0
    137a:	86 de       	rcall	.-756    	; 0x1088 <_ZN6io_pinC1EPVhS1_S1_h>
    137c:	fd 82       	std	Y+5, r15	; 0x05
    137e:	ec 82       	std	Y+4, r14	; 0x04
    1380:	8a e0       	ldi	r24, 0x0A	; 10
    1382:	90 e0       	ldi	r25, 0x00	; 0
    1384:	cf d2       	rcall	.+1438   	; 0x1924 <_Znwj>
    1386:	7c 01       	movw	r14, r24
    1388:	07 e0       	ldi	r16, 0x07	; 7
    138a:	26 e2       	ldi	r18, 0x26	; 38
    138c:	30 e0       	ldi	r19, 0x00	; 0
    138e:	48 e2       	ldi	r20, 0x28	; 40
    1390:	50 e0       	ldi	r21, 0x00	; 0
    1392:	67 e2       	ldi	r22, 0x27	; 39
    1394:	70 e0       	ldi	r23, 0x00	; 0
    1396:	78 de       	rcall	.-784    	; 0x1088 <_ZN6io_pinC1EPVhS1_S1_h>
    1398:	ff 82       	std	Y+7, r15	; 0x07
    139a:	ee 82       	std	Y+6, r14	; 0x06
    139c:	8a e0       	ldi	r24, 0x0A	; 10
    139e:	90 e0       	ldi	r25, 0x00	; 0
    13a0:	c1 d2       	rcall	.+1410   	; 0x1924 <_Znwj>
    13a2:	7c 01       	movw	r14, r24
    13a4:	06 e0       	ldi	r16, 0x06	; 6
    13a6:	20 e2       	ldi	r18, 0x20	; 32
    13a8:	30 e0       	ldi	r19, 0x00	; 0
    13aa:	42 e2       	ldi	r20, 0x22	; 34
    13ac:	50 e0       	ldi	r21, 0x00	; 0
    13ae:	61 e2       	ldi	r22, 0x21	; 33
    13b0:	70 e0       	ldi	r23, 0x00	; 0
    13b2:	6a de       	rcall	.-812    	; 0x1088 <_ZN6io_pinC1EPVhS1_S1_h>
    13b4:	f9 86       	std	Y+9, r15	; 0x09
    13b6:	e8 86       	std	Y+8, r14	; 0x08
    13b8:	8a e0       	ldi	r24, 0x0A	; 10
    13ba:	90 e0       	ldi	r25, 0x00	; 0
    13bc:	b3 d2       	rcall	.+1382   	; 0x1924 <_Znwj>
    13be:	7c 01       	movw	r14, r24
    13c0:	04 e0       	ldi	r16, 0x04	; 4
    13c2:	20 e2       	ldi	r18, 0x20	; 32
    13c4:	30 e0       	ldi	r19, 0x00	; 0
    13c6:	42 e2       	ldi	r20, 0x22	; 34
    13c8:	50 e0       	ldi	r21, 0x00	; 0
    13ca:	61 e2       	ldi	r22, 0x21	; 33
    13cc:	70 e0       	ldi	r23, 0x00	; 0
    13ce:	5c de       	rcall	.-840    	; 0x1088 <_ZN6io_pinC1EPVhS1_S1_h>
    13d0:	fb 86       	std	Y+11, r15	; 0x0b
    13d2:	ea 86       	std	Y+10, r14	; 0x0a
    13d4:	8a e0       	ldi	r24, 0x0A	; 10
    13d6:	90 e0       	ldi	r25, 0x00	; 0
    13d8:	a5 d2       	rcall	.+1354   	; 0x1924 <_Znwj>
    13da:	7c 01       	movw	r14, r24
    13dc:	02 e0       	ldi	r16, 0x02	; 2
    13de:	20 e2       	ldi	r18, 0x20	; 32
    13e0:	30 e0       	ldi	r19, 0x00	; 0
    13e2:	42 e2       	ldi	r20, 0x22	; 34
    13e4:	50 e0       	ldi	r21, 0x00	; 0
    13e6:	61 e2       	ldi	r22, 0x21	; 33
    13e8:	70 e0       	ldi	r23, 0x00	; 0
    13ea:	4e de       	rcall	.-868    	; 0x1088 <_ZN6io_pinC1EPVhS1_S1_h>
    13ec:	fd 86       	std	Y+13, r15	; 0x0d
    13ee:	ec 86       	std	Y+12, r14	; 0x0c
    13f0:	8a e0       	ldi	r24, 0x0A	; 10
    13f2:	90 e0       	ldi	r25, 0x00	; 0
    13f4:	97 d2       	rcall	.+1326   	; 0x1924 <_Znwj>
    13f6:	7c 01       	movw	r14, r24
    13f8:	00 e0       	ldi	r16, 0x00	; 0
    13fa:	20 e2       	ldi	r18, 0x20	; 32
    13fc:	30 e0       	ldi	r19, 0x00	; 0
    13fe:	42 e2       	ldi	r20, 0x22	; 34
    1400:	50 e0       	ldi	r21, 0x00	; 0
    1402:	61 e2       	ldi	r22, 0x21	; 33
    1404:	70 e0       	ldi	r23, 0x00	; 0
    1406:	40 de       	rcall	.-896    	; 0x1088 <_ZN6io_pinC1EPVhS1_S1_h>
    1408:	ff 86       	std	Y+15, r15	; 0x0f
    140a:	ee 86       	std	Y+14, r14	; 0x0e
    140c:	8a e0       	ldi	r24, 0x0A	; 10
    140e:	90 e0       	ldi	r25, 0x00	; 0
    1410:	89 d2       	rcall	.+1298   	; 0x1924 <_Znwj>
    1412:	7c 01       	movw	r14, r24
    1414:	26 e2       	ldi	r18, 0x26	; 38
    1416:	30 e0       	ldi	r19, 0x00	; 0
    1418:	48 e2       	ldi	r20, 0x28	; 40
    141a:	50 e0       	ldi	r21, 0x00	; 0
    141c:	67 e2       	ldi	r22, 0x27	; 39
    141e:	70 e0       	ldi	r23, 0x00	; 0
    1420:	33 de       	rcall	.-922    	; 0x1088 <_ZN6io_pinC1EPVhS1_S1_h>
    1422:	f9 8a       	std	Y+17, r15	; 0x11
    1424:	e8 8a       	std	Y+16, r14	; 0x10
    1426:	8a e0       	ldi	r24, 0x0A	; 10
    1428:	90 e0       	ldi	r25, 0x00	; 0
    142a:	7c d2       	rcall	.+1272   	; 0x1924 <_Znwj>
    142c:	7c 01       	movw	r14, r24
    142e:	02 e0       	ldi	r16, 0x02	; 2
    1430:	26 e2       	ldi	r18, 0x26	; 38
    1432:	30 e0       	ldi	r19, 0x00	; 0
    1434:	48 e2       	ldi	r20, 0x28	; 40
    1436:	50 e0       	ldi	r21, 0x00	; 0
    1438:	67 e2       	ldi	r22, 0x27	; 39
    143a:	70 e0       	ldi	r23, 0x00	; 0
    143c:	25 de       	rcall	.-950    	; 0x1088 <_ZN6io_pinC1EPVhS1_S1_h>
    143e:	fb 8a       	std	Y+19, r15	; 0x13
    1440:	ea 8a       	std	Y+18, r14	; 0x12
    1442:	8a e0       	ldi	r24, 0x0A	; 10
    1444:	90 e0       	ldi	r25, 0x00	; 0
    1446:	6e d2       	rcall	.+1244   	; 0x1924 <_Znwj>
    1448:	7c 01       	movw	r14, r24
    144a:	04 e0       	ldi	r16, 0x04	; 4
    144c:	26 e2       	ldi	r18, 0x26	; 38
    144e:	30 e0       	ldi	r19, 0x00	; 0
    1450:	48 e2       	ldi	r20, 0x28	; 40
    1452:	50 e0       	ldi	r21, 0x00	; 0
    1454:	67 e2       	ldi	r22, 0x27	; 39
    1456:	70 e0       	ldi	r23, 0x00	; 0
    1458:	17 de       	rcall	.-978    	; 0x1088 <_ZN6io_pinC1EPVhS1_S1_h>
    145a:	fd 8a       	std	Y+21, r15	; 0x15
    145c:	ec 8a       	std	Y+20, r14	; 0x14
    145e:	8a e0       	ldi	r24, 0x0A	; 10
    1460:	90 e0       	ldi	r25, 0x00	; 0
    1462:	60 d2       	rcall	.+1216   	; 0x1924 <_Znwj>
    1464:	7c 01       	movw	r14, r24
    1466:	06 e0       	ldi	r16, 0x06	; 6
    1468:	26 e2       	ldi	r18, 0x26	; 38
    146a:	30 e0       	ldi	r19, 0x00	; 0
    146c:	48 e2       	ldi	r20, 0x28	; 40
    146e:	50 e0       	ldi	r21, 0x00	; 0
    1470:	67 e2       	ldi	r22, 0x27	; 39
    1472:	70 e0       	ldi	r23, 0x00	; 0
    1474:	09 de       	rcall	.-1006   	; 0x1088 <_ZN6io_pinC1EPVhS1_S1_h>
    1476:	ff 8a       	std	Y+23, r15	; 0x17
    1478:	ee 8a       	std	Y+22, r14	; 0x16
    147a:	8a e0       	ldi	r24, 0x0A	; 10
    147c:	90 e0       	ldi	r25, 0x00	; 0
    147e:	52 d2       	rcall	.+1188   	; 0x1924 <_Znwj>
    1480:	7c 01       	movw	r14, r24
    1482:	07 e0       	ldi	r16, 0x07	; 7
    1484:	20 e2       	ldi	r18, 0x20	; 32
    1486:	30 e0       	ldi	r19, 0x00	; 0
    1488:	42 e2       	ldi	r20, 0x22	; 34
    148a:	50 e0       	ldi	r21, 0x00	; 0
    148c:	61 e2       	ldi	r22, 0x21	; 33
    148e:	70 e0       	ldi	r23, 0x00	; 0
    1490:	fb dd       	rcall	.-1034   	; 0x1088 <_ZN6io_pinC1EPVhS1_S1_h>
    1492:	f9 8e       	std	Y+25, r15	; 0x19
    1494:	e8 8e       	std	Y+24, r14	; 0x18
    1496:	8a e0       	ldi	r24, 0x0A	; 10
    1498:	90 e0       	ldi	r25, 0x00	; 0
    149a:	44 d2       	rcall	.+1160   	; 0x1924 <_Znwj>
    149c:	7c 01       	movw	r14, r24
    149e:	05 e0       	ldi	r16, 0x05	; 5
    14a0:	20 e2       	ldi	r18, 0x20	; 32
    14a2:	30 e0       	ldi	r19, 0x00	; 0
    14a4:	42 e2       	ldi	r20, 0x22	; 34
    14a6:	50 e0       	ldi	r21, 0x00	; 0
    14a8:	61 e2       	ldi	r22, 0x21	; 33
    14aa:	70 e0       	ldi	r23, 0x00	; 0
    14ac:	ed dd       	rcall	.-1062   	; 0x1088 <_ZN6io_pinC1EPVhS1_S1_h>
    14ae:	fb 8e       	std	Y+27, r15	; 0x1b
    14b0:	ea 8e       	std	Y+26, r14	; 0x1a
    14b2:	8a e0       	ldi	r24, 0x0A	; 10
    14b4:	90 e0       	ldi	r25, 0x00	; 0
    14b6:	36 d2       	rcall	.+1132   	; 0x1924 <_Znwj>
    14b8:	7c 01       	movw	r14, r24
    14ba:	03 e0       	ldi	r16, 0x03	; 3
    14bc:	20 e2       	ldi	r18, 0x20	; 32
    14be:	30 e0       	ldi	r19, 0x00	; 0
    14c0:	42 e2       	ldi	r20, 0x22	; 34
    14c2:	50 e0       	ldi	r21, 0x00	; 0
    14c4:	61 e2       	ldi	r22, 0x21	; 33
    14c6:	70 e0       	ldi	r23, 0x00	; 0
    14c8:	df dd       	rcall	.-1090   	; 0x1088 <_ZN6io_pinC1EPVhS1_S1_h>
    14ca:	fd 8e       	std	Y+29, r15	; 0x1d
    14cc:	ec 8e       	std	Y+28, r14	; 0x1c
    14ce:	8a e0       	ldi	r24, 0x0A	; 10
    14d0:	90 e0       	ldi	r25, 0x00	; 0
    14d2:	28 d2       	rcall	.+1104   	; 0x1924 <_Znwj>
    14d4:	7c 01       	movw	r14, r24
    14d6:	01 e0       	ldi	r16, 0x01	; 1
    14d8:	20 e2       	ldi	r18, 0x20	; 32
    14da:	30 e0       	ldi	r19, 0x00	; 0
    14dc:	42 e2       	ldi	r20, 0x22	; 34
    14de:	50 e0       	ldi	r21, 0x00	; 0
    14e0:	61 e2       	ldi	r22, 0x21	; 33
    14e2:	70 e0       	ldi	r23, 0x00	; 0
    14e4:	d1 dd       	rcall	.-1118   	; 0x1088 <_ZN6io_pinC1EPVhS1_S1_h>
    14e6:	ff 8e       	std	Y+31, r15	; 0x1f
    14e8:	ee 8e       	std	Y+30, r14	; 0x1e
    14ea:	8a e0       	ldi	r24, 0x0A	; 10
    14ec:	90 e0       	ldi	r25, 0x00	; 0
    14ee:	1a d2       	rcall	.+1076   	; 0x1924 <_Znwj>
    14f0:	7c 01       	movw	r14, r24
    14f2:	07 e0       	ldi	r16, 0x07	; 7
    14f4:	29 e2       	ldi	r18, 0x29	; 41
    14f6:	30 e0       	ldi	r19, 0x00	; 0
    14f8:	4b e2       	ldi	r20, 0x2B	; 43
    14fa:	50 e0       	ldi	r21, 0x00	; 0
    14fc:	6a e2       	ldi	r22, 0x2A	; 42
    14fe:	70 e0       	ldi	r23, 0x00	; 0
    1500:	c3 dd       	rcall	.-1146   	; 0x1088 <_ZN6io_pinC1EPVhS1_S1_h>
    1502:	f9 a2       	std	Y+33, r15	; 0x21
    1504:	e8 a2       	std	Y+32, r14	; 0x20
    1506:	8a e0       	ldi	r24, 0x0A	; 10
    1508:	90 e0       	ldi	r25, 0x00	; 0
    150a:	0c d2       	rcall	.+1048   	; 0x1924 <_Znwj>
    150c:	7c 01       	movw	r14, r24
    150e:	01 e0       	ldi	r16, 0x01	; 1
    1510:	22 e3       	ldi	r18, 0x32	; 50
    1512:	30 e0       	ldi	r19, 0x00	; 0
    1514:	44 e3       	ldi	r20, 0x34	; 52
    1516:	50 e0       	ldi	r21, 0x00	; 0
    1518:	63 e3       	ldi	r22, 0x33	; 51
    151a:	70 e0       	ldi	r23, 0x00	; 0
    151c:	b5 dd       	rcall	.-1174   	; 0x1088 <_ZN6io_pinC1EPVhS1_S1_h>
    151e:	fb a2       	std	Y+35, r15	; 0x23
    1520:	ea a2       	std	Y+34, r14	; 0x22
    1522:	8a e0       	ldi	r24, 0x0A	; 10
    1524:	90 e0       	ldi	r25, 0x00	; 0
    1526:	fe d1       	rcall	.+1020   	; 0x1924 <_Znwj>
    1528:	7c 01       	movw	r14, r24
    152a:	07 e0       	ldi	r16, 0x07	; 7
    152c:	29 e0       	ldi	r18, 0x09	; 9
    152e:	31 e0       	ldi	r19, 0x01	; 1
    1530:	4b e0       	ldi	r20, 0x0B	; 11
    1532:	51 e0       	ldi	r21, 0x01	; 1
    1534:	6a e0       	ldi	r22, 0x0A	; 10
    1536:	71 e0       	ldi	r23, 0x01	; 1
    1538:	a7 dd       	rcall	.-1202   	; 0x1088 <_ZN6io_pinC1EPVhS1_S1_h>
    153a:	fd a2       	std	Y+37, r15	; 0x25
    153c:	ec a2       	std	Y+36, r14	; 0x24
    153e:	8a e0       	ldi	r24, 0x0A	; 10
    1540:	90 e0       	ldi	r25, 0x00	; 0
    1542:	f0 d1       	rcall	.+992    	; 0x1924 <_Znwj>
    1544:	7c 01       	movw	r14, r24
    1546:	05 e0       	ldi	r16, 0x05	; 5
    1548:	29 e0       	ldi	r18, 0x09	; 9
    154a:	31 e0       	ldi	r19, 0x01	; 1
    154c:	4b e0       	ldi	r20, 0x0B	; 11
    154e:	51 e0       	ldi	r21, 0x01	; 1
    1550:	6a e0       	ldi	r22, 0x0A	; 10
    1552:	71 e0       	ldi	r23, 0x01	; 1
    1554:	99 dd       	rcall	.-1230   	; 0x1088 <_ZN6io_pinC1EPVhS1_S1_h>
    1556:	ff a2       	std	Y+39, r15	; 0x27
    1558:	ee a2       	std	Y+38, r14	; 0x26
    155a:	8a e0       	ldi	r24, 0x0A	; 10
    155c:	90 e0       	ldi	r25, 0x00	; 0
    155e:	e2 d1       	rcall	.+964    	; 0x1924 <_Znwj>
    1560:	7c 01       	movw	r14, r24
    1562:	03 e0       	ldi	r16, 0x03	; 3
    1564:	29 e0       	ldi	r18, 0x09	; 9
    1566:	31 e0       	ldi	r19, 0x01	; 1
    1568:	4b e0       	ldi	r20, 0x0B	; 11
    156a:	51 e0       	ldi	r21, 0x01	; 1
    156c:	6a e0       	ldi	r22, 0x0A	; 10
    156e:	71 e0       	ldi	r23, 0x01	; 1
    1570:	8b dd       	rcall	.-1258   	; 0x1088 <_ZN6io_pinC1EPVhS1_S1_h>
    1572:	f9 a6       	std	Y+41, r15	; 0x29
    1574:	e8 a6       	std	Y+40, r14	; 0x28
    1576:	8a e0       	ldi	r24, 0x0A	; 10
    1578:	90 e0       	ldi	r25, 0x00	; 0
    157a:	d4 d1       	rcall	.+936    	; 0x1924 <_Znwj>
    157c:	7c 01       	movw	r14, r24
    157e:	01 e0       	ldi	r16, 0x01	; 1
    1580:	29 e0       	ldi	r18, 0x09	; 9
    1582:	31 e0       	ldi	r19, 0x01	; 1
    1584:	4b e0       	ldi	r20, 0x0B	; 11
    1586:	51 e0       	ldi	r21, 0x01	; 1
    1588:	6a e0       	ldi	r22, 0x0A	; 10
    158a:	71 e0       	ldi	r23, 0x01	; 1
    158c:	7d dd       	rcall	.-1286   	; 0x1088 <_ZN6io_pinC1EPVhS1_S1_h>
    158e:	fb a6       	std	Y+43, r15	; 0x2b
    1590:	ea a6       	std	Y+42, r14	; 0x2a
    1592:	8a e0       	ldi	r24, 0x0A	; 10
    1594:	90 e0       	ldi	r25, 0x00	; 0
    1596:	c6 d1       	rcall	.+908    	; 0x1924 <_Znwj>
    1598:	7c 01       	movw	r14, r24
    159a:	03 e0       	ldi	r16, 0x03	; 3
    159c:	23 e2       	ldi	r18, 0x23	; 35
    159e:	30 e0       	ldi	r19, 0x00	; 0
    15a0:	45 e2       	ldi	r20, 0x25	; 37
    15a2:	50 e0       	ldi	r21, 0x00	; 0
    15a4:	64 e2       	ldi	r22, 0x24	; 36
    15a6:	70 e0       	ldi	r23, 0x00	; 0
    15a8:	6f dd       	rcall	.-1314   	; 0x1088 <_ZN6io_pinC1EPVhS1_S1_h>
    15aa:	fd a6       	std	Y+45, r15	; 0x2d
    15ac:	ec a6       	std	Y+44, r14	; 0x2c
    15ae:	8a e0       	ldi	r24, 0x0A	; 10
    15b0:	90 e0       	ldi	r25, 0x00	; 0
    15b2:	b8 d1       	rcall	.+880    	; 0x1924 <_Znwj>
    15b4:	7c 01       	movw	r14, r24
    15b6:	01 e0       	ldi	r16, 0x01	; 1
    15b8:	23 e2       	ldi	r18, 0x23	; 35
    15ba:	30 e0       	ldi	r19, 0x00	; 0
    15bc:	45 e2       	ldi	r20, 0x25	; 37
    15be:	50 e0       	ldi	r21, 0x00	; 0
    15c0:	64 e2       	ldi	r22, 0x24	; 36
    15c2:	70 e0       	ldi	r23, 0x00	; 0
    15c4:	61 dd       	rcall	.-1342   	; 0x1088 <_ZN6io_pinC1EPVhS1_S1_h>
    15c6:	ff a6       	std	Y+47, r15	; 0x2f
    15c8:	ee a6       	std	Y+46, r14	; 0x2e
    15ca:	8a e0       	ldi	r24, 0x0A	; 10
    15cc:	90 e0       	ldi	r25, 0x00	; 0
    15ce:	aa d1       	rcall	.+852    	; 0x1924 <_Znwj>
    15d0:	7c 01       	movw	r14, r24
    15d2:	02 e0       	ldi	r16, 0x02	; 2
    15d4:	22 e3       	ldi	r18, 0x32	; 50
    15d6:	30 e0       	ldi	r19, 0x00	; 0
    15d8:	44 e3       	ldi	r20, 0x34	; 52
    15da:	50 e0       	ldi	r21, 0x00	; 0
    15dc:	63 e3       	ldi	r22, 0x33	; 51
    15de:	70 e0       	ldi	r23, 0x00	; 0
    15e0:	53 dd       	rcall	.-1370   	; 0x1088 <_ZN6io_pinC1EPVhS1_S1_h>
    15e2:	f9 aa       	std	Y+49, r15	; 0x31
    15e4:	e8 aa       	std	Y+48, r14	; 0x30
    15e6:	8a e0       	ldi	r24, 0x0A	; 10
    15e8:	90 e0       	ldi	r25, 0x00	; 0
    15ea:	9c d1       	rcall	.+824    	; 0x1924 <_Znwj>
    15ec:	7c 01       	movw	r14, r24
    15ee:	00 e0       	ldi	r16, 0x00	; 0
    15f0:	22 e3       	ldi	r18, 0x32	; 50
    15f2:	30 e0       	ldi	r19, 0x00	; 0
    15f4:	44 e3       	ldi	r20, 0x34	; 52
    15f6:	50 e0       	ldi	r21, 0x00	; 0
    15f8:	63 e3       	ldi	r22, 0x33	; 51
    15fa:	70 e0       	ldi	r23, 0x00	; 0
    15fc:	45 dd       	rcall	.-1398   	; 0x1088 <_ZN6io_pinC1EPVhS1_S1_h>
    15fe:	fb aa       	std	Y+51, r15	; 0x33
    1600:	ea aa       	std	Y+50, r14	; 0x32
    1602:	8a e0       	ldi	r24, 0x0A	; 10
    1604:	90 e0       	ldi	r25, 0x00	; 0
    1606:	8e d1       	rcall	.+796    	; 0x1924 <_Znwj>
    1608:	7c 01       	movw	r14, r24
    160a:	06 e0       	ldi	r16, 0x06	; 6
    160c:	29 e0       	ldi	r18, 0x09	; 9
    160e:	31 e0       	ldi	r19, 0x01	; 1
    1610:	4b e0       	ldi	r20, 0x0B	; 11
    1612:	51 e0       	ldi	r21, 0x01	; 1
    1614:	6a e0       	ldi	r22, 0x0A	; 10
    1616:	71 e0       	ldi	r23, 0x01	; 1
    1618:	37 dd       	rcall	.-1426   	; 0x1088 <_ZN6io_pinC1EPVhS1_S1_h>
    161a:	fd aa       	std	Y+53, r15	; 0x35
    161c:	ec aa       	std	Y+52, r14	; 0x34
    161e:	8a e0       	ldi	r24, 0x0A	; 10
    1620:	90 e0       	ldi	r25, 0x00	; 0
    1622:	80 d1       	rcall	.+768    	; 0x1924 <_Znwj>
    1624:	7c 01       	movw	r14, r24
    1626:	04 e0       	ldi	r16, 0x04	; 4
    1628:	29 e0       	ldi	r18, 0x09	; 9
    162a:	31 e0       	ldi	r19, 0x01	; 1
    162c:	4b e0       	ldi	r20, 0x0B	; 11
    162e:	51 e0       	ldi	r21, 0x01	; 1
    1630:	6a e0       	ldi	r22, 0x0A	; 10
    1632:	71 e0       	ldi	r23, 0x01	; 1
    1634:	29 dd       	rcall	.-1454   	; 0x1088 <_ZN6io_pinC1EPVhS1_S1_h>
    1636:	ff aa       	std	Y+55, r15	; 0x37
    1638:	ee aa       	std	Y+54, r14	; 0x36
    163a:	8a e0       	ldi	r24, 0x0A	; 10
    163c:	90 e0       	ldi	r25, 0x00	; 0
    163e:	72 d1       	rcall	.+740    	; 0x1924 <_Znwj>
    1640:	7c 01       	movw	r14, r24
    1642:	02 e0       	ldi	r16, 0x02	; 2
    1644:	29 e0       	ldi	r18, 0x09	; 9
    1646:	31 e0       	ldi	r19, 0x01	; 1
    1648:	4b e0       	ldi	r20, 0x0B	; 11
    164a:	51 e0       	ldi	r21, 0x01	; 1
    164c:	6a e0       	ldi	r22, 0x0A	; 10
    164e:	71 e0       	ldi	r23, 0x01	; 1
    1650:	1b dd       	rcall	.-1482   	; 0x1088 <_ZN6io_pinC1EPVhS1_S1_h>
    1652:	f9 ae       	std	Y+57, r15	; 0x39
    1654:	e8 ae       	std	Y+56, r14	; 0x38
    1656:	8a e0       	ldi	r24, 0x0A	; 10
    1658:	90 e0       	ldi	r25, 0x00	; 0
    165a:	64 d1       	rcall	.+712    	; 0x1924 <_Znwj>
    165c:	7c 01       	movw	r14, r24
    165e:	00 e0       	ldi	r16, 0x00	; 0
    1660:	29 e0       	ldi	r18, 0x09	; 9
    1662:	31 e0       	ldi	r19, 0x01	; 1
    1664:	4b e0       	ldi	r20, 0x0B	; 11
    1666:	51 e0       	ldi	r21, 0x01	; 1
    1668:	6a e0       	ldi	r22, 0x0A	; 10
    166a:	71 e0       	ldi	r23, 0x01	; 1
    166c:	0d dd       	rcall	.-1510   	; 0x1088 <_ZN6io_pinC1EPVhS1_S1_h>
    166e:	fb ae       	std	Y+59, r15	; 0x3b
    1670:	ea ae       	std	Y+58, r14	; 0x3a
    1672:	8a e0       	ldi	r24, 0x0A	; 10
    1674:	90 e0       	ldi	r25, 0x00	; 0
    1676:	56 d1       	rcall	.+684    	; 0x1924 <_Znwj>
    1678:	7c 01       	movw	r14, r24
    167a:	02 e0       	ldi	r16, 0x02	; 2
    167c:	23 e2       	ldi	r18, 0x23	; 35
    167e:	30 e0       	ldi	r19, 0x00	; 0
    1680:	45 e2       	ldi	r20, 0x25	; 37
    1682:	50 e0       	ldi	r21, 0x00	; 0
    1684:	64 e2       	ldi	r22, 0x24	; 36
    1686:	70 e0       	ldi	r23, 0x00	; 0
    1688:	ff dc       	rcall	.-1538   	; 0x1088 <_ZN6io_pinC1EPVhS1_S1_h>
    168a:	fd ae       	std	Y+61, r15	; 0x3d
    168c:	ec ae       	std	Y+60, r14	; 0x3c
    168e:	8a e0       	ldi	r24, 0x0A	; 10
    1690:	90 e0       	ldi	r25, 0x00	; 0
    1692:	48 d1       	rcall	.+656    	; 0x1924 <_Znwj>
    1694:	7c 01       	movw	r14, r24
    1696:	00 e0       	ldi	r16, 0x00	; 0
    1698:	23 e2       	ldi	r18, 0x23	; 35
    169a:	30 e0       	ldi	r19, 0x00	; 0
    169c:	45 e2       	ldi	r20, 0x25	; 37
    169e:	50 e0       	ldi	r21, 0x00	; 0
    16a0:	64 e2       	ldi	r22, 0x24	; 36
    16a2:	70 e0       	ldi	r23, 0x00	; 0
    16a4:	f1 dc       	rcall	.-1566   	; 0x1088 <_ZN6io_pinC1EPVhS1_S1_h>
    16a6:	ff ae       	std	Y+63, r15	; 0x3f
    16a8:	ee ae       	std	Y+62, r14	; 0x3e
    16aa:	8a e0       	ldi	r24, 0x0A	; 10
    16ac:	90 e0       	ldi	r25, 0x00	; 0
    16ae:	3a d1       	rcall	.+628    	; 0x1924 <_Znwj>
    16b0:	ec 01       	movw	r28, r24
    16b2:	05 e0       	ldi	r16, 0x05	; 5
    16b4:	20 e0       	ldi	r18, 0x00	; 0
    16b6:	31 e0       	ldi	r19, 0x01	; 1
    16b8:	42 e0       	ldi	r20, 0x02	; 2
    16ba:	51 e0       	ldi	r21, 0x01	; 1
    16bc:	61 e0       	ldi	r22, 0x01	; 1
    16be:	71 e0       	ldi	r23, 0x01	; 1
    16c0:	e3 dc       	rcall	.-1594   	; 0x1088 <_ZN6io_pinC1EPVhS1_S1_h>
    16c2:	d0 93 47 02 	sts	0x0247, r29	; 0x800247 <__data_end+0x41>
    16c6:	c0 93 46 02 	sts	0x0246, r28	; 0x800246 <__data_end+0x40>
    16ca:	8a e0       	ldi	r24, 0x0A	; 10
    16cc:	90 e0       	ldi	r25, 0x00	; 0
    16ce:	2a d1       	rcall	.+596    	; 0x1924 <_Znwj>
    16d0:	ec 01       	movw	r28, r24
    16d2:	06 e0       	ldi	r16, 0x06	; 6
    16d4:	20 e0       	ldi	r18, 0x00	; 0
    16d6:	31 e0       	ldi	r19, 0x01	; 1
    16d8:	42 e0       	ldi	r20, 0x02	; 2
    16da:	51 e0       	ldi	r21, 0x01	; 1
    16dc:	61 e0       	ldi	r22, 0x01	; 1
    16de:	71 e0       	ldi	r23, 0x01	; 1
    16e0:	d3 dc       	rcall	.-1626   	; 0x1088 <_ZN6io_pinC1EPVhS1_S1_h>
    16e2:	d0 93 49 02 	sts	0x0249, r29	; 0x800249 <__data_end+0x43>
    16e6:	c0 93 48 02 	sts	0x0248, r28	; 0x800248 <__data_end+0x42>
    16ea:	8a e0       	ldi	r24, 0x0A	; 10
    16ec:	90 e0       	ldi	r25, 0x00	; 0
    16ee:	1a d1       	rcall	.+564    	; 0x1924 <_Znwj>
    16f0:	ec 01       	movw	r28, r24
    16f2:	04 e0       	ldi	r16, 0x04	; 4
    16f4:	2c e2       	ldi	r18, 0x2C	; 44
    16f6:	30 e0       	ldi	r19, 0x00	; 0
    16f8:	4e e2       	ldi	r20, 0x2E	; 46
    16fa:	50 e0       	ldi	r21, 0x00	; 0
    16fc:	6d e2       	ldi	r22, 0x2D	; 45
    16fe:	70 e0       	ldi	r23, 0x00	; 0
    1700:	c3 dc       	rcall	.-1658   	; 0x1088 <_ZN6io_pinC1EPVhS1_S1_h>
    1702:	d0 93 4b 02 	sts	0x024B, r29	; 0x80024b <__data_end+0x45>
    1706:	c0 93 4a 02 	sts	0x024A, r28	; 0x80024a <__data_end+0x44>
    170a:	8a e0       	ldi	r24, 0x0A	; 10
    170c:	90 e0       	ldi	r25, 0x00	; 0
    170e:	0a d1       	rcall	.+532    	; 0x1924 <_Znwj>
    1710:	ec 01       	movw	r28, r24
    1712:	05 e0       	ldi	r16, 0x05	; 5
    1714:	2c e2       	ldi	r18, 0x2C	; 44
    1716:	30 e0       	ldi	r19, 0x00	; 0
    1718:	4e e2       	ldi	r20, 0x2E	; 46
    171a:	50 e0       	ldi	r21, 0x00	; 0
    171c:	6d e2       	ldi	r22, 0x2D	; 45
    171e:	70 e0       	ldi	r23, 0x00	; 0
    1720:	b3 dc       	rcall	.-1690   	; 0x1088 <_ZN6io_pinC1EPVhS1_S1_h>
    1722:	d0 93 4d 02 	sts	0x024D, r29	; 0x80024d <__data_end+0x47>
    1726:	c0 93 4c 02 	sts	0x024C, r28	; 0x80024c <__data_end+0x46>
    172a:	8a e0       	ldi	r24, 0x0A	; 10
    172c:	90 e0       	ldi	r25, 0x00	; 0
    172e:	fa d0       	rcall	.+500    	; 0x1924 <_Znwj>
    1730:	ec 01       	movw	r28, r24
    1732:	22 e3       	ldi	r18, 0x32	; 50
    1734:	30 e0       	ldi	r19, 0x00	; 0
    1736:	44 e3       	ldi	r20, 0x34	; 52
    1738:	50 e0       	ldi	r21, 0x00	; 0
    173a:	63 e3       	ldi	r22, 0x33	; 51
    173c:	70 e0       	ldi	r23, 0x00	; 0
    173e:	a4 dc       	rcall	.-1720   	; 0x1088 <_ZN6io_pinC1EPVhS1_S1_h>
    1740:	d0 93 4f 02 	sts	0x024F, r29	; 0x80024f <__data_end+0x49>
    1744:	c0 93 4e 02 	sts	0x024E, r28	; 0x80024e <__data_end+0x48>
    1748:	8a e0       	ldi	r24, 0x0A	; 10
    174a:	90 e0       	ldi	r25, 0x00	; 0
    174c:	eb d0       	rcall	.+470    	; 0x1924 <_Znwj>
    174e:	ec 01       	movw	r28, r24
    1750:	03 e0       	ldi	r16, 0x03	; 3
    1752:	2c e2       	ldi	r18, 0x2C	; 44
    1754:	30 e0       	ldi	r19, 0x00	; 0
    1756:	4e e2       	ldi	r20, 0x2E	; 46
    1758:	50 e0       	ldi	r21, 0x00	; 0
    175a:	6d e2       	ldi	r22, 0x2D	; 45
    175c:	70 e0       	ldi	r23, 0x00	; 0
    175e:	94 dc       	rcall	.-1752   	; 0x1088 <_ZN6io_pinC1EPVhS1_S1_h>
    1760:	d0 93 51 02 	sts	0x0251, r29	; 0x800251 <__data_end+0x4b>
    1764:	c0 93 50 02 	sts	0x0250, r28	; 0x800250 <__data_end+0x4a>
    1768:	8a e0       	ldi	r24, 0x0A	; 10
    176a:	90 e0       	ldi	r25, 0x00	; 0
    176c:	db d0       	rcall	.+438    	; 0x1924 <_Znwj>
    176e:	ec 01       	movw	r28, r24
    1770:	20 e0       	ldi	r18, 0x00	; 0
    1772:	31 e0       	ldi	r19, 0x01	; 1
    1774:	42 e0       	ldi	r20, 0x02	; 2
    1776:	51 e0       	ldi	r21, 0x01	; 1
    1778:	61 e0       	ldi	r22, 0x01	; 1
    177a:	71 e0       	ldi	r23, 0x01	; 1
    177c:	85 dc       	rcall	.-1782   	; 0x1088 <_ZN6io_pinC1EPVhS1_S1_h>
    177e:	d0 93 53 02 	sts	0x0253, r29	; 0x800253 <__data_end+0x4d>
    1782:	c0 93 52 02 	sts	0x0252, r28	; 0x800252 <__data_end+0x4c>
    1786:	8a e0       	ldi	r24, 0x0A	; 10
    1788:	90 e0       	ldi	r25, 0x00	; 0
    178a:	cc d0       	rcall	.+408    	; 0x1924 <_Znwj>
    178c:	ec 01       	movw	r28, r24
    178e:	04 e0       	ldi	r16, 0x04	; 4
    1790:	20 e0       	ldi	r18, 0x00	; 0
    1792:	31 e0       	ldi	r19, 0x01	; 1
    1794:	42 e0       	ldi	r20, 0x02	; 2
    1796:	51 e0       	ldi	r21, 0x01	; 1
    1798:	61 e0       	ldi	r22, 0x01	; 1
    179a:	71 e0       	ldi	r23, 0x01	; 1
    179c:	75 dc       	rcall	.-1814   	; 0x1088 <_ZN6io_pinC1EPVhS1_S1_h>
    179e:	d0 93 55 02 	sts	0x0255, r29	; 0x800255 <__data_end+0x4f>
    17a2:	c0 93 54 02 	sts	0x0254, r28	; 0x800254 <__data_end+0x4e>
    17a6:	df 91       	pop	r29
    17a8:	cf 91       	pop	r28
    17aa:	0f 91       	pop	r16
    17ac:	ff 90       	pop	r15
    17ae:	ef 90       	pop	r14
    17b0:	08 95       	ret

000017b2 <main>:
    17b2:	cf 93       	push	r28
    17b4:	df 93       	push	r29
    17b6:	1f 92       	push	r1
    17b8:	1f 92       	push	r1
    17ba:	cd b7       	in	r28, 0x3d	; 61
    17bc:	de b7       	in	r29, 0x3e	; 62
    17be:	14 be       	out	0x34, r1	; 52
    17c0:	0f b6       	in	r0, 0x3f	; 63
    17c2:	f8 94       	cli
    17c4:	a8 95       	wdr
    17c6:	80 91 60 00 	lds	r24, 0x0060	; 0x800060 <__TEXT_REGION_LENGTH__+0x700060>
    17ca:	88 61       	ori	r24, 0x18	; 24
    17cc:	80 93 60 00 	sts	0x0060, r24	; 0x800060 <__TEXT_REGION_LENGTH__+0x700060>
    17d0:	10 92 60 00 	sts	0x0060, r1	; 0x800060 <__TEXT_REGION_LENGTH__+0x700060>
    17d4:	0f be       	out	0x3f, r0	; 63
    17d6:	27 9a       	sbi	0x04, 7	; 4
    17d8:	a2 dd       	rcall	.-1212   	; 0x131e <_Z7init_iov>
    17da:	80 e7       	ldi	r24, 0x70	; 112
    17dc:	92 e0       	ldi	r25, 0x02	; 2
    17de:	90 93 99 00 	sts	0x0099, r25	; 0x800099 <__TEXT_REGION_LENGTH__+0x700099>
    17e2:	80 93 98 00 	sts	0x0098, r24	; 0x800098 <__TEXT_REGION_LENGTH__+0x700098>
    17e6:	82 e0       	ldi	r24, 0x02	; 2
    17e8:	80 93 71 00 	sts	0x0071, r24	; 0x800071 <__TEXT_REGION_LENGTH__+0x700071>
    17ec:	8c e0       	ldi	r24, 0x0C	; 12
    17ee:	80 93 91 00 	sts	0x0091, r24	; 0x800091 <__TEXT_REGION_LENGTH__+0x700091>
    17f2:	d7 d1       	rcall	.+942    	; 0x1ba2 <_Z10init_UART0v>
    17f4:	e4 d1       	rcall	.+968    	; 0x1bbe <_Z10init_UART1v>
    17f6:	87 ef       	ldi	r24, 0xF7	; 247
    17f8:	89 83       	std	Y+1, r24	; 0x01
    17fa:	82 e1       	ldi	r24, 0x12	; 18
    17fc:	8a 83       	std	Y+2, r24	; 0x02
    17fe:	62 e0       	ldi	r22, 0x02	; 2
    1800:	ce 01       	movw	r24, r28
    1802:	01 96       	adiw	r24, 0x01	; 1
    1804:	2f d2       	rcall	.+1118   	; 0x1c64 <_Z11serial_out0Phh>
    1806:	78 94       	sei
    1808:	86 e5       	ldi	r24, 0x56	; 86
    180a:	92 e0       	ldi	r25, 0x02	; 2
    180c:	b1 db       	rcall	.-2206   	; 0xf70 <_ZNV9cmdParser11checkparserEv>
    180e:	fc cf       	rjmp	.-8      	; 0x1808 <main+0x56>

00001810 <__vector_32>:
}
ISR (TIMER3_COMPA_vect){
    1810:	1f 92       	push	r1
    1812:	0f 92       	push	r0
    1814:	0f b6       	in	r0, 0x3f	; 63
    1816:	0f 92       	push	r0
    1818:	11 24       	eor	r1, r1
    181a:	0b b6       	in	r0, 0x3b	; 59
    181c:	0f 92       	push	r0
    181e:	2f 93       	push	r18
    1820:	3f 93       	push	r19
    1822:	4f 93       	push	r20
    1824:	5f 93       	push	r21
    1826:	6f 93       	push	r22
    1828:	7f 93       	push	r23
    182a:	8f 93       	push	r24
    182c:	9f 93       	push	r25
    182e:	af 93       	push	r26
    1830:	bf 93       	push	r27
    1832:	cf 93       	push	r28
    1834:	df 93       	push	r29
    1836:	ef 93       	push	r30
    1838:	ff 93       	push	r31
    183a:	c6 e0       	ldi	r28, 0x06	; 6
    183c:	d2 e0       	ldi	r29, 0x02	; 2
	for(uint8_t i = 0; i < 40; i++){
		io[i]->trigger();
    183e:	89 91       	ld	r24, Y+
    1840:	99 91       	ld	r25, Y+
    1842:	1a dd       	rcall	.-1484   	; 0x1278 <_ZNV6io_pin7triggerEv>
	OCR3A	=	624;		//624 = alter wert-->50Hz
	TIMSK3	=	1<<OCIE3A;	//Timer/Countern3, Output Compare A Match Interrupt Enable
	TCCR3B	=	(1<<CS32) | (1<<WGM32);	//prescaler:256 ; CTC mode
}
ISR (TIMER3_COMPA_vect){
	for(uint8_t i = 0; i < 40; i++){
    1844:	82 e0       	ldi	r24, 0x02	; 2
    1846:	c6 35       	cpi	r28, 0x56	; 86
    1848:	d8 07       	cpc	r29, r24
    184a:	c9 f7       	brne	.-14     	; 0x183e <__vector_32+0x2e>
		io[i]->trigger();
	}
}
    184c:	ff 91       	pop	r31
    184e:	ef 91       	pop	r30
    1850:	df 91       	pop	r29
    1852:	cf 91       	pop	r28
    1854:	bf 91       	pop	r27
    1856:	af 91       	pop	r26
    1858:	9f 91       	pop	r25
    185a:	8f 91       	pop	r24
    185c:	7f 91       	pop	r23
    185e:	6f 91       	pop	r22
    1860:	5f 91       	pop	r21
    1862:	4f 91       	pop	r20
    1864:	3f 91       	pop	r19
    1866:	2f 91       	pop	r18
    1868:	0f 90       	pop	r0
    186a:	0b be       	out	0x3b, r0	; 59
    186c:	0f 90       	pop	r0
    186e:	0f be       	out	0x3f, r0	; 63
    1870:	0f 90       	pop	r0
    1872:	1f 90       	pop	r1
    1874:	18 95       	reti

00001876 <__vector_29>:

ISR (ADC_vect){
    1876:	1f 92       	push	r1
    1878:	0f 92       	push	r0
    187a:	0f b6       	in	r0, 0x3f	; 63
    187c:	0f 92       	push	r0
    187e:	11 24       	eor	r1, r1
    1880:	0b b6       	in	r0, 0x3b	; 59
    1882:	0f 92       	push	r0
    1884:	2f 93       	push	r18
    1886:	3f 93       	push	r19
    1888:	4f 93       	push	r20
    188a:	5f 93       	push	r21
    188c:	6f 93       	push	r22
    188e:	7f 93       	push	r23
    1890:	8f 93       	push	r24
    1892:	9f 93       	push	r25
    1894:	af 93       	push	r26
    1896:	bf 93       	push	r27
    1898:	ef 93       	push	r30
    189a:	ff 93       	push	r31
	myADC.sample();
    189c:	88 e5       	ldi	r24, 0x58	; 88
    189e:	92 e0       	ldi	r25, 0x02	; 2
    18a0:	55 d8       	rcall	.-3926   	; 0x94c <_ZNV22AnalogDigitalConverter6sampleEv>
}
    18a2:	ff 91       	pop	r31
    18a4:	ef 91       	pop	r30
    18a6:	bf 91       	pop	r27
    18a8:	af 91       	pop	r26
    18aa:	9f 91       	pop	r25
    18ac:	8f 91       	pop	r24
    18ae:	7f 91       	pop	r23
    18b0:	6f 91       	pop	r22
    18b2:	5f 91       	pop	r21
    18b4:	4f 91       	pop	r20
    18b6:	3f 91       	pop	r19
    18b8:	2f 91       	pop	r18
    18ba:	0f 90       	pop	r0
    18bc:	0b be       	out	0x3b, r0	; 59
    18be:	0f 90       	pop	r0
    18c0:	0f be       	out	0x3f, r0	; 63
    18c2:	0f 90       	pop	r0
    18c4:	1f 90       	pop	r1
    18c6:	18 95       	reti

000018c8 <_Z7freeRamv>:
int16_t freeRam () {
    18c8:	cf 93       	push	r28
    18ca:	df 93       	push	r29
    18cc:	1f 92       	push	r1
    18ce:	1f 92       	push	r1
    18d0:	cd b7       	in	r28, 0x3d	; 61
    18d2:	de b7       	in	r29, 0x3e	; 62
	extern int __heap_start, *__brkval;
	int v;
	return (int16_t) &v - (__brkval == 0 ? (int) &__heap_start : (int) __brkval);
    18d4:	80 91 2b 05 	lds	r24, 0x052B	; 0x80052b <__brkval>
    18d8:	90 91 2c 05 	lds	r25, 0x052C	; 0x80052c <__brkval+0x1>
    18dc:	00 97       	sbiw	r24, 0x00	; 0
    18de:	51 f0       	breq	.+20     	; 0x18f4 <_Z7freeRamv+0x2c>
    18e0:	9c 01       	movw	r18, r24
}
    18e2:	ce 01       	movw	r24, r28
    18e4:	01 96       	adiw	r24, 0x01	; 1
    18e6:	82 1b       	sub	r24, r18
    18e8:	93 0b       	sbc	r25, r19
    18ea:	0f 90       	pop	r0
    18ec:	0f 90       	pop	r0
    18ee:	df 91       	pop	r29
    18f0:	cf 91       	pop	r28
    18f2:	08 95       	ret
	myADC.sample();
}
int16_t freeRam () {
	extern int __heap_start, *__brkval;
	int v;
	return (int16_t) &v - (__brkval == 0 ? (int) &__heap_start : (int) __brkval);
    18f4:	2f e2       	ldi	r18, 0x2F	; 47
    18f6:	35 e0       	ldi	r19, 0x05	; 5
    18f8:	f4 cf       	rjmp	.-24     	; 0x18e2 <_Z7freeRamv+0x1a>

000018fa <_GLOBAL__sub_I_myADC>:
#include <util/delay.h>

extern volatile uint8_t  InBufferUart0[256];
extern volatile uint8_t InBufferUart0pointer;

volatile AnalogDigitalConverter myADC;
    18fa:	88 e5       	ldi	r24, 0x58	; 88
    18fc:	92 e0       	ldi	r25, 0x02	; 2
    18fe:	0e 94 0d 04 	call	0x81a	; 0x81a <_ZN22AnalogDigitalConverterC1Ev>
volatile cmdParser myParser;
    1902:	86 e5       	ldi	r24, 0x56	; 86
    1904:	92 e0       	ldi	r25, 0x02	; 2
    1906:	30 cb       	rjmp	.-2464   	; 0xf68 <_ZN9cmdParserC1Ev>

00001908 <_GLOBAL__sub_D_myADC>:
}
int16_t freeRam () {
	extern int __heap_start, *__brkval;
	int v;
	return (int16_t) &v - (__brkval == 0 ? (int) &__heap_start : (int) __brkval);
}
    1908:	cf 93       	push	r28
    190a:	df 93       	push	r29
    190c:	c0 ec       	ldi	r28, 0xC0	; 192
    190e:	d3 e0       	ldi	r29, 0x03	; 3
};
const int16_t _pt1000Start = 400;
const int16_t _pt1000size = 431;


class AnalogDigitalConverter{
    1910:	ce 01       	movw	r24, r28
    1912:	43 d1       	rcall	.+646    	; 0x1b9a <_ZN10iirlowpassD1Ev>
    1914:	68 97       	sbiw	r28, 0x18	; 24
    1916:	82 e0       	ldi	r24, 0x02	; 2
    1918:	c0 34       	cpi	r28, 0x40	; 64
    191a:	d8 07       	cpc	r29, r24
    191c:	c9 f7       	brne	.-14     	; 0x1910 <_GLOBAL__sub_D_myADC+0x8>
    191e:	df 91       	pop	r29
    1920:	cf 91       	pop	r28
    1922:	08 95       	ret

00001924 <_Znwj>:
void __cxa_guard_release (__guard *g) {*(char *)g = 1;};
void __cxa_guard_abort (__guard *) {};

void * operator new(size_t size)
{
  return malloc(size);
    1924:	eb c1       	rjmp	.+982    	; 0x1cfc <malloc>

00001926 <_ZNV10iirlowpass6sampleEi>:
 *  Author: Flo
 */ 
 #include "tiefpass.h"
 #include <stdlib.h>
int16_t iirlowpass::sample(int16_t NewSample) volatile
{
    1926:	cf 92       	push	r12
    1928:	df 92       	push	r13
    192a:	ef 92       	push	r14
    192c:	ff 92       	push	r15
    192e:	cf 93       	push	r28
    1930:	df 93       	push	r29
    1932:	fc 01       	movw	r30, r24
	 //shift the old samples
	 int32_t y=0;
	 for(uint8_t n=Ntap-1; n>0; n--){
		x[n] = x[n-1];
    1934:	a6 89       	ldd	r26, Z+22	; 0x16
    1936:	b7 89       	ldd	r27, Z+23	; 0x17
    1938:	c6 89       	ldd	r28, Z+22	; 0x16
    193a:	d7 89       	ldd	r29, Z+23	; 0x17
    193c:	8a 89       	ldd	r24, Y+18	; 0x12
    193e:	9b 89       	ldd	r25, Y+19	; 0x13
    1940:	55 96       	adiw	r26, 0x15	; 21
    1942:	9c 93       	st	X, r25
    1944:	8e 93       	st	-X, r24
    1946:	54 97       	sbiw	r26, 0x14	; 20
    1948:	a6 89       	ldd	r26, Z+22	; 0x16
    194a:	b7 89       	ldd	r27, Z+23	; 0x17
    194c:	c6 89       	ldd	r28, Z+22	; 0x16
    194e:	d7 89       	ldd	r29, Z+23	; 0x17
    1950:	88 89       	ldd	r24, Y+16	; 0x10
    1952:	99 89       	ldd	r25, Y+17	; 0x11
    1954:	53 96       	adiw	r26, 0x13	; 19
    1956:	9c 93       	st	X, r25
    1958:	8e 93       	st	-X, r24
    195a:	52 97       	sbiw	r26, 0x12	; 18
    195c:	a6 89       	ldd	r26, Z+22	; 0x16
    195e:	b7 89       	ldd	r27, Z+23	; 0x17
    1960:	c6 89       	ldd	r28, Z+22	; 0x16
    1962:	d7 89       	ldd	r29, Z+23	; 0x17
    1964:	8e 85       	ldd	r24, Y+14	; 0x0e
    1966:	9f 85       	ldd	r25, Y+15	; 0x0f
    1968:	51 96       	adiw	r26, 0x11	; 17
    196a:	9c 93       	st	X, r25
    196c:	8e 93       	st	-X, r24
    196e:	50 97       	sbiw	r26, 0x10	; 16
    1970:	a6 89       	ldd	r26, Z+22	; 0x16
    1972:	b7 89       	ldd	r27, Z+23	; 0x17
    1974:	c6 89       	ldd	r28, Z+22	; 0x16
    1976:	d7 89       	ldd	r29, Z+23	; 0x17
    1978:	8c 85       	ldd	r24, Y+12	; 0x0c
    197a:	9d 85       	ldd	r25, Y+13	; 0x0d
    197c:	1f 96       	adiw	r26, 0x0f	; 15
    197e:	9c 93       	st	X, r25
    1980:	8e 93       	st	-X, r24
    1982:	1e 97       	sbiw	r26, 0x0e	; 14
    1984:	a6 89       	ldd	r26, Z+22	; 0x16
    1986:	b7 89       	ldd	r27, Z+23	; 0x17
    1988:	c6 89       	ldd	r28, Z+22	; 0x16
    198a:	d7 89       	ldd	r29, Z+23	; 0x17
    198c:	8a 85       	ldd	r24, Y+10	; 0x0a
    198e:	9b 85       	ldd	r25, Y+11	; 0x0b
    1990:	1d 96       	adiw	r26, 0x0d	; 13
    1992:	9c 93       	st	X, r25
    1994:	8e 93       	st	-X, r24
    1996:	1c 97       	sbiw	r26, 0x0c	; 12
    1998:	a6 89       	ldd	r26, Z+22	; 0x16
    199a:	b7 89       	ldd	r27, Z+23	; 0x17
    199c:	c6 89       	ldd	r28, Z+22	; 0x16
    199e:	d7 89       	ldd	r29, Z+23	; 0x17
    19a0:	88 85       	ldd	r24, Y+8	; 0x08
    19a2:	99 85       	ldd	r25, Y+9	; 0x09
    19a4:	1b 96       	adiw	r26, 0x0b	; 11
    19a6:	9c 93       	st	X, r25
    19a8:	8e 93       	st	-X, r24
    19aa:	1a 97       	sbiw	r26, 0x0a	; 10
    19ac:	a6 89       	ldd	r26, Z+22	; 0x16
    19ae:	b7 89       	ldd	r27, Z+23	; 0x17
    19b0:	c6 89       	ldd	r28, Z+22	; 0x16
    19b2:	d7 89       	ldd	r29, Z+23	; 0x17
    19b4:	8e 81       	ldd	r24, Y+6	; 0x06
    19b6:	9f 81       	ldd	r25, Y+7	; 0x07
    19b8:	19 96       	adiw	r26, 0x09	; 9
    19ba:	9c 93       	st	X, r25
    19bc:	8e 93       	st	-X, r24
    19be:	18 97       	sbiw	r26, 0x08	; 8
    19c0:	a6 89       	ldd	r26, Z+22	; 0x16
    19c2:	b7 89       	ldd	r27, Z+23	; 0x17
    19c4:	c6 89       	ldd	r28, Z+22	; 0x16
    19c6:	d7 89       	ldd	r29, Z+23	; 0x17
    19c8:	8c 81       	ldd	r24, Y+4	; 0x04
    19ca:	9d 81       	ldd	r25, Y+5	; 0x05
    19cc:	17 96       	adiw	r26, 0x07	; 7
    19ce:	9c 93       	st	X, r25
    19d0:	8e 93       	st	-X, r24
    19d2:	16 97       	sbiw	r26, 0x06	; 6
    19d4:	a6 89       	ldd	r26, Z+22	; 0x16
    19d6:	b7 89       	ldd	r27, Z+23	; 0x17
    19d8:	c6 89       	ldd	r28, Z+22	; 0x16
    19da:	d7 89       	ldd	r29, Z+23	; 0x17
    19dc:	8a 81       	ldd	r24, Y+2	; 0x02
    19de:	9b 81       	ldd	r25, Y+3	; 0x03
    19e0:	15 96       	adiw	r26, 0x05	; 5
    19e2:	9c 93       	st	X, r25
    19e4:	8e 93       	st	-X, r24
    19e6:	14 97       	sbiw	r26, 0x04	; 4
    19e8:	a6 89       	ldd	r26, Z+22	; 0x16
    19ea:	b7 89       	ldd	r27, Z+23	; 0x17
    19ec:	c6 89       	ldd	r28, Z+22	; 0x16
    19ee:	d7 89       	ldd	r29, Z+23	; 0x17
    19f0:	88 81       	ld	r24, Y
    19f2:	99 81       	ldd	r25, Y+1	; 0x01
    19f4:	13 96       	adiw	r26, 0x03	; 3
    19f6:	9c 93       	st	X, r25
    19f8:	8e 93       	st	-X, r24
    19fa:	12 97       	sbiw	r26, 0x02	; 2
	 }

	  x[0] = NewSample;
    19fc:	a6 89       	ldd	r26, Z+22	; 0x16
    19fe:	b7 89       	ldd	r27, Z+23	; 0x17
    1a00:	6d 93       	st	X+, r22
    1a02:	7c 93       	st	X, r23
	  for(uint8_t n=0; n<Ntap; n++){
			y += (int32_t)FIRCoef[n] * (int32_t)x[n];
    1a04:	20 81       	ld	r18, Z
    1a06:	31 81       	ldd	r19, Z+1	; 0x01
    1a08:	a6 89       	ldd	r26, Z+22	; 0x16
    1a0a:	b7 89       	ldd	r27, Z+23	; 0x17
    1a0c:	6d 91       	ld	r22, X+
    1a0e:	7c 91       	ld	r23, X
    1a10:	c2 81       	ldd	r28, Z+2	; 0x02
    1a12:	d3 81       	ldd	r29, Z+3	; 0x03
    1a14:	86 89       	ldd	r24, Z+22	; 0x16
    1a16:	97 89       	ldd	r25, Z+23	; 0x17
    1a18:	dc 01       	movw	r26, r24
    1a1a:	12 96       	adiw	r26, 0x02	; 2
    1a1c:	4d 91       	ld	r20, X+
    1a1e:	5c 91       	ld	r21, X
    1a20:	13 97       	sbiw	r26, 0x03	; 3
    1a22:	db 01       	movw	r26, r22
    1a24:	50 d1       	rcall	.+672    	; 0x1cc6 <__mulhisi3>
    1a26:	6b 01       	movw	r12, r22
    1a28:	7c 01       	movw	r14, r24
    1a2a:	9e 01       	movw	r18, r28
    1a2c:	da 01       	movw	r26, r20
    1a2e:	4b d1       	rcall	.+662    	; 0x1cc6 <__mulhisi3>
    1a30:	c6 0e       	add	r12, r22
    1a32:	d7 1e       	adc	r13, r23
    1a34:	e8 1e       	adc	r14, r24
    1a36:	f9 1e       	adc	r15, r25
    1a38:	24 81       	ldd	r18, Z+4	; 0x04
    1a3a:	35 81       	ldd	r19, Z+5	; 0x05
    1a3c:	a6 89       	ldd	r26, Z+22	; 0x16
    1a3e:	b7 89       	ldd	r27, Z+23	; 0x17
    1a40:	14 96       	adiw	r26, 0x04	; 4
    1a42:	0d 90       	ld	r0, X+
    1a44:	bc 91       	ld	r27, X
    1a46:	a0 2d       	mov	r26, r0
    1a48:	3e d1       	rcall	.+636    	; 0x1cc6 <__mulhisi3>
    1a4a:	c6 0e       	add	r12, r22
    1a4c:	d7 1e       	adc	r13, r23
    1a4e:	e8 1e       	adc	r14, r24
    1a50:	f9 1e       	adc	r15, r25
    1a52:	26 81       	ldd	r18, Z+6	; 0x06
    1a54:	37 81       	ldd	r19, Z+7	; 0x07
    1a56:	a6 89       	ldd	r26, Z+22	; 0x16
    1a58:	b7 89       	ldd	r27, Z+23	; 0x17
    1a5a:	16 96       	adiw	r26, 0x06	; 6
    1a5c:	0d 90       	ld	r0, X+
    1a5e:	bc 91       	ld	r27, X
    1a60:	a0 2d       	mov	r26, r0
    1a62:	31 d1       	rcall	.+610    	; 0x1cc6 <__mulhisi3>
    1a64:	c6 0e       	add	r12, r22
    1a66:	d7 1e       	adc	r13, r23
    1a68:	e8 1e       	adc	r14, r24
    1a6a:	f9 1e       	adc	r15, r25
    1a6c:	20 85       	ldd	r18, Z+8	; 0x08
    1a6e:	31 85       	ldd	r19, Z+9	; 0x09
    1a70:	a6 89       	ldd	r26, Z+22	; 0x16
    1a72:	b7 89       	ldd	r27, Z+23	; 0x17
    1a74:	18 96       	adiw	r26, 0x08	; 8
    1a76:	0d 90       	ld	r0, X+
    1a78:	bc 91       	ld	r27, X
    1a7a:	a0 2d       	mov	r26, r0
    1a7c:	24 d1       	rcall	.+584    	; 0x1cc6 <__mulhisi3>
    1a7e:	c6 0e       	add	r12, r22
    1a80:	d7 1e       	adc	r13, r23
    1a82:	e8 1e       	adc	r14, r24
    1a84:	f9 1e       	adc	r15, r25
    1a86:	22 85       	ldd	r18, Z+10	; 0x0a
    1a88:	33 85       	ldd	r19, Z+11	; 0x0b
    1a8a:	a6 89       	ldd	r26, Z+22	; 0x16
    1a8c:	b7 89       	ldd	r27, Z+23	; 0x17
    1a8e:	1a 96       	adiw	r26, 0x0a	; 10
    1a90:	0d 90       	ld	r0, X+
    1a92:	bc 91       	ld	r27, X
    1a94:	a0 2d       	mov	r26, r0
    1a96:	17 d1       	rcall	.+558    	; 0x1cc6 <__mulhisi3>
    1a98:	c6 0e       	add	r12, r22
    1a9a:	d7 1e       	adc	r13, r23
    1a9c:	e8 1e       	adc	r14, r24
    1a9e:	f9 1e       	adc	r15, r25
    1aa0:	24 85       	ldd	r18, Z+12	; 0x0c
    1aa2:	35 85       	ldd	r19, Z+13	; 0x0d
    1aa4:	a6 89       	ldd	r26, Z+22	; 0x16
    1aa6:	b7 89       	ldd	r27, Z+23	; 0x17
    1aa8:	1c 96       	adiw	r26, 0x0c	; 12
    1aaa:	0d 90       	ld	r0, X+
    1aac:	bc 91       	ld	r27, X
    1aae:	a0 2d       	mov	r26, r0
    1ab0:	0a d1       	rcall	.+532    	; 0x1cc6 <__mulhisi3>
    1ab2:	c6 0e       	add	r12, r22
    1ab4:	d7 1e       	adc	r13, r23
    1ab6:	e8 1e       	adc	r14, r24
    1ab8:	f9 1e       	adc	r15, r25
    1aba:	26 85       	ldd	r18, Z+14	; 0x0e
    1abc:	37 85       	ldd	r19, Z+15	; 0x0f
    1abe:	a6 89       	ldd	r26, Z+22	; 0x16
    1ac0:	b7 89       	ldd	r27, Z+23	; 0x17
    1ac2:	1e 96       	adiw	r26, 0x0e	; 14
    1ac4:	0d 90       	ld	r0, X+
    1ac6:	bc 91       	ld	r27, X
    1ac8:	a0 2d       	mov	r26, r0
    1aca:	fd d0       	rcall	.+506    	; 0x1cc6 <__mulhisi3>
    1acc:	c6 0e       	add	r12, r22
    1ace:	d7 1e       	adc	r13, r23
    1ad0:	e8 1e       	adc	r14, r24
    1ad2:	f9 1e       	adc	r15, r25
    1ad4:	20 89       	ldd	r18, Z+16	; 0x10
    1ad6:	31 89       	ldd	r19, Z+17	; 0x11
    1ad8:	a6 89       	ldd	r26, Z+22	; 0x16
    1ada:	b7 89       	ldd	r27, Z+23	; 0x17
    1adc:	50 96       	adiw	r26, 0x10	; 16
    1ade:	0d 90       	ld	r0, X+
    1ae0:	bc 91       	ld	r27, X
    1ae2:	a0 2d       	mov	r26, r0
    1ae4:	f0 d0       	rcall	.+480    	; 0x1cc6 <__mulhisi3>
    1ae6:	c6 0e       	add	r12, r22
    1ae8:	d7 1e       	adc	r13, r23
    1aea:	e8 1e       	adc	r14, r24
    1aec:	f9 1e       	adc	r15, r25
    1aee:	22 89       	ldd	r18, Z+18	; 0x12
    1af0:	33 89       	ldd	r19, Z+19	; 0x13
    1af2:	a6 89       	ldd	r26, Z+22	; 0x16
    1af4:	b7 89       	ldd	r27, Z+23	; 0x17
    1af6:	52 96       	adiw	r26, 0x12	; 18
    1af8:	0d 90       	ld	r0, X+
    1afa:	bc 91       	ld	r27, X
    1afc:	a0 2d       	mov	r26, r0
    1afe:	e3 d0       	rcall	.+454    	; 0x1cc6 <__mulhisi3>
    1b00:	c6 0e       	add	r12, r22
    1b02:	d7 1e       	adc	r13, r23
    1b04:	e8 1e       	adc	r14, r24
    1b06:	f9 1e       	adc	r15, r25
    1b08:	24 89       	ldd	r18, Z+20	; 0x14
    1b0a:	35 89       	ldd	r19, Z+21	; 0x15
    1b0c:	06 88       	ldd	r0, Z+22	; 0x16
    1b0e:	f7 89       	ldd	r31, Z+23	; 0x17
    1b10:	e0 2d       	mov	r30, r0
    1b12:	a4 89       	ldd	r26, Z+20	; 0x14
    1b14:	b5 89       	ldd	r27, Z+21	; 0x15
	  }
	 
	  
	  return y>>18;
    1b16:	d7 d0       	rcall	.+430    	; 0x1cc6 <__mulhisi3>
    1b18:	dc 01       	movw	r26, r24
    1b1a:	cb 01       	movw	r24, r22
    1b1c:	8c 0d       	add	r24, r12
    1b1e:	9d 1d       	adc	r25, r13
    1b20:	ae 1d       	adc	r26, r14
    1b22:	bf 1d       	adc	r27, r15
    1b24:	22 e1       	ldi	r18, 0x12	; 18
    1b26:	b5 95       	asr	r27
    1b28:	a7 95       	ror	r26
    1b2a:	97 95       	ror	r25
    1b2c:	87 95       	ror	r24
    1b2e:	2a 95       	dec	r18
    1b30:	d1 f7       	brne	.-12     	; 0x1b26 <_ZNV10iirlowpass6sampleEi+0x200>
    1b32:	df 91       	pop	r29

}
    1b34:	cf 91       	pop	r28
    1b36:	ff 90       	pop	r15
    1b38:	ef 90       	pop	r14
    1b3a:	df 90       	pop	r13
    1b3c:	cf 90       	pop	r12
    1b3e:	08 95       	ret

00001b40 <_ZN10iirlowpassC1Ev>:
    1b40:	cf 93       	push	r28
iirlowpass::iirlowpass(){
    1b42:	df 93       	push	r29
    1b44:	ec 01       	movw	r28, r24

	FIRCoef[0] = 22780;
    1b46:	8c ef       	ldi	r24, 0xFC	; 252
    1b48:	98 e5       	ldi	r25, 0x58	; 88
    1b4a:	99 83       	std	Y+1, r25	; 0x01
    1b4c:	88 83       	st	Y, r24
	FIRCoef[1] = 23402;
    1b4e:	2a e6       	ldi	r18, 0x6A	; 106
    1b50:	3b e5       	ldi	r19, 0x5B	; 91
    1b52:	3b 83       	std	Y+3, r19	; 0x03
    1b54:	2a 83       	std	Y+2, r18	; 0x02
	FIRCoef[2] = 23896;
    1b56:	48 e5       	ldi	r20, 0x58	; 88
    1b58:	5d e5       	ldi	r21, 0x5D	; 93
    1b5a:	5d 83       	std	Y+5, r21	; 0x05
    1b5c:	4c 83       	std	Y+4, r20	; 0x04
	FIRCoef[3] = 24252;
    1b5e:	6c eb       	ldi	r22, 0xBC	; 188
    1b60:	7e e5       	ldi	r23, 0x5E	; 94
    1b62:	7f 83       	std	Y+7, r23	; 0x07
    1b64:	6e 83       	std	Y+6, r22	; 0x06
	FIRCoef[4] = 24469;
    1b66:	e5 e9       	ldi	r30, 0x95	; 149
    1b68:	ff e5       	ldi	r31, 0x5F	; 95
    1b6a:	f9 87       	std	Y+9, r31	; 0x09
    1b6c:	e8 87       	std	Y+8, r30	; 0x08
	FIRCoef[5] = 24541;
    1b6e:	ad ed       	ldi	r26, 0xDD	; 221
    1b70:	bf e5       	ldi	r27, 0x5F	; 95
    1b72:	bb 87       	std	Y+11, r27	; 0x0b
    1b74:	aa 87       	std	Y+10, r26	; 0x0a
	FIRCoef[6] = 24469;
    1b76:	fd 87       	std	Y+13, r31	; 0x0d
    1b78:	ec 87       	std	Y+12, r30	; 0x0c
	FIRCoef[7] = 24252;;
    1b7a:	7f 87       	std	Y+15, r23	; 0x0f
    1b7c:	6e 87       	std	Y+14, r22	; 0x0e
	FIRCoef[8] = 23896;
    1b7e:	59 8b       	std	Y+17, r21	; 0x11
    1b80:	48 8b       	std	Y+16, r20	; 0x10
	FIRCoef[9] = 23402;
    1b82:	3b 8b       	std	Y+19, r19	; 0x13
    1b84:	2a 8b       	std	Y+18, r18	; 0x12
	FIRCoef[10] = 22780;
    1b86:	9d 8b       	std	Y+21, r25	; 0x15
    1b88:	8c 8b       	std	Y+20, r24	; 0x14
	x=(int16_t*)malloc(2*(Ntap));
    1b8a:	86 e1       	ldi	r24, 0x16	; 22
    1b8c:	90 e0       	ldi	r25, 0x00	; 0
    1b8e:	b6 d0       	rcall	.+364    	; 0x1cfc <malloc>
    1b90:	9f 8b       	std	Y+23, r25	; 0x17
    1b92:	8e 8b       	std	Y+22, r24	; 0x16
	
};
    1b94:	df 91       	pop	r29
    1b96:	cf 91       	pop	r28
    1b98:	08 95       	ret

00001b9a <_ZN10iirlowpassD1Ev>:
iirlowpass::~iirlowpass(){
	free(x);
    1b9a:	fc 01       	movw	r30, r24
    1b9c:	86 89       	ldd	r24, Z+22	; 0x16
    1b9e:	97 89       	ldd	r25, Z+23	; 0x17
    1ba0:	45 c1       	rjmp	.+650    	; 0x1e2c <free>

00001ba2 <_Z10init_UART0v>:
void serial_out1(uint8_t data){
	 while (!(UCSR0A & (1<<UDRE0)))  // warten bis Senden moeglich
	 {
		 asm("nop");
	 }
	 UDR1 = data;                    //sende Zeichen
    1ba2:	10 92 2a 04 	sts	0x042A, r1	; 0x80042a <InBufferUart0pointer>
    1ba6:	10 92 c5 00 	sts	0x00C5, r1	; 0x8000c5 <__TEXT_REGION_LENGTH__+0x7000c5>
    1baa:	80 e1       	ldi	r24, 0x10	; 16
    1bac:	80 93 c4 00 	sts	0x00C4, r24	; 0x8000c4 <__TEXT_REGION_LENGTH__+0x7000c4>
    1bb0:	88 e9       	ldi	r24, 0x98	; 152
    1bb2:	80 93 c1 00 	sts	0x00C1, r24	; 0x8000c1 <__TEXT_REGION_LENGTH__+0x7000c1>
    1bb6:	86 e0       	ldi	r24, 0x06	; 6
    1bb8:	80 93 c2 00 	sts	0x00C2, r24	; 0x8000c2 <__TEXT_REGION_LENGTH__+0x7000c2>
    1bbc:	08 95       	ret

00001bbe <_Z10init_UART1v>:
    1bbe:	10 92 cd 00 	sts	0x00CD, r1	; 0x8000cd <__TEXT_REGION_LENGTH__+0x7000cd>
    1bc2:	83 e3       	ldi	r24, 0x33	; 51
    1bc4:	80 93 cc 00 	sts	0x00CC, r24	; 0x8000cc <__TEXT_REGION_LENGTH__+0x7000cc>
    1bc8:	88 e9       	ldi	r24, 0x98	; 152
    1bca:	80 93 c9 00 	sts	0x00C9, r24	; 0x8000c9 <__TEXT_REGION_LENGTH__+0x7000c9>
    1bce:	86 e0       	ldi	r24, 0x06	; 6
    1bd0:	80 93 ca 00 	sts	0x00CA, r24	; 0x8000ca <__TEXT_REGION_LENGTH__+0x7000ca>
    1bd4:	08 95       	ret

00001bd6 <__vector_25>:
    1bd6:	1f 92       	push	r1
    1bd8:	0f 92       	push	r0
    1bda:	0f b6       	in	r0, 0x3f	; 63
    1bdc:	0f 92       	push	r0
    1bde:	11 24       	eor	r1, r1
    1be0:	0b b6       	in	r0, 0x3b	; 59
    1be2:	0f 92       	push	r0
    1be4:	2f 93       	push	r18
    1be6:	3f 93       	push	r19
    1be8:	4f 93       	push	r20
    1bea:	5f 93       	push	r21
    1bec:	6f 93       	push	r22
    1bee:	7f 93       	push	r23
    1bf0:	8f 93       	push	r24
    1bf2:	9f 93       	push	r25
    1bf4:	af 93       	push	r26
    1bf6:	bf 93       	push	r27
    1bf8:	ef 93       	push	r30
    1bfa:	ff 93       	push	r31
    1bfc:	90 91 c6 00 	lds	r25, 0x00C6	; 0x8000c6 <__TEXT_REGION_LENGTH__+0x7000c6>
    1c00:	e0 91 2a 04 	lds	r30, 0x042A	; 0x80042a <InBufferUart0pointer>
    1c04:	f0 e0       	ldi	r31, 0x00	; 0
    1c06:	e5 5d       	subi	r30, 0xD5	; 213
    1c08:	fb 4f       	sbci	r31, 0xFB	; 251
    1c0a:	90 83       	st	Z, r25
    1c0c:	80 91 2a 04 	lds	r24, 0x042A	; 0x80042a <InBufferUart0pointer>
    1c10:	8f 5f       	subi	r24, 0xFF	; 255
    1c12:	80 93 2a 04 	sts	0x042A, r24	; 0x80042a <InBufferUart0pointer>
    1c16:	92 31       	cpi	r25, 0x12	; 18
    1c18:	99 f0       	breq	.+38     	; 0x1c40 <__vector_25+0x6a>
    1c1a:	ff 91       	pop	r31
    1c1c:	ef 91       	pop	r30
    1c1e:	bf 91       	pop	r27
    1c20:	af 91       	pop	r26
    1c22:	9f 91       	pop	r25
    1c24:	8f 91       	pop	r24
    1c26:	7f 91       	pop	r23
    1c28:	6f 91       	pop	r22
    1c2a:	5f 91       	pop	r21
    1c2c:	4f 91       	pop	r20
    1c2e:	3f 91       	pop	r19
    1c30:	2f 91       	pop	r18
    1c32:	0f 90       	pop	r0
    1c34:	0b be       	out	0x3b, r0	; 59
    1c36:	0f 90       	pop	r0
    1c38:	0f be       	out	0x3f, r0	; 63
    1c3a:	0f 90       	pop	r0
    1c3c:	1f 90       	pop	r1
    1c3e:	18 95       	reti
    1c40:	86 e5       	ldi	r24, 0x56	; 86
    1c42:	92 e0       	ldi	r25, 0x02	; 2
    1c44:	fd d9       	rcall	.-3078   	; 0x1040 <_ZNV9cmdParser14inc_parser_cntEv>
    1c46:	e9 cf       	rjmp	.-46     	; 0x1c1a <__vector_25+0x44>

00001c48 <__vector_36>:
    1c48:	1f 92       	push	r1
    1c4a:	0f 92       	push	r0
    1c4c:	0f b6       	in	r0, 0x3f	; 63
    1c4e:	0f 92       	push	r0
    1c50:	11 24       	eor	r1, r1
    1c52:	8f 93       	push	r24
    1c54:	80 91 ce 00 	lds	r24, 0x00CE	; 0x8000ce <__TEXT_REGION_LENGTH__+0x7000ce>
    1c58:	8f 91       	pop	r24
    1c5a:	0f 90       	pop	r0
    1c5c:	0f be       	out	0x3f, r0	; 63
    1c5e:	0f 90       	pop	r0
    1c60:	1f 90       	pop	r1
    1c62:	18 95       	reti

00001c64 <_Z11serial_out0Phh>:
    1c64:	1f 93       	push	r17
    1c66:	cf 93       	push	r28
    1c68:	df 93       	push	r29
    1c6a:	18 2f       	mov	r17, r24
    1c6c:	d9 2f       	mov	r29, r25
    1c6e:	c6 2f       	mov	r28, r22
    1c70:	89 e2       	ldi	r24, 0x29	; 41
    1c72:	94 e0       	ldi	r25, 0x04	; 4
    1c74:	46 db       	rcall	.-2420   	; 0x1302 <_ZNV4lock7tryLockEv>
    1c76:	cc 23       	and	r28, r28
    1c78:	a9 f0       	breq	.+42     	; 0x1ca4 <_Z11serial_out0Phh+0x40>
    1c7a:	e1 2f       	mov	r30, r17
    1c7c:	fd 2f       	mov	r31, r29
    1c7e:	c1 50       	subi	r28, 0x01	; 1
    1c80:	2c 2f       	mov	r18, r28
    1c82:	30 e0       	ldi	r19, 0x00	; 0
    1c84:	2f 5f       	subi	r18, 0xFF	; 255
    1c86:	3f 4f       	sbci	r19, 0xFF	; 255
    1c88:	2e 0f       	add	r18, r30
    1c8a:	3f 1f       	adc	r19, r31
    1c8c:	01 c0       	rjmp	.+2      	; 0x1c90 <_Z11serial_out0Phh+0x2c>
    1c8e:	00 00       	nop
    1c90:	80 91 c0 00 	lds	r24, 0x00C0	; 0x8000c0 <__TEXT_REGION_LENGTH__+0x7000c0>
    1c94:	85 ff       	sbrs	r24, 5
    1c96:	fb cf       	rjmp	.-10     	; 0x1c8e <_Z11serial_out0Phh+0x2a>
    1c98:	81 91       	ld	r24, Z+
    1c9a:	80 93 c6 00 	sts	0x00C6, r24	; 0x8000c6 <__TEXT_REGION_LENGTH__+0x7000c6>
    1c9e:	e2 17       	cp	r30, r18
    1ca0:	f3 07       	cpc	r31, r19
    1ca2:	b1 f7       	brne	.-20     	; 0x1c90 <_Z11serial_out0Phh+0x2c>
    1ca4:	89 e2       	ldi	r24, 0x29	; 41
    1ca6:	94 e0       	ldi	r25, 0x04	; 4
    1ca8:	df 91       	pop	r29
    1caa:	cf 91       	pop	r28
    1cac:	1f 91       	pop	r17
    1cae:	34 cb       	rjmp	.-2456   	; 0x1318 <_ZNV4lock6unlockEv>

00001cb0 <_GLOBAL__sub_I_InBufferUart0>:
 #include "lock.h"
 #include <stdbool.h>

volatile uint8_t InBufferUart0[256];
volatile uint8_t InBufferUart0pointer = 0;
volatile lock lockUart0;
    1cb0:	89 e2       	ldi	r24, 0x29	; 41
    1cb2:	94 e0       	ldi	r25, 0x04	; 4
    1cb4:	23 cb       	rjmp	.-2490   	; 0x12fc <_ZN4lockC1Ev>

00001cb6 <__tablejump2__>:
    1cb6:	ee 0f       	add	r30, r30
    1cb8:	ff 1f       	adc	r31, r31
    1cba:	88 1f       	adc	r24, r24
    1cbc:	8b bf       	out	0x3b, r24	; 59
    1cbe:	07 90       	elpm	r0, Z+
    1cc0:	f6 91       	elpm	r31, Z
    1cc2:	e0 2d       	mov	r30, r0
    1cc4:	19 94       	eijmp

00001cc6 <__mulhisi3>:
    1cc6:	05 d0       	rcall	.+10     	; 0x1cd2 <__umulhisi3>
    1cc8:	33 23       	and	r19, r19
    1cca:	12 f4       	brpl	.+4      	; 0x1cd0 <__mulhisi3+0xa>
    1ccc:	8a 1b       	sub	r24, r26
    1cce:	9b 0b       	sbc	r25, r27
    1cd0:	10 c0       	rjmp	.+32     	; 0x1cf2 <__usmulhisi3_tail>

00001cd2 <__umulhisi3>:
    1cd2:	a2 9f       	mul	r26, r18
    1cd4:	b0 01       	movw	r22, r0
    1cd6:	b3 9f       	mul	r27, r19
    1cd8:	c0 01       	movw	r24, r0
    1cda:	a3 9f       	mul	r26, r19
    1cdc:	70 0d       	add	r23, r0
    1cde:	81 1d       	adc	r24, r1
    1ce0:	11 24       	eor	r1, r1
    1ce2:	91 1d       	adc	r25, r1
    1ce4:	b2 9f       	mul	r27, r18
    1ce6:	70 0d       	add	r23, r0
    1ce8:	81 1d       	adc	r24, r1
    1cea:	11 24       	eor	r1, r1
    1cec:	91 1d       	adc	r25, r1
    1cee:	08 95       	ret

00001cf0 <__usmulhisi3>:
    1cf0:	f0 df       	rcall	.-32     	; 0x1cd2 <__umulhisi3>

00001cf2 <__usmulhisi3_tail>:
    1cf2:	b7 ff       	sbrs	r27, 7
    1cf4:	08 95       	ret
    1cf6:	82 1b       	sub	r24, r18
    1cf8:	93 0b       	sbc	r25, r19
    1cfa:	08 95       	ret

00001cfc <malloc>:
    1cfc:	0f 93       	push	r16
    1cfe:	1f 93       	push	r17
    1d00:	cf 93       	push	r28
    1d02:	df 93       	push	r29
    1d04:	82 30       	cpi	r24, 0x02	; 2
    1d06:	91 05       	cpc	r25, r1
    1d08:	10 f4       	brcc	.+4      	; 0x1d0e <malloc+0x12>
    1d0a:	82 e0       	ldi	r24, 0x02	; 2
    1d0c:	90 e0       	ldi	r25, 0x00	; 0
    1d0e:	e0 91 2d 05 	lds	r30, 0x052D	; 0x80052d <__flp>
    1d12:	f0 91 2e 05 	lds	r31, 0x052E	; 0x80052e <__flp+0x1>
    1d16:	20 e0       	ldi	r18, 0x00	; 0
    1d18:	30 e0       	ldi	r19, 0x00	; 0
    1d1a:	a0 e0       	ldi	r26, 0x00	; 0
    1d1c:	b0 e0       	ldi	r27, 0x00	; 0
    1d1e:	30 97       	sbiw	r30, 0x00	; 0
    1d20:	19 f1       	breq	.+70     	; 0x1d68 <malloc+0x6c>
    1d22:	40 81       	ld	r20, Z
    1d24:	51 81       	ldd	r21, Z+1	; 0x01
    1d26:	02 81       	ldd	r16, Z+2	; 0x02
    1d28:	13 81       	ldd	r17, Z+3	; 0x03
    1d2a:	48 17       	cp	r20, r24
    1d2c:	59 07       	cpc	r21, r25
    1d2e:	c8 f0       	brcs	.+50     	; 0x1d62 <malloc+0x66>
    1d30:	84 17       	cp	r24, r20
    1d32:	95 07       	cpc	r25, r21
    1d34:	69 f4       	brne	.+26     	; 0x1d50 <malloc+0x54>
    1d36:	10 97       	sbiw	r26, 0x00	; 0
    1d38:	31 f0       	breq	.+12     	; 0x1d46 <malloc+0x4a>
    1d3a:	12 96       	adiw	r26, 0x02	; 2
    1d3c:	0c 93       	st	X, r16
    1d3e:	12 97       	sbiw	r26, 0x02	; 2
    1d40:	13 96       	adiw	r26, 0x03	; 3
    1d42:	1c 93       	st	X, r17
    1d44:	27 c0       	rjmp	.+78     	; 0x1d94 <malloc+0x98>
    1d46:	00 93 2d 05 	sts	0x052D, r16	; 0x80052d <__flp>
    1d4a:	10 93 2e 05 	sts	0x052E, r17	; 0x80052e <__flp+0x1>
    1d4e:	22 c0       	rjmp	.+68     	; 0x1d94 <malloc+0x98>
    1d50:	21 15       	cp	r18, r1
    1d52:	31 05       	cpc	r19, r1
    1d54:	19 f0       	breq	.+6      	; 0x1d5c <malloc+0x60>
    1d56:	42 17       	cp	r20, r18
    1d58:	53 07       	cpc	r21, r19
    1d5a:	18 f4       	brcc	.+6      	; 0x1d62 <malloc+0x66>
    1d5c:	9a 01       	movw	r18, r20
    1d5e:	bd 01       	movw	r22, r26
    1d60:	ef 01       	movw	r28, r30
    1d62:	df 01       	movw	r26, r30
    1d64:	f8 01       	movw	r30, r16
    1d66:	db cf       	rjmp	.-74     	; 0x1d1e <malloc+0x22>
    1d68:	21 15       	cp	r18, r1
    1d6a:	31 05       	cpc	r19, r1
    1d6c:	f9 f0       	breq	.+62     	; 0x1dac <malloc+0xb0>
    1d6e:	28 1b       	sub	r18, r24
    1d70:	39 0b       	sbc	r19, r25
    1d72:	24 30       	cpi	r18, 0x04	; 4
    1d74:	31 05       	cpc	r19, r1
    1d76:	80 f4       	brcc	.+32     	; 0x1d98 <malloc+0x9c>
    1d78:	8a 81       	ldd	r24, Y+2	; 0x02
    1d7a:	9b 81       	ldd	r25, Y+3	; 0x03
    1d7c:	61 15       	cp	r22, r1
    1d7e:	71 05       	cpc	r23, r1
    1d80:	21 f0       	breq	.+8      	; 0x1d8a <malloc+0x8e>
    1d82:	fb 01       	movw	r30, r22
    1d84:	93 83       	std	Z+3, r25	; 0x03
    1d86:	82 83       	std	Z+2, r24	; 0x02
    1d88:	04 c0       	rjmp	.+8      	; 0x1d92 <malloc+0x96>
    1d8a:	90 93 2e 05 	sts	0x052E, r25	; 0x80052e <__flp+0x1>
    1d8e:	80 93 2d 05 	sts	0x052D, r24	; 0x80052d <__flp>
    1d92:	fe 01       	movw	r30, r28
    1d94:	32 96       	adiw	r30, 0x02	; 2
    1d96:	44 c0       	rjmp	.+136    	; 0x1e20 <malloc+0x124>
    1d98:	fe 01       	movw	r30, r28
    1d9a:	e2 0f       	add	r30, r18
    1d9c:	f3 1f       	adc	r31, r19
    1d9e:	81 93       	st	Z+, r24
    1da0:	91 93       	st	Z+, r25
    1da2:	22 50       	subi	r18, 0x02	; 2
    1da4:	31 09       	sbc	r19, r1
    1da6:	39 83       	std	Y+1, r19	; 0x01
    1da8:	28 83       	st	Y, r18
    1daa:	3a c0       	rjmp	.+116    	; 0x1e20 <malloc+0x124>
    1dac:	20 91 2b 05 	lds	r18, 0x052B	; 0x80052b <__brkval>
    1db0:	30 91 2c 05 	lds	r19, 0x052C	; 0x80052c <__brkval+0x1>
    1db4:	23 2b       	or	r18, r19
    1db6:	41 f4       	brne	.+16     	; 0x1dc8 <malloc+0xcc>
    1db8:	20 91 02 02 	lds	r18, 0x0202	; 0x800202 <__malloc_heap_start>
    1dbc:	30 91 03 02 	lds	r19, 0x0203	; 0x800203 <__malloc_heap_start+0x1>
    1dc0:	30 93 2c 05 	sts	0x052C, r19	; 0x80052c <__brkval+0x1>
    1dc4:	20 93 2b 05 	sts	0x052B, r18	; 0x80052b <__brkval>
    1dc8:	20 91 00 02 	lds	r18, 0x0200	; 0x800200 <__data_start>
    1dcc:	30 91 01 02 	lds	r19, 0x0201	; 0x800201 <__data_start+0x1>
    1dd0:	21 15       	cp	r18, r1
    1dd2:	31 05       	cpc	r19, r1
    1dd4:	41 f4       	brne	.+16     	; 0x1de6 <malloc+0xea>
    1dd6:	2d b7       	in	r18, 0x3d	; 61
    1dd8:	3e b7       	in	r19, 0x3e	; 62
    1dda:	40 91 04 02 	lds	r20, 0x0204	; 0x800204 <__malloc_margin>
    1dde:	50 91 05 02 	lds	r21, 0x0205	; 0x800205 <__malloc_margin+0x1>
    1de2:	24 1b       	sub	r18, r20
    1de4:	35 0b       	sbc	r19, r21
    1de6:	e0 91 2b 05 	lds	r30, 0x052B	; 0x80052b <__brkval>
    1dea:	f0 91 2c 05 	lds	r31, 0x052C	; 0x80052c <__brkval+0x1>
    1dee:	e2 17       	cp	r30, r18
    1df0:	f3 07       	cpc	r31, r19
    1df2:	a0 f4       	brcc	.+40     	; 0x1e1c <malloc+0x120>
    1df4:	2e 1b       	sub	r18, r30
    1df6:	3f 0b       	sbc	r19, r31
    1df8:	28 17       	cp	r18, r24
    1dfa:	39 07       	cpc	r19, r25
    1dfc:	78 f0       	brcs	.+30     	; 0x1e1c <malloc+0x120>
    1dfe:	ac 01       	movw	r20, r24
    1e00:	4e 5f       	subi	r20, 0xFE	; 254
    1e02:	5f 4f       	sbci	r21, 0xFF	; 255
    1e04:	24 17       	cp	r18, r20
    1e06:	35 07       	cpc	r19, r21
    1e08:	48 f0       	brcs	.+18     	; 0x1e1c <malloc+0x120>
    1e0a:	4e 0f       	add	r20, r30
    1e0c:	5f 1f       	adc	r21, r31
    1e0e:	50 93 2c 05 	sts	0x052C, r21	; 0x80052c <__brkval+0x1>
    1e12:	40 93 2b 05 	sts	0x052B, r20	; 0x80052b <__brkval>
    1e16:	81 93       	st	Z+, r24
    1e18:	91 93       	st	Z+, r25
    1e1a:	02 c0       	rjmp	.+4      	; 0x1e20 <malloc+0x124>
    1e1c:	e0 e0       	ldi	r30, 0x00	; 0
    1e1e:	f0 e0       	ldi	r31, 0x00	; 0
    1e20:	cf 01       	movw	r24, r30
    1e22:	df 91       	pop	r29
    1e24:	cf 91       	pop	r28
    1e26:	1f 91       	pop	r17
    1e28:	0f 91       	pop	r16
    1e2a:	08 95       	ret

00001e2c <free>:
    1e2c:	cf 93       	push	r28
    1e2e:	df 93       	push	r29
    1e30:	00 97       	sbiw	r24, 0x00	; 0
    1e32:	09 f4       	brne	.+2      	; 0x1e36 <free+0xa>
    1e34:	81 c0       	rjmp	.+258    	; 0x1f38 <free+0x10c>
    1e36:	fc 01       	movw	r30, r24
    1e38:	32 97       	sbiw	r30, 0x02	; 2
    1e3a:	13 82       	std	Z+3, r1	; 0x03
    1e3c:	12 82       	std	Z+2, r1	; 0x02
    1e3e:	a0 91 2d 05 	lds	r26, 0x052D	; 0x80052d <__flp>
    1e42:	b0 91 2e 05 	lds	r27, 0x052E	; 0x80052e <__flp+0x1>
    1e46:	10 97       	sbiw	r26, 0x00	; 0
    1e48:	81 f4       	brne	.+32     	; 0x1e6a <free+0x3e>
    1e4a:	20 81       	ld	r18, Z
    1e4c:	31 81       	ldd	r19, Z+1	; 0x01
    1e4e:	82 0f       	add	r24, r18
    1e50:	93 1f       	adc	r25, r19
    1e52:	20 91 2b 05 	lds	r18, 0x052B	; 0x80052b <__brkval>
    1e56:	30 91 2c 05 	lds	r19, 0x052C	; 0x80052c <__brkval+0x1>
    1e5a:	28 17       	cp	r18, r24
    1e5c:	39 07       	cpc	r19, r25
    1e5e:	51 f5       	brne	.+84     	; 0x1eb4 <free+0x88>
    1e60:	f0 93 2c 05 	sts	0x052C, r31	; 0x80052c <__brkval+0x1>
    1e64:	e0 93 2b 05 	sts	0x052B, r30	; 0x80052b <__brkval>
    1e68:	67 c0       	rjmp	.+206    	; 0x1f38 <free+0x10c>
    1e6a:	ed 01       	movw	r28, r26
    1e6c:	20 e0       	ldi	r18, 0x00	; 0
    1e6e:	30 e0       	ldi	r19, 0x00	; 0
    1e70:	ce 17       	cp	r28, r30
    1e72:	df 07       	cpc	r29, r31
    1e74:	40 f4       	brcc	.+16     	; 0x1e86 <free+0x5a>
    1e76:	4a 81       	ldd	r20, Y+2	; 0x02
    1e78:	5b 81       	ldd	r21, Y+3	; 0x03
    1e7a:	9e 01       	movw	r18, r28
    1e7c:	41 15       	cp	r20, r1
    1e7e:	51 05       	cpc	r21, r1
    1e80:	f1 f0       	breq	.+60     	; 0x1ebe <free+0x92>
    1e82:	ea 01       	movw	r28, r20
    1e84:	f5 cf       	rjmp	.-22     	; 0x1e70 <free+0x44>
    1e86:	d3 83       	std	Z+3, r29	; 0x03
    1e88:	c2 83       	std	Z+2, r28	; 0x02
    1e8a:	40 81       	ld	r20, Z
    1e8c:	51 81       	ldd	r21, Z+1	; 0x01
    1e8e:	84 0f       	add	r24, r20
    1e90:	95 1f       	adc	r25, r21
    1e92:	c8 17       	cp	r28, r24
    1e94:	d9 07       	cpc	r29, r25
    1e96:	59 f4       	brne	.+22     	; 0x1eae <free+0x82>
    1e98:	88 81       	ld	r24, Y
    1e9a:	99 81       	ldd	r25, Y+1	; 0x01
    1e9c:	84 0f       	add	r24, r20
    1e9e:	95 1f       	adc	r25, r21
    1ea0:	02 96       	adiw	r24, 0x02	; 2
    1ea2:	91 83       	std	Z+1, r25	; 0x01
    1ea4:	80 83       	st	Z, r24
    1ea6:	8a 81       	ldd	r24, Y+2	; 0x02
    1ea8:	9b 81       	ldd	r25, Y+3	; 0x03
    1eaa:	93 83       	std	Z+3, r25	; 0x03
    1eac:	82 83       	std	Z+2, r24	; 0x02
    1eae:	21 15       	cp	r18, r1
    1eb0:	31 05       	cpc	r19, r1
    1eb2:	29 f4       	brne	.+10     	; 0x1ebe <free+0x92>
    1eb4:	f0 93 2e 05 	sts	0x052E, r31	; 0x80052e <__flp+0x1>
    1eb8:	e0 93 2d 05 	sts	0x052D, r30	; 0x80052d <__flp>
    1ebc:	3d c0       	rjmp	.+122    	; 0x1f38 <free+0x10c>
    1ebe:	e9 01       	movw	r28, r18
    1ec0:	fb 83       	std	Y+3, r31	; 0x03
    1ec2:	ea 83       	std	Y+2, r30	; 0x02
    1ec4:	49 91       	ld	r20, Y+
    1ec6:	59 91       	ld	r21, Y+
    1ec8:	c4 0f       	add	r28, r20
    1eca:	d5 1f       	adc	r29, r21
    1ecc:	ec 17       	cp	r30, r28
    1ece:	fd 07       	cpc	r31, r29
    1ed0:	61 f4       	brne	.+24     	; 0x1eea <free+0xbe>
    1ed2:	80 81       	ld	r24, Z
    1ed4:	91 81       	ldd	r25, Z+1	; 0x01
    1ed6:	84 0f       	add	r24, r20
    1ed8:	95 1f       	adc	r25, r21
    1eda:	02 96       	adiw	r24, 0x02	; 2
    1edc:	e9 01       	movw	r28, r18
    1ede:	99 83       	std	Y+1, r25	; 0x01
    1ee0:	88 83       	st	Y, r24
    1ee2:	82 81       	ldd	r24, Z+2	; 0x02
    1ee4:	93 81       	ldd	r25, Z+3	; 0x03
    1ee6:	9b 83       	std	Y+3, r25	; 0x03
    1ee8:	8a 83       	std	Y+2, r24	; 0x02
    1eea:	e0 e0       	ldi	r30, 0x00	; 0
    1eec:	f0 e0       	ldi	r31, 0x00	; 0
    1eee:	12 96       	adiw	r26, 0x02	; 2
    1ef0:	8d 91       	ld	r24, X+
    1ef2:	9c 91       	ld	r25, X
    1ef4:	13 97       	sbiw	r26, 0x03	; 3
    1ef6:	00 97       	sbiw	r24, 0x00	; 0
    1ef8:	19 f0       	breq	.+6      	; 0x1f00 <free+0xd4>
    1efa:	fd 01       	movw	r30, r26
    1efc:	dc 01       	movw	r26, r24
    1efe:	f7 cf       	rjmp	.-18     	; 0x1eee <free+0xc2>
    1f00:	8d 91       	ld	r24, X+
    1f02:	9c 91       	ld	r25, X
    1f04:	11 97       	sbiw	r26, 0x01	; 1
    1f06:	9d 01       	movw	r18, r26
    1f08:	2e 5f       	subi	r18, 0xFE	; 254
    1f0a:	3f 4f       	sbci	r19, 0xFF	; 255
    1f0c:	82 0f       	add	r24, r18
    1f0e:	93 1f       	adc	r25, r19
    1f10:	20 91 2b 05 	lds	r18, 0x052B	; 0x80052b <__brkval>
    1f14:	30 91 2c 05 	lds	r19, 0x052C	; 0x80052c <__brkval+0x1>
    1f18:	28 17       	cp	r18, r24
    1f1a:	39 07       	cpc	r19, r25
    1f1c:	69 f4       	brne	.+26     	; 0x1f38 <free+0x10c>
    1f1e:	30 97       	sbiw	r30, 0x00	; 0
    1f20:	29 f4       	brne	.+10     	; 0x1f2c <free+0x100>
    1f22:	10 92 2e 05 	sts	0x052E, r1	; 0x80052e <__flp+0x1>
    1f26:	10 92 2d 05 	sts	0x052D, r1	; 0x80052d <__flp>
    1f2a:	02 c0       	rjmp	.+4      	; 0x1f30 <free+0x104>
    1f2c:	13 82       	std	Z+3, r1	; 0x03
    1f2e:	12 82       	std	Z+2, r1	; 0x02
    1f30:	b0 93 2c 05 	sts	0x052C, r27	; 0x80052c <__brkval+0x1>
    1f34:	a0 93 2b 05 	sts	0x052B, r26	; 0x80052b <__brkval>
    1f38:	df 91       	pop	r29
    1f3a:	cf 91       	pop	r28
    1f3c:	08 95       	ret

00001f3e <__do_global_dtors>:
    1f3e:	13 e0       	ldi	r17, 0x03	; 3
    1f40:	cb ed       	ldi	r28, 0xDB	; 219
    1f42:	d3 e0       	ldi	r29, 0x03	; 3
    1f44:	00 e0       	ldi	r16, 0x00	; 0
    1f46:	05 c0       	rjmp	.+10     	; 0x1f52 <__do_global_dtors+0x14>
    1f48:	80 2f       	mov	r24, r16
    1f4a:	fe 01       	movw	r30, r28
    1f4c:	b4 de       	rcall	.-664    	; 0x1cb6 <__tablejump2__>
    1f4e:	21 96       	adiw	r28, 0x01	; 1
    1f50:	01 1d       	adc	r16, r1
    1f52:	cc 3d       	cpi	r28, 0xDC	; 220
    1f54:	d1 07       	cpc	r29, r17
    1f56:	80 e0       	ldi	r24, 0x00	; 0
    1f58:	08 07       	cpc	r16, r24
    1f5a:	b1 f7       	brne	.-20     	; 0x1f48 <__do_global_dtors+0xa>
    1f5c:	f8 94       	cli

00001f5e <__stop_program>:
    1f5e:	ff cf       	rjmp	.-2      	; 0x1f5e <__stop_program>
