
arduino io.elf:     file format elf32-avr

Sections:
Idx Name          Size      VMA       LMA       File off  Algn
  0 .data         00000006  00800200  0000331c  000033b0  2**0
                  CONTENTS, ALLOC, LOAD, DATA
  1 .text         0000331c  00000000  00000000  00000094  2**1
                  CONTENTS, ALLOC, LOAD, READONLY, CODE
  2 .bss          00000329  00800206  00800206  000033b6  2**0
                  ALLOC
  3 .comment      00000030  00000000  00000000  000033b6  2**0
                  CONTENTS, READONLY
  4 .note.gnu.avr.deviceinfo 00000040  00000000  00000000  000033e8  2**2
                  CONTENTS, READONLY
  5 .debug_info   00000bbc  00000000  00000000  00003428  2**0
                  CONTENTS, READONLY, DEBUGGING
  6 .debug_abbrev 00000b1a  00000000  00000000  00003fe4  2**0
                  CONTENTS, READONLY, DEBUGGING
  7 .debug_line   000001f9  00000000  00000000  00004afe  2**0
                  CONTENTS, READONLY, DEBUGGING
  8 .debug_str    000003e6  00000000  00000000  00004cf7  2**0
                  CONTENTS, READONLY, DEBUGGING

Disassembly of section .text:

00000000 <__vectors>:
       0:	2e c4       	rjmp	.+2140   	; 0x85e <__dtors_end>
       2:	00 00       	nop
       4:	5d c4       	rjmp	.+2234   	; 0x8c0 <__bad_interrupt>
       6:	00 00       	nop
       8:	5b c4       	rjmp	.+2230   	; 0x8c0 <__bad_interrupt>
       a:	00 00       	nop
       c:	59 c4       	rjmp	.+2226   	; 0x8c0 <__bad_interrupt>
       e:	00 00       	nop
      10:	57 c4       	rjmp	.+2222   	; 0x8c0 <__bad_interrupt>
      12:	00 00       	nop
      14:	55 c4       	rjmp	.+2218   	; 0x8c0 <__bad_interrupt>
      16:	00 00       	nop
      18:	53 c4       	rjmp	.+2214   	; 0x8c0 <__bad_interrupt>
      1a:	00 00       	nop
      1c:	51 c4       	rjmp	.+2210   	; 0x8c0 <__bad_interrupt>
      1e:	00 00       	nop
      20:	4f c4       	rjmp	.+2206   	; 0x8c0 <__bad_interrupt>
      22:	00 00       	nop
      24:	4d c4       	rjmp	.+2202   	; 0x8c0 <__bad_interrupt>
      26:	00 00       	nop
      28:	4b c4       	rjmp	.+2198   	; 0x8c0 <__bad_interrupt>
      2a:	00 00       	nop
      2c:	49 c4       	rjmp	.+2194   	; 0x8c0 <__bad_interrupt>
      2e:	00 00       	nop
      30:	47 c4       	rjmp	.+2190   	; 0x8c0 <__bad_interrupt>
      32:	00 00       	nop
      34:	45 c4       	rjmp	.+2186   	; 0x8c0 <__bad_interrupt>
      36:	00 00       	nop
      38:	43 c4       	rjmp	.+2182   	; 0x8c0 <__bad_interrupt>
      3a:	00 00       	nop
      3c:	41 c4       	rjmp	.+2178   	; 0x8c0 <__bad_interrupt>
      3e:	00 00       	nop
      40:	3f c4       	rjmp	.+2174   	; 0x8c0 <__bad_interrupt>
      42:	00 00       	nop
      44:	3d c4       	rjmp	.+2170   	; 0x8c0 <__bad_interrupt>
      46:	00 00       	nop
      48:	0c 94 ee 08 	jmp	0x11dc	; 0x11dc <__vector_18>
      4c:	39 c4       	rjmp	.+2162   	; 0x8c0 <__bad_interrupt>
      4e:	00 00       	nop
      50:	37 c4       	rjmp	.+2158   	; 0x8c0 <__bad_interrupt>
      52:	00 00       	nop
      54:	35 c4       	rjmp	.+2154   	; 0x8c0 <__bad_interrupt>
      56:	00 00       	nop
      58:	33 c4       	rjmp	.+2150   	; 0x8c0 <__bad_interrupt>
      5a:	00 00       	nop
      5c:	31 c4       	rjmp	.+2146   	; 0x8c0 <__bad_interrupt>
      5e:	00 00       	nop
      60:	2f c4       	rjmp	.+2142   	; 0x8c0 <__bad_interrupt>
      62:	00 00       	nop
      64:	0c 94 49 17 	jmp	0x2e92	; 0x2e92 <__vector_25>
      68:	2b c4       	rjmp	.+2134   	; 0x8c0 <__bad_interrupt>
      6a:	00 00       	nop
      6c:	29 c4       	rjmp	.+2130   	; 0x8c0 <__bad_interrupt>
      6e:	00 00       	nop
      70:	27 c4       	rjmp	.+2126   	; 0x8c0 <__bad_interrupt>
      72:	00 00       	nop
      74:	0c 94 23 15 	jmp	0x2a46	; 0x2a46 <__vector_29>
      78:	23 c4       	rjmp	.+2118   	; 0x8c0 <__bad_interrupt>
      7a:	00 00       	nop
      7c:	21 c4       	rjmp	.+2114   	; 0x8c0 <__bad_interrupt>
      7e:	00 00       	nop
      80:	0c 94 de 14 	jmp	0x29bc	; 0x29bc <__vector_32>
      84:	1d c4       	rjmp	.+2106   	; 0x8c0 <__bad_interrupt>
      86:	00 00       	nop
      88:	1b c4       	rjmp	.+2102   	; 0x8c0 <__bad_interrupt>
      8a:	00 00       	nop
      8c:	19 c4       	rjmp	.+2098   	; 0x8c0 <__bad_interrupt>
      8e:	00 00       	nop
      90:	0c 94 95 17 	jmp	0x2f2a	; 0x2f2a <__vector_36>
      94:	15 c4       	rjmp	.+2090   	; 0x8c0 <__bad_interrupt>
      96:	00 00       	nop
      98:	13 c4       	rjmp	.+2086   	; 0x8c0 <__bad_interrupt>
      9a:	00 00       	nop
      9c:	11 c4       	rjmp	.+2082   	; 0x8c0 <__bad_interrupt>
      9e:	00 00       	nop
      a0:	0f c4       	rjmp	.+2078   	; 0x8c0 <__bad_interrupt>
      a2:	00 00       	nop
      a4:	0d c4       	rjmp	.+2074   	; 0x8c0 <__bad_interrupt>
      a6:	00 00       	nop
      a8:	0b c4       	rjmp	.+2070   	; 0x8c0 <__bad_interrupt>
      aa:	00 00       	nop
      ac:	09 c4       	rjmp	.+2066   	; 0x8c0 <__bad_interrupt>
      ae:	00 00       	nop
      b0:	07 c4       	rjmp	.+2062   	; 0x8c0 <__bad_interrupt>
      b2:	00 00       	nop
      b4:	05 c4       	rjmp	.+2058   	; 0x8c0 <__bad_interrupt>
      b6:	00 00       	nop
      b8:	03 c4       	rjmp	.+2054   	; 0x8c0 <__bad_interrupt>
      ba:	00 00       	nop
      bc:	01 c4       	rjmp	.+2050   	; 0x8c0 <__bad_interrupt>
      be:	00 00       	nop
      c0:	ff c3       	rjmp	.+2046   	; 0x8c0 <__bad_interrupt>
      c2:	00 00       	nop
      c4:	fd c3       	rjmp	.+2042   	; 0x8c0 <__bad_interrupt>
      c6:	00 00       	nop
      c8:	fb c3       	rjmp	.+2038   	; 0x8c0 <__bad_interrupt>
      ca:	00 00       	nop
      cc:	f9 c3       	rjmp	.+2034   	; 0x8c0 <__bad_interrupt>
      ce:	00 00       	nop
      d0:	f7 c3       	rjmp	.+2030   	; 0x8c0 <__bad_interrupt>
      d2:	00 00       	nop
      d4:	f5 c3       	rjmp	.+2026   	; 0x8c0 <__bad_interrupt>
      d6:	00 00       	nop
      d8:	f3 c3       	rjmp	.+2022   	; 0x8c0 <__bad_interrupt>
      da:	00 00       	nop
      dc:	f1 c3       	rjmp	.+2018   	; 0x8c0 <__bad_interrupt>
      de:	00 00       	nop
      e0:	ef c3       	rjmp	.+2014   	; 0x8c0 <__bad_interrupt>
      e2:	00 00       	nop
      e4:	0d 05       	cpc	r16, r13
      e6:	1a 05       	cpc	r17, r10
      e8:	27 05       	cpc	r18, r7
      ea:	34 05       	cpc	r19, r4
      ec:	41 05       	cpc	r20, r1
      ee:	4e 05       	cpc	r20, r14
      f0:	5b 05       	cpc	r21, r11
      f2:	68 05       	cpc	r22, r8
      f4:	7a 05       	cpc	r23, r10
      f6:	87 05       	cpc	r24, r7
      f8:	94 05       	cpc	r25, r4
      fa:	a1 05       	cpc	r26, r1
      fc:	ae 05       	cpc	r26, r14
      fe:	bb 05       	cpc	r27, r11
     100:	c8 05       	cpc	r28, r8
     102:	d5 05       	cpc	r29, r5

00000104 <__trampolines_end>:
     104:	ec ff       	.word	0xffec	; ????
     106:	ec ff       	.word	0xffec	; ????
     108:	ed ff       	.word	0xffed	; ????
     10a:	ed ff       	.word	0xffed	; ????
     10c:	ed ff       	.word	0xffed	; ????
     10e:	ed ff       	.word	0xffed	; ????
     110:	ee ff       	.word	0xffee	; ????
     112:	ee ff       	.word	0xffee	; ????
     114:	ee ff       	.word	0xffee	; ????
     116:	ee ff       	.word	0xffee	; ????
     118:	ef ff       	.word	0xffef	; ????
     11a:	ef ff       	.word	0xffef	; ????
     11c:	ef ff       	.word	0xffef	; ????
     11e:	ef ff       	.word	0xffef	; ????
     120:	f0 ff       	sbrs	r31, 0
     122:	f0 ff       	sbrs	r31, 0
     124:	f0 ff       	sbrs	r31, 0
     126:	f0 ff       	sbrs	r31, 0
     128:	f1 ff       	sbrs	r31, 1
     12a:	f1 ff       	sbrs	r31, 1
     12c:	f1 ff       	sbrs	r31, 1
     12e:	f1 ff       	sbrs	r31, 1
     130:	f2 ff       	sbrs	r31, 2
     132:	f2 ff       	sbrs	r31, 2
     134:	f2 ff       	sbrs	r31, 2
     136:	f2 ff       	sbrs	r31, 2
     138:	f3 ff       	sbrs	r31, 3
     13a:	f3 ff       	sbrs	r31, 3
     13c:	f3 ff       	sbrs	r31, 3
     13e:	f3 ff       	sbrs	r31, 3
     140:	f4 ff       	sbrs	r31, 4
     142:	f4 ff       	sbrs	r31, 4
     144:	f4 ff       	sbrs	r31, 4
     146:	f4 ff       	sbrs	r31, 4
     148:	f5 ff       	sbrs	r31, 5
     14a:	f5 ff       	sbrs	r31, 5
     14c:	f5 ff       	sbrs	r31, 5
     14e:	f5 ff       	sbrs	r31, 5
     150:	f6 ff       	sbrs	r31, 6
     152:	f6 ff       	sbrs	r31, 6
     154:	f6 ff       	sbrs	r31, 6
     156:	f6 ff       	sbrs	r31, 6
     158:	f7 ff       	sbrs	r31, 7
     15a:	f7 ff       	sbrs	r31, 7
     15c:	f7 ff       	sbrs	r31, 7
     15e:	f7 ff       	sbrs	r31, 7
     160:	f8 ff       	.word	0xfff8	; ????
     162:	f8 ff       	.word	0xfff8	; ????
     164:	f8 ff       	.word	0xfff8	; ????
     166:	f8 ff       	.word	0xfff8	; ????
     168:	f9 ff       	.word	0xfff9	; ????
     16a:	f9 ff       	.word	0xfff9	; ????
     16c:	f9 ff       	.word	0xfff9	; ????
     16e:	f9 ff       	.word	0xfff9	; ????
     170:	fa ff       	.word	0xfffa	; ????
     172:	fa ff       	.word	0xfffa	; ????
     174:	fa ff       	.word	0xfffa	; ????
     176:	fa ff       	.word	0xfffa	; ????
     178:	fb ff       	.word	0xfffb	; ????
     17a:	fb ff       	.word	0xfffb	; ????
     17c:	fb ff       	.word	0xfffb	; ????
     17e:	fb ff       	.word	0xfffb	; ????
     180:	fc ff       	.word	0xfffc	; ????
     182:	fc ff       	.word	0xfffc	; ????
     184:	fc ff       	.word	0xfffc	; ????
     186:	fc ff       	.word	0xfffc	; ????
     188:	fd ff       	.word	0xfffd	; ????
     18a:	fd ff       	.word	0xfffd	; ????
     18c:	fd ff       	.word	0xfffd	; ????
     18e:	fd ff       	.word	0xfffd	; ????
     190:	fe ff       	.word	0xfffe	; ????
     192:	fe ff       	.word	0xfffe	; ????
     194:	fe ff       	.word	0xfffe	; ????
     196:	fe ff       	.word	0xfffe	; ????
     198:	ff ff       	.word	0xffff	; ????
     19a:	ff ff       	.word	0xffff	; ????
     19c:	ff ff       	.word	0xffff	; ????
     19e:	ff ff       	.word	0xffff	; ????
	...
     1a8:	01 00       	.word	0x0001	; ????
     1aa:	01 00       	.word	0x0001	; ????
     1ac:	01 00       	.word	0x0001	; ????
     1ae:	01 00       	.word	0x0001	; ????
     1b0:	02 00       	.word	0x0002	; ????
     1b2:	02 00       	.word	0x0002	; ????
     1b4:	02 00       	.word	0x0002	; ????
     1b6:	02 00       	.word	0x0002	; ????
     1b8:	03 00       	.word	0x0003	; ????
     1ba:	03 00       	.word	0x0003	; ????
     1bc:	03 00       	.word	0x0003	; ????
     1be:	03 00       	.word	0x0003	; ????
     1c0:	04 00       	.word	0x0004	; ????
     1c2:	04 00       	.word	0x0004	; ????
     1c4:	04 00       	.word	0x0004	; ????
     1c6:	04 00       	.word	0x0004	; ????
     1c8:	05 00       	.word	0x0005	; ????
     1ca:	05 00       	.word	0x0005	; ????
     1cc:	05 00       	.word	0x0005	; ????
     1ce:	05 00       	.word	0x0005	; ????
     1d0:	06 00       	.word	0x0006	; ????
     1d2:	06 00       	.word	0x0006	; ????
     1d4:	06 00       	.word	0x0006	; ????
     1d6:	06 00       	.word	0x0006	; ????
     1d8:	07 00       	.word	0x0007	; ????
     1da:	07 00       	.word	0x0007	; ????
     1dc:	07 00       	.word	0x0007	; ????
     1de:	08 00       	.word	0x0008	; ????
     1e0:	08 00       	.word	0x0008	; ????
     1e2:	08 00       	.word	0x0008	; ????
     1e4:	08 00       	.word	0x0008	; ????
     1e6:	09 00       	.word	0x0009	; ????
     1e8:	09 00       	.word	0x0009	; ????
     1ea:	09 00       	.word	0x0009	; ????
     1ec:	09 00       	.word	0x0009	; ????
     1ee:	0a 00       	.word	0x000a	; ????
     1f0:	0a 00       	.word	0x000a	; ????
     1f2:	0a 00       	.word	0x000a	; ????
     1f4:	0a 00       	.word	0x000a	; ????
     1f6:	0b 00       	.word	0x000b	; ????
     1f8:	0b 00       	.word	0x000b	; ????
     1fa:	0b 00       	.word	0x000b	; ????
     1fc:	0b 00       	.word	0x000b	; ????
     1fe:	0c 00       	.word	0x000c	; ????
     200:	0c 00       	.word	0x000c	; ????
     202:	0c 00       	.word	0x000c	; ????
     204:	0c 00       	.word	0x000c	; ????
     206:	0d 00       	.word	0x000d	; ????
     208:	0d 00       	.word	0x000d	; ????
     20a:	0d 00       	.word	0x000d	; ????
     20c:	0d 00       	.word	0x000d	; ????
     20e:	0e 00       	.word	0x000e	; ????
     210:	0e 00       	.word	0x000e	; ????
     212:	0e 00       	.word	0x000e	; ????
     214:	0f 00       	.word	0x000f	; ????
     216:	0f 00       	.word	0x000f	; ????
     218:	0f 00       	.word	0x000f	; ????
     21a:	0f 00       	.word	0x000f	; ????
     21c:	10 00       	.word	0x0010	; ????
     21e:	10 00       	.word	0x0010	; ????
     220:	10 00       	.word	0x0010	; ????
     222:	10 00       	.word	0x0010	; ????
     224:	11 00       	.word	0x0011	; ????
     226:	11 00       	.word	0x0011	; ????
     228:	11 00       	.word	0x0011	; ????
     22a:	11 00       	.word	0x0011	; ????
     22c:	12 00       	.word	0x0012	; ????
     22e:	12 00       	.word	0x0012	; ????
     230:	12 00       	.word	0x0012	; ????
     232:	12 00       	.word	0x0012	; ????
     234:	13 00       	.word	0x0013	; ????
     236:	13 00       	.word	0x0013	; ????
     238:	13 00       	.word	0x0013	; ????
     23a:	14 00       	.word	0x0014	; ????
     23c:	14 00       	.word	0x0014	; ????
     23e:	14 00       	.word	0x0014	; ????
     240:	14 00       	.word	0x0014	; ????
     242:	15 00       	.word	0x0015	; ????
     244:	15 00       	.word	0x0015	; ????
     246:	15 00       	.word	0x0015	; ????
     248:	15 00       	.word	0x0015	; ????
     24a:	16 00       	.word	0x0016	; ????
     24c:	16 00       	.word	0x0016	; ????
     24e:	16 00       	.word	0x0016	; ????
     250:	16 00       	.word	0x0016	; ????
     252:	17 00       	.word	0x0017	; ????
     254:	17 00       	.word	0x0017	; ????
     256:	17 00       	.word	0x0017	; ????
     258:	18 00       	.word	0x0018	; ????
     25a:	18 00       	.word	0x0018	; ????
     25c:	18 00       	.word	0x0018	; ????
     25e:	18 00       	.word	0x0018	; ????
     260:	19 00       	.word	0x0019	; ????
     262:	19 00       	.word	0x0019	; ????
     264:	19 00       	.word	0x0019	; ????
     266:	19 00       	.word	0x0019	; ????
     268:	1a 00       	.word	0x001a	; ????
     26a:	1a 00       	.word	0x001a	; ????
     26c:	1a 00       	.word	0x001a	; ????
     26e:	1a 00       	.word	0x001a	; ????
     270:	1b 00       	.word	0x001b	; ????
     272:	1b 00       	.word	0x001b	; ????
     274:	1b 00       	.word	0x001b	; ????
     276:	1c 00       	.word	0x001c	; ????
     278:	1c 00       	.word	0x001c	; ????
     27a:	1c 00       	.word	0x001c	; ????
     27c:	1c 00       	.word	0x001c	; ????
     27e:	1d 00       	.word	0x001d	; ????
     280:	1d 00       	.word	0x001d	; ????
     282:	1d 00       	.word	0x001d	; ????
     284:	1d 00       	.word	0x001d	; ????
     286:	1e 00       	.word	0x001e	; ????
     288:	1e 00       	.word	0x001e	; ????
     28a:	1e 00       	.word	0x001e	; ????
     28c:	1e 00       	.word	0x001e	; ????
     28e:	1f 00       	.word	0x001f	; ????
     290:	1f 00       	.word	0x001f	; ????
     292:	1f 00       	.word	0x001f	; ????
     294:	20 00       	.word	0x0020	; ????
     296:	20 00       	.word	0x0020	; ????
     298:	20 00       	.word	0x0020	; ????
     29a:	20 00       	.word	0x0020	; ????
     29c:	21 00       	.word	0x0021	; ????
     29e:	21 00       	.word	0x0021	; ????
     2a0:	21 00       	.word	0x0021	; ????
     2a2:	21 00       	.word	0x0021	; ????
     2a4:	22 00       	.word	0x0022	; ????
     2a6:	22 00       	.word	0x0022	; ????
     2a8:	22 00       	.word	0x0022	; ????
     2aa:	23 00       	.word	0x0023	; ????
     2ac:	23 00       	.word	0x0023	; ????
     2ae:	23 00       	.word	0x0023	; ????
     2b0:	23 00       	.word	0x0023	; ????
     2b2:	24 00       	.word	0x0024	; ????
     2b4:	24 00       	.word	0x0024	; ????
     2b6:	24 00       	.word	0x0024	; ????
     2b8:	24 00       	.word	0x0024	; ????
     2ba:	25 00       	.word	0x0025	; ????
     2bc:	25 00       	.word	0x0025	; ????
     2be:	25 00       	.word	0x0025	; ????
     2c0:	26 00       	.word	0x0026	; ????
     2c2:	26 00       	.word	0x0026	; ????
     2c4:	26 00       	.word	0x0026	; ????
     2c6:	26 00       	.word	0x0026	; ????
     2c8:	27 00       	.word	0x0027	; ????
     2ca:	27 00       	.word	0x0027	; ????
     2cc:	27 00       	.word	0x0027	; ????
     2ce:	27 00       	.word	0x0027	; ????
     2d0:	28 00       	.word	0x0028	; ????
     2d2:	28 00       	.word	0x0028	; ????
     2d4:	28 00       	.word	0x0028	; ????
     2d6:	29 00       	.word	0x0029	; ????
     2d8:	29 00       	.word	0x0029	; ????
     2da:	29 00       	.word	0x0029	; ????
     2dc:	29 00       	.word	0x0029	; ????
     2de:	2a 00       	.word	0x002a	; ????
     2e0:	2a 00       	.word	0x002a	; ????
     2e2:	2a 00       	.word	0x002a	; ????
     2e4:	2a 00       	.word	0x002a	; ????
     2e6:	2b 00       	.word	0x002b	; ????
     2e8:	2b 00       	.word	0x002b	; ????
     2ea:	2b 00       	.word	0x002b	; ????
     2ec:	2c 00       	.word	0x002c	; ????
     2ee:	2c 00       	.word	0x002c	; ????
     2f0:	2c 00       	.word	0x002c	; ????
     2f2:	2c 00       	.word	0x002c	; ????
     2f4:	2d 00       	.word	0x002d	; ????
     2f6:	2d 00       	.word	0x002d	; ????
     2f8:	2d 00       	.word	0x002d	; ????
     2fa:	2e 00       	.word	0x002e	; ????
     2fc:	2e 00       	.word	0x002e	; ????
     2fe:	2e 00       	.word	0x002e	; ????
     300:	2e 00       	.word	0x002e	; ????
     302:	2f 00       	.word	0x002f	; ????
     304:	2f 00       	.word	0x002f	; ????
     306:	2f 00       	.word	0x002f	; ????
     308:	2f 00       	.word	0x002f	; ????
     30a:	30 00       	.word	0x0030	; ????
     30c:	30 00       	.word	0x0030	; ????
     30e:	30 00       	.word	0x0030	; ????
     310:	31 00       	.word	0x0031	; ????
     312:	31 00       	.word	0x0031	; ????
     314:	31 00       	.word	0x0031	; ????
     316:	31 00       	.word	0x0031	; ????
     318:	32 00       	.word	0x0032	; ????
     31a:	32 00       	.word	0x0032	; ????
     31c:	32 00       	.word	0x0032	; ????
     31e:	33 00       	.word	0x0033	; ????
     320:	33 00       	.word	0x0033	; ????
     322:	33 00       	.word	0x0033	; ????
     324:	33 00       	.word	0x0033	; ????
     326:	34 00       	.word	0x0034	; ????
     328:	34 00       	.word	0x0034	; ????
     32a:	34 00       	.word	0x0034	; ????
     32c:	34 00       	.word	0x0034	; ????
     32e:	35 00       	.word	0x0035	; ????
     330:	35 00       	.word	0x0035	; ????
     332:	35 00       	.word	0x0035	; ????
     334:	36 00       	.word	0x0036	; ????
     336:	36 00       	.word	0x0036	; ????
     338:	36 00       	.word	0x0036	; ????
     33a:	36 00       	.word	0x0036	; ????
     33c:	37 00       	.word	0x0037	; ????
     33e:	37 00       	.word	0x0037	; ????
     340:	37 00       	.word	0x0037	; ????
     342:	38 00       	.word	0x0038	; ????
     344:	38 00       	.word	0x0038	; ????
     346:	38 00       	.word	0x0038	; ????
     348:	38 00       	.word	0x0038	; ????
     34a:	39 00       	.word	0x0039	; ????
     34c:	39 00       	.word	0x0039	; ????
     34e:	39 00       	.word	0x0039	; ????
     350:	3a 00       	.word	0x003a	; ????
     352:	3a 00       	.word	0x003a	; ????
     354:	3a 00       	.word	0x003a	; ????
     356:	3a 00       	.word	0x003a	; ????
     358:	3b 00       	.word	0x003b	; ????
     35a:	3b 00       	.word	0x003b	; ????
     35c:	3b 00       	.word	0x003b	; ????
     35e:	3c 00       	.word	0x003c	; ????
     360:	3c 00       	.word	0x003c	; ????
     362:	3c 00       	.word	0x003c	; ????
     364:	3c 00       	.word	0x003c	; ????
     366:	3d 00       	.word	0x003d	; ????
     368:	3d 00       	.word	0x003d	; ????
     36a:	3d 00       	.word	0x003d	; ????
     36c:	3d 00       	.word	0x003d	; ????
     36e:	3e 00       	.word	0x003e	; ????
     370:	3e 00       	.word	0x003e	; ????
     372:	3e 00       	.word	0x003e	; ????
     374:	3f 00       	.word	0x003f	; ????
     376:	3f 00       	.word	0x003f	; ????
     378:	3f 00       	.word	0x003f	; ????
     37a:	3f 00       	.word	0x003f	; ????
     37c:	40 00       	.word	0x0040	; ????
     37e:	40 00       	.word	0x0040	; ????
     380:	40 00       	.word	0x0040	; ????
     382:	41 00       	.word	0x0041	; ????
     384:	41 00       	.word	0x0041	; ????
     386:	41 00       	.word	0x0041	; ????
     388:	41 00       	.word	0x0041	; ????
     38a:	42 00       	.word	0x0042	; ????
     38c:	42 00       	.word	0x0042	; ????
     38e:	42 00       	.word	0x0042	; ????
     390:	43 00       	.word	0x0043	; ????
     392:	43 00       	.word	0x0043	; ????
     394:	43 00       	.word	0x0043	; ????
     396:	43 00       	.word	0x0043	; ????
     398:	44 00       	.word	0x0044	; ????
     39a:	44 00       	.word	0x0044	; ????
     39c:	44 00       	.word	0x0044	; ????
     39e:	45 00       	.word	0x0045	; ????
     3a0:	45 00       	.word	0x0045	; ????
     3a2:	45 00       	.word	0x0045	; ????
     3a4:	45 00       	.word	0x0045	; ????
     3a6:	46 00       	.word	0x0046	; ????
     3a8:	46 00       	.word	0x0046	; ????
     3aa:	46 00       	.word	0x0046	; ????
     3ac:	47 00       	.word	0x0047	; ????
     3ae:	47 00       	.word	0x0047	; ????
     3b0:	47 00       	.word	0x0047	; ????
     3b2:	48 00       	.word	0x0048	; ????
     3b4:	48 00       	.word	0x0048	; ????
     3b6:	48 00       	.word	0x0048	; ????
     3b8:	48 00       	.word	0x0048	; ????
     3ba:	49 00       	.word	0x0049	; ????
     3bc:	49 00       	.word	0x0049	; ????
     3be:	49 00       	.word	0x0049	; ????
     3c0:	4a 00       	.word	0x004a	; ????
     3c2:	4a 00       	.word	0x004a	; ????
     3c4:	4a 00       	.word	0x004a	; ????
     3c6:	4a 00       	.word	0x004a	; ????
     3c8:	4b 00       	.word	0x004b	; ????
     3ca:	4b 00       	.word	0x004b	; ????
     3cc:	4b 00       	.word	0x004b	; ????
     3ce:	4c 00       	.word	0x004c	; ????
     3d0:	4c 00       	.word	0x004c	; ????
     3d2:	4c 00       	.word	0x004c	; ????
     3d4:	4c 00       	.word	0x004c	; ????
     3d6:	4d 00       	.word	0x004d	; ????
     3d8:	4d 00       	.word	0x004d	; ????
     3da:	4d 00       	.word	0x004d	; ????
     3dc:	4e 00       	.word	0x004e	; ????
     3de:	4e 00       	.word	0x004e	; ????
     3e0:	4e 00       	.word	0x004e	; ????
     3e2:	4e 00       	.word	0x004e	; ????
     3e4:	4f 00       	.word	0x004f	; ????
     3e6:	4f 00       	.word	0x004f	; ????
     3e8:	4f 00       	.word	0x004f	; ????
     3ea:	50 00       	.word	0x0050	; ????
     3ec:	50 00       	.word	0x0050	; ????
     3ee:	50 00       	.word	0x0050	; ????
     3f0:	51 00       	.word	0x0051	; ????
     3f2:	51 00       	.word	0x0051	; ????
     3f4:	51 00       	.word	0x0051	; ????
     3f6:	51 00       	.word	0x0051	; ????
     3f8:	52 00       	.word	0x0052	; ????
     3fa:	52 00       	.word	0x0052	; ????
     3fc:	52 00       	.word	0x0052	; ????
     3fe:	53 00       	.word	0x0053	; ????
     400:	53 00       	.word	0x0053	; ????
     402:	53 00       	.word	0x0053	; ????
     404:	53 00       	.word	0x0053	; ????
     406:	54 00       	.word	0x0054	; ????
     408:	54 00       	.word	0x0054	; ????
     40a:	54 00       	.word	0x0054	; ????
     40c:	55 00       	.word	0x0055	; ????
     40e:	55 00       	.word	0x0055	; ????
     410:	55 00       	.word	0x0055	; ????
     412:	56 00       	.word	0x0056	; ????
     414:	56 00       	.word	0x0056	; ????
     416:	56 00       	.word	0x0056	; ????
     418:	56 00       	.word	0x0056	; ????
     41a:	57 00       	.word	0x0057	; ????
     41c:	57 00       	.word	0x0057	; ????
     41e:	57 00       	.word	0x0057	; ????
     420:	58 00       	.word	0x0058	; ????
     422:	58 00       	.word	0x0058	; ????
     424:	58 00       	.word	0x0058	; ????
     426:	58 00       	.word	0x0058	; ????
     428:	59 00       	.word	0x0059	; ????
     42a:	59 00       	.word	0x0059	; ????
     42c:	59 00       	.word	0x0059	; ????
     42e:	5a 00       	.word	0x005a	; ????
     430:	5a 00       	.word	0x005a	; ????
     432:	5a 00       	.word	0x005a	; ????
     434:	5b 00       	.word	0x005b	; ????
     436:	5b 00       	.word	0x005b	; ????
     438:	5b 00       	.word	0x005b	; ????
     43a:	5b 00       	.word	0x005b	; ????
     43c:	5c 00       	.word	0x005c	; ????
     43e:	5c 00       	.word	0x005c	; ????
     440:	5c 00       	.word	0x005c	; ????
     442:	5d 00       	.word	0x005d	; ????
     444:	5d 00       	.word	0x005d	; ????
     446:	5d 00       	.word	0x005d	; ????
     448:	5e 00       	.word	0x005e	; ????
     44a:	5e 00       	.word	0x005e	; ????
     44c:	5e 00       	.word	0x005e	; ????
     44e:	5e 00       	.word	0x005e	; ????
     450:	5f 00       	.word	0x005f	; ????
     452:	5f 00       	.word	0x005f	; ????
     454:	5f 00       	.word	0x005f	; ????
     456:	60 00       	.word	0x0060	; ????
     458:	60 00       	.word	0x0060	; ????
     45a:	60 00       	.word	0x0060	; ????
     45c:	61 00       	.word	0x0061	; ????
     45e:	61 00       	.word	0x0061	; ????
     460:	61 00       	.word	0x0061	; ????
     462:	61 00       	.word	0x0061	; ????
     464:	62 00       	.word	0x0062	; ????
     466:	62 00       	.word	0x0062	; ????
     468:	62 00       	.word	0x0062	; ????
     46a:	63 00       	.word	0x0063	; ????
     46c:	63 00       	.word	0x0063	; ????
     46e:	63 00       	.word	0x0063	; ????
     470:	64 00       	.word	0x0064	; ????
     472:	64 00       	.word	0x0064	; ????
     474:	64 00       	.word	0x0064	; ????
     476:	64 00       	.word	0x0064	; ????
     478:	65 00       	.word	0x0065	; ????
     47a:	65 00       	.word	0x0065	; ????
     47c:	65 00       	.word	0x0065	; ????
     47e:	66 00       	.word	0x0066	; ????
     480:	66 00       	.word	0x0066	; ????
     482:	66 00       	.word	0x0066	; ????
     484:	67 00       	.word	0x0067	; ????
     486:	67 00       	.word	0x0067	; ????
     488:	67 00       	.word	0x0067	; ????
     48a:	67 00       	.word	0x0067	; ????
     48c:	68 00       	.word	0x0068	; ????
     48e:	68 00       	.word	0x0068	; ????
     490:	68 00       	.word	0x0068	; ????
     492:	69 00       	.word	0x0069	; ????
     494:	69 00       	.word	0x0069	; ????
     496:	69 00       	.word	0x0069	; ????
     498:	6a 00       	.word	0x006a	; ????
     49a:	6a 00       	.word	0x006a	; ????
     49c:	6a 00       	.word	0x006a	; ????
     49e:	6a 00       	.word	0x006a	; ????
     4a0:	6b 00       	.word	0x006b	; ????
     4a2:	6b 00       	.word	0x006b	; ????
     4a4:	6b 00       	.word	0x006b	; ????
     4a6:	6c 00       	.word	0x006c	; ????
     4a8:	6c 00       	.word	0x006c	; ????
     4aa:	6c 00       	.word	0x006c	; ????
     4ac:	6d 00       	.word	0x006d	; ????
     4ae:	6d 00       	.word	0x006d	; ????
     4b0:	6d 00       	.word	0x006d	; ????
     4b2:	6e 00       	.word	0x006e	; ????
     4b4:	6e 00       	.word	0x006e	; ????
     4b6:	6e 00       	.word	0x006e	; ????
     4b8:	6e 00       	.word	0x006e	; ????
     4ba:	6f 00       	.word	0x006f	; ????
     4bc:	6f 00       	.word	0x006f	; ????
     4be:	6f 00       	.word	0x006f	; ????
     4c0:	70 00       	.word	0x0070	; ????
     4c2:	70 00       	.word	0x0070	; ????
     4c4:	70 00       	.word	0x0070	; ????
     4c6:	71 00       	.word	0x0071	; ????
     4c8:	71 00       	.word	0x0071	; ????
     4ca:	71 00       	.word	0x0071	; ????
     4cc:	71 00       	.word	0x0071	; ????
     4ce:	72 00       	.word	0x0072	; ????
     4d0:	72 00       	.word	0x0072	; ????
     4d2:	72 00       	.word	0x0072	; ????
     4d4:	73 00       	.word	0x0073	; ????
     4d6:	73 00       	.word	0x0073	; ????
     4d8:	73 00       	.word	0x0073	; ????
     4da:	74 00       	.word	0x0074	; ????
     4dc:	74 00       	.word	0x0074	; ????
     4de:	74 00       	.word	0x0074	; ????
     4e0:	75 00       	.word	0x0075	; ????
     4e2:	75 00       	.word	0x0075	; ????
     4e4:	75 00       	.word	0x0075	; ????
     4e6:	75 00       	.word	0x0075	; ????
     4e8:	76 00       	.word	0x0076	; ????
     4ea:	76 00       	.word	0x0076	; ????
     4ec:	76 00       	.word	0x0076	; ????
     4ee:	77 00       	.word	0x0077	; ????
     4f0:	77 00       	.word	0x0077	; ????
     4f2:	77 00       	.word	0x0077	; ????
     4f4:	78 00       	.word	0x0078	; ????
     4f6:	78 00       	.word	0x0078	; ????
     4f8:	78 00       	.word	0x0078	; ????

000004fa <_ZL7_pt1000>:
     4fa:	ea ff ea ff ea ff eb ff eb ff eb ff ec ff ec ff     ................
     50a:	ec ff ed ff ed ff ed ff ee ff ee ff ee ff ef ff     ................
     51a:	ef ff ef ff f0 ff f0 ff f0 ff f1 ff f1 ff f1 ff     ................
     52a:	f2 ff f2 ff f2 ff f3 ff f3 ff f4 ff f4 ff f4 ff     ................
     53a:	f5 ff f5 ff f5 ff f6 ff f6 ff f6 ff f7 ff f7 ff     ................
     54a:	f7 ff f8 ff f8 ff f8 ff f9 ff f9 ff f9 ff fa ff     ................
     55a:	fa ff fb ff fb ff fb ff fc ff fc ff fc ff fd ff     ................
     56a:	fd ff fd ff fe ff fe ff ff ff ff ff ff ff 00 00     ................
     57a:	00 00 00 00 01 00 01 00 01 00 02 00 02 00 03 00     ................
     58a:	03 00 03 00 04 00 04 00 04 00 05 00 05 00 05 00     ................
     59a:	06 00 06 00 07 00 07 00 07 00 08 00 08 00 08 00     ................
     5aa:	09 00 09 00 0a 00 0a 00 0a 00 0b 00 0b 00 0b 00     ................
     5ba:	0c 00 0c 00 0d 00 0d 00 0d 00 0e 00 0e 00 0f 00     ................
     5ca:	0f 00 0f 00 10 00 10 00 10 00 11 00 11 00 12 00     ................
     5da:	12 00 12 00 13 00 13 00 14 00 14 00 14 00 15 00     ................
     5ea:	15 00 15 00 16 00 16 00 17 00 17 00 17 00 18 00     ................
     5fa:	18 00 19 00 19 00 19 00 1a 00 1a 00 1b 00 1b 00     ................
     60a:	1b 00 1c 00 1c 00 1d 00 1d 00 1d 00 1e 00 1e 00     ................
     61a:	1f 00 1f 00 1f 00 20 00 20 00 21 00 21 00 22 00     ...... . .!.!.".
     62a:	22 00 22 00 23 00 23 00 24 00 24 00 24 00 25 00     ".".#.#.$.$.$.%.
     63a:	25 00 26 00 26 00 26 00 27 00 27 00 28 00 28 00     %.&.&.&.'.'.(.(.
     64a:	29 00 29 00 29 00 2a 00 2a 00 2b 00 2b 00 2b 00     ).).).*.*.+.+.+.
     65a:	2c 00 2c 00 2d 00 2d 00 2e 00 2e 00 2e 00 2f 00     ,.,.-.-......./.
     66a:	2f 00 30 00 30 00 31 00 31 00 31 00 32 00 32 00     /.0.0.1.1.1.2.2.
     67a:	33 00 33 00 34 00 34 00 34 00 35 00 35 00 36 00     3.3.4.4.4.5.5.6.
     68a:	36 00 37 00 37 00 38 00 38 00 38 00 39 00 39 00     6.7.7.8.8.8.9.9.
     69a:	3a 00 3a 00 3b 00 3b 00 3c 00 3c 00 3c 00 3d 00     :.:.;.;.<.<.<.=.
     6aa:	3d 00 3e 00 3e 00 3f 00 3f 00 40 00 40 00 40 00     =.>.>.?.?.@.@.@.
     6ba:	41 00 41 00 42 00 42 00 43 00 43 00 44 00 44 00     A.A.B.B.C.C.D.D.
     6ca:	45 00 45 00 46 00 46 00 46 00 47 00 47 00 48 00     E.E.F.F.F.G.G.H.
     6da:	48 00 49 00 49 00 4a 00 4a 00 4b 00 4b 00 4c 00     H.I.I.J.J.K.K.L.
     6ea:	4c 00 4c 00 4d 00 4d 00 4e 00 4e 00 4f 00 4f 00     L.L.M.M.N.N.O.O.
     6fa:	50 00 50 00 51 00 51 00 52 00 52 00 53 00 53 00     P.P.Q.Q.R.R.S.S.
     70a:	54 00 54 00 55 00 55 00 56 00 56 00 57 00 57 00     T.T.U.U.V.V.W.W.
     71a:	57 00 58 00 58 00 59 00 59 00 5a 00 5a 00 5b 00     W.X.X.Y.Y.Z.Z.[.
     72a:	5b 00 5c 00 5c 00 5d 00 5d 00 5e 00 5e 00 5f 00     [.\.\.].].^.^._.
     73a:	5f 00 60 00 60 00 61 00 61 00 62 00 62 00 63 00     _.`.`.a.a.b.b.c.
     74a:	63 00 64 00 64 00 65 00 65 00 66 00 66 00 67 00     c.d.d.e.e.f.f.g.
     75a:	67 00 68 00 68 00 69 00 69 00 6a 00 6b 00 6b 00     g.h.h.i.i.j.k.k.
     76a:	6c 00 6c 00 6d 00 6d 00 6e 00 6e 00 6f 00 6f 00     l.l.m.m.n.n.o.o.
     77a:	70 00 70 00 71 00 71 00 72 00 72 00 73 00 73 00     p.p.q.q.r.r.s.s.
     78a:	74 00 74 00 75 00 76 00 76 00 77 00 77 00 78 00     t.t.u.v.v.w.w.x.
     79a:	78 00 79 00 79 00 7a 00 7a 00 7b 00 7b 00 7c 00     x.y.y.z.z.{.{.|.
     7aa:	7d 00 7d 00 7e 00 7e 00 7f 00 7f 00 80 00 80 00     }.}.~.~.........
     7ba:	81 00 81 00 82 00 83 00 83 00 84 00 84 00 85 00     ................
     7ca:	85 00 86 00 86 00 87 00 88 00 88 00 89 00 89 00     ................
     7da:	8a 00 8a 00 8b 00 8c 00 8c 00 8d 00 8d 00 8e 00     ................
     7ea:	8e 00 8f 00 90 00 90 00 91 00 91 00 92 00 92 00     ................
     7fa:	93 00 94 00 94 00 95 00 95 00 96 00 97 00 97 00     ................
     80a:	98 00 98 00 99 00 99 00 9a 00 9b 00 9b 00 9c 00     ................
     81a:	9c 00 9d 00 9e 00 9e 00 9f 00 9f 00 a0 00 a1 00     ................
     82a:	a1 00 a2 00 a2 00 a3 00 a4 00 a4 00 a5 00 a5 00     ................
     83a:	a6 00 a7 00 a7 00 a8 00 a9 00 a9 00 aa 00 aa 00     ................
     84a:	ab 00 ac 00 ac 00 ad 00 ae 00 ae 00 af 00           ..............

00000858 <__ctors_start>:
     858:	c6 15       	cp	r28, r6
     85a:	14 18       	sub	r1, r4

0000085c <__ctors_end>:
     85c:	d2 15       	cp	r29, r2

0000085e <__dtors_end>:
     85e:	11 24       	eor	r1, r1
     860:	1f be       	out	0x3f, r1	; 63
     862:	cf ef       	ldi	r28, 0xFF	; 255
     864:	d1 e2       	ldi	r29, 0x21	; 33
     866:	de bf       	out	0x3e, r29	; 62
     868:	cd bf       	out	0x3d, r28	; 61
     86a:	00 e0       	ldi	r16, 0x00	; 0
     86c:	0c bf       	out	0x3c, r16	; 60

0000086e <__do_copy_data>:
     86e:	12 e0       	ldi	r17, 0x02	; 2
     870:	a0 e0       	ldi	r26, 0x00	; 0
     872:	b2 e0       	ldi	r27, 0x02	; 2
     874:	ec e1       	ldi	r30, 0x1C	; 28
     876:	f3 e3       	ldi	r31, 0x33	; 51
     878:	00 e0       	ldi	r16, 0x00	; 0
     87a:	0b bf       	out	0x3b, r16	; 59
     87c:	02 c0       	rjmp	.+4      	; 0x882 <__do_copy_data+0x14>
     87e:	07 90       	elpm	r0, Z+
     880:	0d 92       	st	X+, r0
     882:	a6 30       	cpi	r26, 0x06	; 6
     884:	b1 07       	cpc	r27, r17
     886:	d9 f7       	brne	.-10     	; 0x87e <__do_copy_data+0x10>

00000888 <__do_clear_bss>:
     888:	25 e0       	ldi	r18, 0x05	; 5
     88a:	a6 e0       	ldi	r26, 0x06	; 6
     88c:	b2 e0       	ldi	r27, 0x02	; 2
     88e:	01 c0       	rjmp	.+2      	; 0x892 <.do_clear_bss_start>

00000890 <.do_clear_bss_loop>:
     890:	1d 92       	st	X+, r1

00000892 <.do_clear_bss_start>:
     892:	af 32       	cpi	r26, 0x2F	; 47
     894:	b2 07       	cpc	r27, r18
     896:	e1 f7       	brne	.-8      	; 0x890 <.do_clear_bss_loop>

00000898 <__do_global_ctors>:
     898:	14 e0       	ldi	r17, 0x04	; 4
     89a:	ce e2       	ldi	r28, 0x2E	; 46
     89c:	d4 e0       	ldi	r29, 0x04	; 4
     89e:	00 e0       	ldi	r16, 0x00	; 0
     8a0:	06 c0       	rjmp	.+12     	; 0x8ae <__do_global_ctors+0x16>
     8a2:	21 97       	sbiw	r28, 0x01	; 1
     8a4:	01 09       	sbc	r16, r1
     8a6:	80 2f       	mov	r24, r16
     8a8:	fe 01       	movw	r30, r28
     8aa:	0e 94 2f 18 	call	0x305e	; 0x305e <__tablejump2__>
     8ae:	cc 32       	cpi	r28, 0x2C	; 44
     8b0:	d1 07       	cpc	r29, r17
     8b2:	80 e0       	ldi	r24, 0x00	; 0
     8b4:	08 07       	cpc	r16, r24
     8b6:	a9 f7       	brne	.-22     	; 0x8a2 <__do_global_ctors+0xa>
     8b8:	0e 94 cb 11 	call	0x2396	; 0x2396 <main>
     8bc:	0c 94 7d 19 	jmp	0x32fa	; 0x32fa <__do_global_dtors>

000008c0 <__bad_interrupt>:
     8c0:	9f cb       	rjmp	.-2242   	; 0x0 <__vectors>

000008c2 <_ZN22AnalogDigitalConverterC1Ev>:
     8c2:	ef 92       	push	r14
     8c4:	ff 92       	push	r15
     8c6:	0f 93       	push	r16
     8c8:	1f 93       	push	r17
     8ca:	cf 93       	push	r28
     8cc:	df 93       	push	r29
     8ce:	00 d0       	rcall	.+0      	; 0x8d0 <_ZN22AnalogDigitalConverterC1Ev+0xe>
     8d0:	cd b7       	in	r28, 0x3d	; 61
     8d2:	de b7       	in	r29, 0x3e	; 62
     8d4:	9b 83       	std	Y+3, r25	; 0x03
     8d6:	8a 83       	std	Y+2, r24	; 0x02
     8d8:	8a 81       	ldd	r24, Y+2	; 0x02
     8da:	9b 81       	ldd	r25, Y+3	; 0x03
     8dc:	0f e0       	ldi	r16, 0x0F	; 15
     8de:	10 e0       	ldi	r17, 0x00	; 0
     8e0:	7c 01       	movw	r14, r24
     8e2:	08 c0       	rjmp	.+16     	; 0x8f4 <_ZN22AnalogDigitalConverterC1Ev+0x32>
     8e4:	c7 01       	movw	r24, r14
     8e6:	0e 94 85 16 	call	0x2d0a	; 0x2d0a <_ZN10iirlowpassC1Ev>
     8ea:	88 e1       	ldi	r24, 0x18	; 24
     8ec:	e8 0e       	add	r14, r24
     8ee:	f1 1c       	adc	r15, r1
     8f0:	01 50       	subi	r16, 0x01	; 1
     8f2:	11 09       	sbc	r17, r1
     8f4:	0f 3f       	cpi	r16, 0xFF	; 255
     8f6:	ef ef       	ldi	r30, 0xFF	; 255
     8f8:	1e 07       	cpc	r17, r30
     8fa:	a1 f7       	brne	.-24     	; 0x8e4 <_ZN22AnalogDigitalConverterC1Ev+0x22>
     8fc:	19 82       	std	Y+1, r1	; 0x01
     8fe:	27 c0       	rjmp	.+78     	; 0x94e <_ZN22AnalogDigitalConverterC1Ev+0x8c>
     900:	89 81       	ldd	r24, Y+1	; 0x01
     902:	88 2f       	mov	r24, r24
     904:	90 e0       	ldi	r25, 0x00	; 0
     906:	2a 81       	ldd	r18, Y+2	; 0x02
     908:	3b 81       	ldd	r19, Y+3	; 0x03
     90a:	82 0f       	add	r24, r18
     90c:	93 1f       	adc	r25, r19
     90e:	80 57       	subi	r24, 0x70	; 112
     910:	9e 4f       	sbci	r25, 0xFE	; 254
     912:	21 e0       	ldi	r18, 0x01	; 1
     914:	fc 01       	movw	r30, r24
     916:	20 83       	st	Z, r18
     918:	89 81       	ldd	r24, Y+1	; 0x01
     91a:	88 2f       	mov	r24, r24
     91c:	90 e0       	ldi	r25, 0x00	; 0
     91e:	2a 81       	ldd	r18, Y+2	; 0x02
     920:	3b 81       	ldd	r19, Y+3	; 0x03
     922:	82 0f       	add	r24, r18
     924:	93 1f       	adc	r25, r19
     926:	80 56       	subi	r24, 0x60	; 96
     928:	9e 4f       	sbci	r25, 0xFE	; 254
     92a:	21 e0       	ldi	r18, 0x01	; 1
     92c:	fc 01       	movw	r30, r24
     92e:	20 83       	st	Z, r18
     930:	89 81       	ldd	r24, Y+1	; 0x01
     932:	88 2f       	mov	r24, r24
     934:	90 e0       	ldi	r25, 0x00	; 0
     936:	2a 81       	ldd	r18, Y+2	; 0x02
     938:	3b 81       	ldd	r19, Y+3	; 0x03
     93a:	82 0f       	add	r24, r18
     93c:	93 1f       	adc	r25, r19
     93e:	80 58       	subi	r24, 0x80	; 128
     940:	9e 4f       	sbci	r25, 0xFE	; 254
     942:	21 e0       	ldi	r18, 0x01	; 1
     944:	fc 01       	movw	r30, r24
     946:	20 83       	st	Z, r18
     948:	89 81       	ldd	r24, Y+1	; 0x01
     94a:	8f 5f       	subi	r24, 0xFF	; 255
     94c:	89 83       	std	Y+1, r24	; 0x01
     94e:	89 81       	ldd	r24, Y+1	; 0x01
     950:	80 31       	cpi	r24, 0x10	; 16
     952:	b0 f2       	brcs	.-84     	; 0x900 <_ZN22AnalogDigitalConverterC1Ev+0x3e>
     954:	8c e7       	ldi	r24, 0x7C	; 124
     956:	90 e0       	ldi	r25, 0x00	; 0
     958:	20 ec       	ldi	r18, 0xC0	; 192
     95a:	fc 01       	movw	r30, r24
     95c:	20 83       	st	Z, r18
     95e:	8a e7       	ldi	r24, 0x7A	; 122
     960:	90 e0       	ldi	r25, 0x00	; 0
     962:	2d ea       	ldi	r18, 0xAD	; 173
     964:	fc 01       	movw	r30, r24
     966:	20 83       	st	Z, r18
     968:	8b e7       	ldi	r24, 0x7B	; 123
     96a:	90 e0       	ldi	r25, 0x00	; 0
     96c:	25 e0       	ldi	r18, 0x05	; 5
     96e:	fc 01       	movw	r30, r24
     970:	20 83       	st	Z, r18
     972:	8a 81       	ldd	r24, Y+2	; 0x02
     974:	9b 81       	ldd	r25, Y+3	; 0x03
     976:	80 55       	subi	r24, 0x50	; 80
     978:	9e 4f       	sbci	r25, 0xFE	; 254
     97a:	fc 01       	movw	r30, r24
     97c:	10 82       	st	Z, r1
     97e:	81 e8       	ldi	r24, 0x81	; 129
     980:	90 e0       	ldi	r25, 0x00	; 0
     982:	29 e0       	ldi	r18, 0x09	; 9
     984:	fc 01       	movw	r30, r24
     986:	20 83       	st	Z, r18
     988:	8f e6       	ldi	r24, 0x6F	; 111
     98a:	90 e0       	ldi	r25, 0x00	; 0
     98c:	24 e0       	ldi	r18, 0x04	; 4
     98e:	fc 01       	movw	r30, r24
     990:	20 83       	st	Z, r18
     992:	88 e8       	ldi	r24, 0x88	; 136
     994:	90 e0       	ldi	r25, 0x00	; 0
     996:	21 e3       	ldi	r18, 0x31	; 49
     998:	33 e2       	ldi	r19, 0x23	; 35
     99a:	fc 01       	movw	r30, r24
     99c:	31 83       	std	Z+1, r19	; 0x01
     99e:	20 83       	st	Z, r18
     9a0:	8e e7       	ldi	r24, 0x7E	; 126
     9a2:	90 e0       	ldi	r25, 0x00	; 0
     9a4:	2f ef       	ldi	r18, 0xFF	; 255
     9a6:	fc 01       	movw	r30, r24
     9a8:	20 83       	st	Z, r18
     9aa:	8d e7       	ldi	r24, 0x7D	; 125
     9ac:	90 e0       	ldi	r25, 0x00	; 0
     9ae:	2f ef       	ldi	r18, 0xFF	; 255
     9b0:	fc 01       	movw	r30, r24
     9b2:	20 83       	st	Z, r18
     9b4:	0f 90       	pop	r0
     9b6:	0f 90       	pop	r0
     9b8:	0f 90       	pop	r0
     9ba:	df 91       	pop	r29
     9bc:	cf 91       	pop	r28
     9be:	1f 91       	pop	r17
     9c0:	0f 91       	pop	r16
     9c2:	ff 90       	pop	r15
     9c4:	ef 90       	pop	r14
     9c6:	08 95       	ret

000009c8 <_ZNV22AnalogDigitalConverter6sampleEv>:
     9c8:	0f 93       	push	r16
     9ca:	1f 93       	push	r17
     9cc:	cf 93       	push	r28
     9ce:	df 93       	push	r29
     9d0:	00 d0       	rcall	.+0      	; 0x9d2 <_ZNV22AnalogDigitalConverter6sampleEv+0xa>
     9d2:	1f 92       	push	r1
     9d4:	cd b7       	in	r28, 0x3d	; 61
     9d6:	de b7       	in	r29, 0x3e	; 62
     9d8:	9c 83       	std	Y+4, r25	; 0x04
     9da:	8b 83       	std	Y+3, r24	; 0x03
     9dc:	1a 82       	std	Y+2, r1	; 0x02
     9de:	19 82       	std	Y+1, r1	; 0x01
     9e0:	8b 81       	ldd	r24, Y+3	; 0x03
     9e2:	9c 81       	ldd	r25, Y+4	; 0x04
     9e4:	80 55       	subi	r24, 0x50	; 80
     9e6:	9e 4f       	sbci	r25, 0xFE	; 254
     9e8:	fc 01       	movw	r30, r24
     9ea:	80 81       	ld	r24, Z
     9ec:	88 2f       	mov	r24, r24
     9ee:	90 e0       	ldi	r25, 0x00	; 0
     9f0:	09 2e       	mov	r0, r25
     9f2:	00 0c       	add	r0, r0
     9f4:	aa 0b       	sbc	r26, r26
     9f6:	bb 0b       	sbc	r27, r27
     9f8:	40 e0       	ldi	r20, 0x00	; 0
     9fa:	50 e0       	ldi	r21, 0x00	; 0
     9fc:	2f e0       	ldi	r18, 0x0F	; 15
     9fe:	30 e0       	ldi	r19, 0x00	; 0
     a00:	84 1b       	sub	r24, r20
     a02:	95 0b       	sbc	r25, r21
     a04:	28 17       	cp	r18, r24
     a06:	39 07       	cpc	r19, r25
     a08:	08 f4       	brcc	.+2      	; 0xa0c <_ZNV22AnalogDigitalConverter6sampleEv+0x44>
     a0a:	e1 c0       	rjmp	.+450    	; 0xbce <_ZNV22AnalogDigitalConverter6sampleEv+0x206>
     a0c:	fc 01       	movw	r30, r24
     a0e:	88 27       	eor	r24, r24
     a10:	ee 58       	subi	r30, 0x8E	; 142
     a12:	ff 4f       	sbci	r31, 0xFF	; 255
     a14:	8f 4f       	sbci	r24, 0xFF	; 255
     a16:	0c 94 2f 18 	jmp	0x305e	; 0x305e <__tablejump2__>
     a1a:	88 e7       	ldi	r24, 0x78	; 120
     a1c:	90 e0       	ldi	r25, 0x00	; 0
     a1e:	fc 01       	movw	r30, r24
     a20:	80 81       	ld	r24, Z
     a22:	91 81       	ldd	r25, Z+1	; 0x01
     a24:	9a 83       	std	Y+2, r25	; 0x02
     a26:	89 83       	std	Y+1, r24	; 0x01
     a28:	8c e7       	ldi	r24, 0x7C	; 124
     a2a:	90 e0       	ldi	r25, 0x00	; 0
     a2c:	21 ec       	ldi	r18, 0xC1	; 193
     a2e:	fc 01       	movw	r30, r24
     a30:	20 83       	st	Z, r18
     a32:	cd c0       	rjmp	.+410    	; 0xbce <_ZNV22AnalogDigitalConverter6sampleEv+0x206>
     a34:	88 e7       	ldi	r24, 0x78	; 120
     a36:	90 e0       	ldi	r25, 0x00	; 0
     a38:	fc 01       	movw	r30, r24
     a3a:	80 81       	ld	r24, Z
     a3c:	91 81       	ldd	r25, Z+1	; 0x01
     a3e:	9a 83       	std	Y+2, r25	; 0x02
     a40:	89 83       	std	Y+1, r24	; 0x01
     a42:	8c e7       	ldi	r24, 0x7C	; 124
     a44:	90 e0       	ldi	r25, 0x00	; 0
     a46:	22 ec       	ldi	r18, 0xC2	; 194
     a48:	fc 01       	movw	r30, r24
     a4a:	20 83       	st	Z, r18
     a4c:	c0 c0       	rjmp	.+384    	; 0xbce <_ZNV22AnalogDigitalConverter6sampleEv+0x206>
     a4e:	88 e7       	ldi	r24, 0x78	; 120
     a50:	90 e0       	ldi	r25, 0x00	; 0
     a52:	fc 01       	movw	r30, r24
     a54:	80 81       	ld	r24, Z
     a56:	91 81       	ldd	r25, Z+1	; 0x01
     a58:	9a 83       	std	Y+2, r25	; 0x02
     a5a:	89 83       	std	Y+1, r24	; 0x01
     a5c:	8c e7       	ldi	r24, 0x7C	; 124
     a5e:	90 e0       	ldi	r25, 0x00	; 0
     a60:	23 ec       	ldi	r18, 0xC3	; 195
     a62:	fc 01       	movw	r30, r24
     a64:	20 83       	st	Z, r18
     a66:	b3 c0       	rjmp	.+358    	; 0xbce <_ZNV22AnalogDigitalConverter6sampleEv+0x206>
     a68:	88 e7       	ldi	r24, 0x78	; 120
     a6a:	90 e0       	ldi	r25, 0x00	; 0
     a6c:	fc 01       	movw	r30, r24
     a6e:	80 81       	ld	r24, Z
     a70:	91 81       	ldd	r25, Z+1	; 0x01
     a72:	9a 83       	std	Y+2, r25	; 0x02
     a74:	89 83       	std	Y+1, r24	; 0x01
     a76:	8c e7       	ldi	r24, 0x7C	; 124
     a78:	90 e0       	ldi	r25, 0x00	; 0
     a7a:	24 ec       	ldi	r18, 0xC4	; 196
     a7c:	fc 01       	movw	r30, r24
     a7e:	20 83       	st	Z, r18
     a80:	a6 c0       	rjmp	.+332    	; 0xbce <_ZNV22AnalogDigitalConverter6sampleEv+0x206>
     a82:	88 e7       	ldi	r24, 0x78	; 120
     a84:	90 e0       	ldi	r25, 0x00	; 0
     a86:	fc 01       	movw	r30, r24
     a88:	80 81       	ld	r24, Z
     a8a:	91 81       	ldd	r25, Z+1	; 0x01
     a8c:	9a 83       	std	Y+2, r25	; 0x02
     a8e:	89 83       	std	Y+1, r24	; 0x01
     a90:	8c e7       	ldi	r24, 0x7C	; 124
     a92:	90 e0       	ldi	r25, 0x00	; 0
     a94:	25 ec       	ldi	r18, 0xC5	; 197
     a96:	fc 01       	movw	r30, r24
     a98:	20 83       	st	Z, r18
     a9a:	99 c0       	rjmp	.+306    	; 0xbce <_ZNV22AnalogDigitalConverter6sampleEv+0x206>
     a9c:	88 e7       	ldi	r24, 0x78	; 120
     a9e:	90 e0       	ldi	r25, 0x00	; 0
     aa0:	fc 01       	movw	r30, r24
     aa2:	80 81       	ld	r24, Z
     aa4:	91 81       	ldd	r25, Z+1	; 0x01
     aa6:	9a 83       	std	Y+2, r25	; 0x02
     aa8:	89 83       	std	Y+1, r24	; 0x01
     aaa:	8c e7       	ldi	r24, 0x7C	; 124
     aac:	90 e0       	ldi	r25, 0x00	; 0
     aae:	26 ec       	ldi	r18, 0xC6	; 198
     ab0:	fc 01       	movw	r30, r24
     ab2:	20 83       	st	Z, r18
     ab4:	8c c0       	rjmp	.+280    	; 0xbce <_ZNV22AnalogDigitalConverter6sampleEv+0x206>
     ab6:	88 e7       	ldi	r24, 0x78	; 120
     ab8:	90 e0       	ldi	r25, 0x00	; 0
     aba:	fc 01       	movw	r30, r24
     abc:	80 81       	ld	r24, Z
     abe:	91 81       	ldd	r25, Z+1	; 0x01
     ac0:	9a 83       	std	Y+2, r25	; 0x02
     ac2:	89 83       	std	Y+1, r24	; 0x01
     ac4:	8c e7       	ldi	r24, 0x7C	; 124
     ac6:	90 e0       	ldi	r25, 0x00	; 0
     ac8:	27 ec       	ldi	r18, 0xC7	; 199
     aca:	fc 01       	movw	r30, r24
     acc:	20 83       	st	Z, r18
     ace:	7f c0       	rjmp	.+254    	; 0xbce <_ZNV22AnalogDigitalConverter6sampleEv+0x206>
     ad0:	88 e7       	ldi	r24, 0x78	; 120
     ad2:	90 e0       	ldi	r25, 0x00	; 0
     ad4:	fc 01       	movw	r30, r24
     ad6:	80 81       	ld	r24, Z
     ad8:	91 81       	ldd	r25, Z+1	; 0x01
     ada:	9a 83       	std	Y+2, r25	; 0x02
     adc:	89 83       	std	Y+1, r24	; 0x01
     ade:	8b e7       	ldi	r24, 0x7B	; 123
     ae0:	90 e0       	ldi	r25, 0x00	; 0
     ae2:	2d e0       	ldi	r18, 0x0D	; 13
     ae4:	fc 01       	movw	r30, r24
     ae6:	20 83       	st	Z, r18
     ae8:	8c e7       	ldi	r24, 0x7C	; 124
     aea:	90 e0       	ldi	r25, 0x00	; 0
     aec:	20 ec       	ldi	r18, 0xC0	; 192
     aee:	fc 01       	movw	r30, r24
     af0:	20 83       	st	Z, r18
     af2:	6d c0       	rjmp	.+218    	; 0xbce <_ZNV22AnalogDigitalConverter6sampleEv+0x206>
     af4:	88 e7       	ldi	r24, 0x78	; 120
     af6:	90 e0       	ldi	r25, 0x00	; 0
     af8:	fc 01       	movw	r30, r24
     afa:	80 81       	ld	r24, Z
     afc:	91 81       	ldd	r25, Z+1	; 0x01
     afe:	9a 83       	std	Y+2, r25	; 0x02
     b00:	89 83       	std	Y+1, r24	; 0x01
     b02:	8c e7       	ldi	r24, 0x7C	; 124
     b04:	90 e0       	ldi	r25, 0x00	; 0
     b06:	21 ec       	ldi	r18, 0xC1	; 193
     b08:	fc 01       	movw	r30, r24
     b0a:	20 83       	st	Z, r18
     b0c:	60 c0       	rjmp	.+192    	; 0xbce <_ZNV22AnalogDigitalConverter6sampleEv+0x206>
     b0e:	88 e7       	ldi	r24, 0x78	; 120
     b10:	90 e0       	ldi	r25, 0x00	; 0
     b12:	fc 01       	movw	r30, r24
     b14:	80 81       	ld	r24, Z
     b16:	91 81       	ldd	r25, Z+1	; 0x01
     b18:	9a 83       	std	Y+2, r25	; 0x02
     b1a:	89 83       	std	Y+1, r24	; 0x01
     b1c:	8c e7       	ldi	r24, 0x7C	; 124
     b1e:	90 e0       	ldi	r25, 0x00	; 0
     b20:	22 ec       	ldi	r18, 0xC2	; 194
     b22:	fc 01       	movw	r30, r24
     b24:	20 83       	st	Z, r18
     b26:	53 c0       	rjmp	.+166    	; 0xbce <_ZNV22AnalogDigitalConverter6sampleEv+0x206>
     b28:	88 e7       	ldi	r24, 0x78	; 120
     b2a:	90 e0       	ldi	r25, 0x00	; 0
     b2c:	fc 01       	movw	r30, r24
     b2e:	80 81       	ld	r24, Z
     b30:	91 81       	ldd	r25, Z+1	; 0x01
     b32:	9a 83       	std	Y+2, r25	; 0x02
     b34:	89 83       	std	Y+1, r24	; 0x01
     b36:	8c e7       	ldi	r24, 0x7C	; 124
     b38:	90 e0       	ldi	r25, 0x00	; 0
     b3a:	23 ec       	ldi	r18, 0xC3	; 195
     b3c:	fc 01       	movw	r30, r24
     b3e:	20 83       	st	Z, r18
     b40:	46 c0       	rjmp	.+140    	; 0xbce <_ZNV22AnalogDigitalConverter6sampleEv+0x206>
     b42:	88 e7       	ldi	r24, 0x78	; 120
     b44:	90 e0       	ldi	r25, 0x00	; 0
     b46:	fc 01       	movw	r30, r24
     b48:	80 81       	ld	r24, Z
     b4a:	91 81       	ldd	r25, Z+1	; 0x01
     b4c:	9a 83       	std	Y+2, r25	; 0x02
     b4e:	89 83       	std	Y+1, r24	; 0x01
     b50:	8c e7       	ldi	r24, 0x7C	; 124
     b52:	90 e0       	ldi	r25, 0x00	; 0
     b54:	24 ec       	ldi	r18, 0xC4	; 196
     b56:	fc 01       	movw	r30, r24
     b58:	20 83       	st	Z, r18
     b5a:	39 c0       	rjmp	.+114    	; 0xbce <_ZNV22AnalogDigitalConverter6sampleEv+0x206>
     b5c:	88 e7       	ldi	r24, 0x78	; 120
     b5e:	90 e0       	ldi	r25, 0x00	; 0
     b60:	fc 01       	movw	r30, r24
     b62:	80 81       	ld	r24, Z
     b64:	91 81       	ldd	r25, Z+1	; 0x01
     b66:	9a 83       	std	Y+2, r25	; 0x02
     b68:	89 83       	std	Y+1, r24	; 0x01
     b6a:	8c e7       	ldi	r24, 0x7C	; 124
     b6c:	90 e0       	ldi	r25, 0x00	; 0
     b6e:	25 ec       	ldi	r18, 0xC5	; 197
     b70:	fc 01       	movw	r30, r24
     b72:	20 83       	st	Z, r18
     b74:	2c c0       	rjmp	.+88     	; 0xbce <_ZNV22AnalogDigitalConverter6sampleEv+0x206>
     b76:	88 e7       	ldi	r24, 0x78	; 120
     b78:	90 e0       	ldi	r25, 0x00	; 0
     b7a:	fc 01       	movw	r30, r24
     b7c:	80 81       	ld	r24, Z
     b7e:	91 81       	ldd	r25, Z+1	; 0x01
     b80:	9a 83       	std	Y+2, r25	; 0x02
     b82:	89 83       	std	Y+1, r24	; 0x01
     b84:	8c e7       	ldi	r24, 0x7C	; 124
     b86:	90 e0       	ldi	r25, 0x00	; 0
     b88:	26 ec       	ldi	r18, 0xC6	; 198
     b8a:	fc 01       	movw	r30, r24
     b8c:	20 83       	st	Z, r18
     b8e:	1f c0       	rjmp	.+62     	; 0xbce <_ZNV22AnalogDigitalConverter6sampleEv+0x206>
     b90:	88 e7       	ldi	r24, 0x78	; 120
     b92:	90 e0       	ldi	r25, 0x00	; 0
     b94:	fc 01       	movw	r30, r24
     b96:	80 81       	ld	r24, Z
     b98:	91 81       	ldd	r25, Z+1	; 0x01
     b9a:	9a 83       	std	Y+2, r25	; 0x02
     b9c:	89 83       	std	Y+1, r24	; 0x01
     b9e:	8c e7       	ldi	r24, 0x7C	; 124
     ba0:	90 e0       	ldi	r25, 0x00	; 0
     ba2:	27 ec       	ldi	r18, 0xC7	; 199
     ba4:	fc 01       	movw	r30, r24
     ba6:	20 83       	st	Z, r18
     ba8:	12 c0       	rjmp	.+36     	; 0xbce <_ZNV22AnalogDigitalConverter6sampleEv+0x206>
     baa:	88 e7       	ldi	r24, 0x78	; 120
     bac:	90 e0       	ldi	r25, 0x00	; 0
     bae:	fc 01       	movw	r30, r24
     bb0:	80 81       	ld	r24, Z
     bb2:	91 81       	ldd	r25, Z+1	; 0x01
     bb4:	9a 83       	std	Y+2, r25	; 0x02
     bb6:	89 83       	std	Y+1, r24	; 0x01
     bb8:	8c e7       	ldi	r24, 0x7C	; 124
     bba:	90 e0       	ldi	r25, 0x00	; 0
     bbc:	20 ec       	ldi	r18, 0xC0	; 192
     bbe:	fc 01       	movw	r30, r24
     bc0:	20 83       	st	Z, r18
     bc2:	8b e7       	ldi	r24, 0x7B	; 123
     bc4:	90 e0       	ldi	r25, 0x00	; 0
     bc6:	25 e0       	ldi	r18, 0x05	; 5
     bc8:	fc 01       	movw	r30, r24
     bca:	20 83       	st	Z, r18
     bcc:	00 00       	nop
     bce:	8b 81       	ldd	r24, Y+3	; 0x03
     bd0:	9c 81       	ldd	r25, Y+4	; 0x04
     bd2:	80 55       	subi	r24, 0x50	; 80
     bd4:	9e 4f       	sbci	r25, 0xFE	; 254
     bd6:	fc 01       	movw	r30, r24
     bd8:	80 81       	ld	r24, Z
     bda:	88 2f       	mov	r24, r24
     bdc:	90 e0       	ldi	r25, 0x00	; 0
     bde:	2b 81       	ldd	r18, Y+3	; 0x03
     be0:	3c 81       	ldd	r19, Y+4	; 0x04
     be2:	82 0f       	add	r24, r18
     be4:	93 1f       	adc	r25, r19
     be6:	80 56       	subi	r24, 0x60	; 96
     be8:	9e 4f       	sbci	r25, 0xFE	; 254
     bea:	fc 01       	movw	r30, r24
     bec:	80 81       	ld	r24, Z
     bee:	88 23       	and	r24, r24
     bf0:	09 f4       	brne	.+2      	; 0xbf4 <_ZNV22AnalogDigitalConverter6sampleEv+0x22c>
     bf2:	df c0       	rjmp	.+446    	; 0xdb2 <_ZNV22AnalogDigitalConverter6sampleEv+0x3ea>
     bf4:	8b 81       	ldd	r24, Y+3	; 0x03
     bf6:	9c 81       	ldd	r25, Y+4	; 0x04
     bf8:	80 55       	subi	r24, 0x50	; 80
     bfa:	9e 4f       	sbci	r25, 0xFE	; 254
     bfc:	fc 01       	movw	r30, r24
     bfe:	80 81       	ld	r24, Z
     c00:	88 2f       	mov	r24, r24
     c02:	90 e0       	ldi	r25, 0x00	; 0
     c04:	2b 81       	ldd	r18, Y+3	; 0x03
     c06:	3c 81       	ldd	r19, Y+4	; 0x04
     c08:	82 0f       	add	r24, r18
     c0a:	93 1f       	adc	r25, r19
     c0c:	80 57       	subi	r24, 0x70	; 112
     c0e:	9e 4f       	sbci	r25, 0xFE	; 254
     c10:	fc 01       	movw	r30, r24
     c12:	80 81       	ld	r24, Z
     c14:	88 23       	and	r24, r24
     c16:	09 f4       	brne	.+2      	; 0xc1a <_ZNV22AnalogDigitalConverter6sampleEv+0x252>
     c18:	9a c0       	rjmp	.+308    	; 0xd4e <_ZNV22AnalogDigitalConverter6sampleEv+0x386>
     c1a:	8b 81       	ldd	r24, Y+3	; 0x03
     c1c:	9c 81       	ldd	r25, Y+4	; 0x04
     c1e:	80 55       	subi	r24, 0x50	; 80
     c20:	9e 4f       	sbci	r25, 0xFE	; 254
     c22:	fc 01       	movw	r30, r24
     c24:	80 81       	ld	r24, Z
     c26:	88 2f       	mov	r24, r24
     c28:	90 e0       	ldi	r25, 0x00	; 0
     c2a:	2b 81       	ldd	r18, Y+3	; 0x03
     c2c:	3c 81       	ldd	r19, Y+4	; 0x04
     c2e:	82 0f       	add	r24, r18
     c30:	93 1f       	adc	r25, r19
     c32:	80 58       	subi	r24, 0x80	; 128
     c34:	9e 4f       	sbci	r25, 0xFE	; 254
     c36:	fc 01       	movw	r30, r24
     c38:	90 81       	ld	r25, Z
     c3a:	81 e0       	ldi	r24, 0x01	; 1
     c3c:	99 23       	and	r25, r25
     c3e:	09 f0       	breq	.+2      	; 0xc42 <_ZNV22AnalogDigitalConverter6sampleEv+0x27a>
     c40:	80 e0       	ldi	r24, 0x00	; 0
     c42:	88 23       	and	r24, r24
     c44:	b1 f1       	breq	.+108    	; 0xcb2 <_ZNV22AnalogDigitalConverter6sampleEv+0x2ea>
     c46:	8b 81       	ldd	r24, Y+3	; 0x03
     c48:	9c 81       	ldd	r25, Y+4	; 0x04
     c4a:	80 55       	subi	r24, 0x50	; 80
     c4c:	9e 4f       	sbci	r25, 0xFE	; 254
     c4e:	fc 01       	movw	r30, r24
     c50:	80 81       	ld	r24, Z
     c52:	08 2f       	mov	r16, r24
     c54:	10 e0       	ldi	r17, 0x00	; 0
     c56:	8b 81       	ldd	r24, Y+3	; 0x03
     c58:	9c 81       	ldd	r25, Y+4	; 0x04
     c5a:	80 55       	subi	r24, 0x50	; 80
     c5c:	9e 4f       	sbci	r25, 0xFE	; 254
     c5e:	fc 01       	movw	r30, r24
     c60:	80 81       	ld	r24, Z
     c62:	28 2f       	mov	r18, r24
     c64:	30 e0       	ldi	r19, 0x00	; 0
     c66:	c9 01       	movw	r24, r18
     c68:	88 0f       	add	r24, r24
     c6a:	99 1f       	adc	r25, r25
     c6c:	82 0f       	add	r24, r18
     c6e:	93 1f       	adc	r25, r19
     c70:	88 0f       	add	r24, r24
     c72:	99 1f       	adc	r25, r25
     c74:	88 0f       	add	r24, r24
     c76:	99 1f       	adc	r25, r25
     c78:	88 0f       	add	r24, r24
     c7a:	99 1f       	adc	r25, r25
     c7c:	2b 81       	ldd	r18, Y+3	; 0x03
     c7e:	3c 81       	ldd	r19, Y+4	; 0x04
     c80:	82 0f       	add	r24, r18
     c82:	93 1f       	adc	r25, r19
     c84:	29 81       	ldd	r18, Y+1	; 0x01
     c86:	3a 81       	ldd	r19, Y+2	; 0x02
     c88:	b9 01       	movw	r22, r18
     c8a:	0e 94 ee 15 	call	0x2bdc	; 0x2bdc <_ZNV10iirlowpass6sampleEi>
     c8e:	9c 01       	movw	r18, r24
     c90:	8b 81       	ldd	r24, Y+3	; 0x03
     c92:	9c 81       	ldd	r25, Y+4	; 0x04
     c94:	b9 01       	movw	r22, r18
     c96:	64 d1       	rcall	.+712    	; 0xf60 <_ZNV22AnalogDigitalConverter32ConvertPT1000ADCvalToTemperatureEi>
     c98:	ac 01       	movw	r20, r24
     c9a:	2b 81       	ldd	r18, Y+3	; 0x03
     c9c:	3c 81       	ldd	r19, Y+4	; 0x04
     c9e:	c8 01       	movw	r24, r16
     ca0:	88 0f       	add	r24, r24
     ca2:	99 1f       	adc	r25, r25
     ca4:	82 0f       	add	r24, r18
     ca6:	93 1f       	adc	r25, r19
     ca8:	8f 54       	subi	r24, 0x4F	; 79
     caa:	9e 4f       	sbci	r25, 0xFE	; 254
     cac:	fc 01       	movw	r30, r24
     cae:	51 83       	std	Z+1, r21	; 0x01
     cb0:	40 83       	st	Z, r20
     cb2:	8b 81       	ldd	r24, Y+3	; 0x03
     cb4:	9c 81       	ldd	r25, Y+4	; 0x04
     cb6:	80 55       	subi	r24, 0x50	; 80
     cb8:	9e 4f       	sbci	r25, 0xFE	; 254
     cba:	fc 01       	movw	r30, r24
     cbc:	80 81       	ld	r24, Z
     cbe:	88 2f       	mov	r24, r24
     cc0:	90 e0       	ldi	r25, 0x00	; 0
     cc2:	2b 81       	ldd	r18, Y+3	; 0x03
     cc4:	3c 81       	ldd	r19, Y+4	; 0x04
     cc6:	82 0f       	add	r24, r18
     cc8:	93 1f       	adc	r25, r19
     cca:	80 58       	subi	r24, 0x80	; 128
     ccc:	9e 4f       	sbci	r25, 0xFE	; 254
     cce:	fc 01       	movw	r30, r24
     cd0:	90 81       	ld	r25, Z
     cd2:	81 e0       	ldi	r24, 0x01	; 1
     cd4:	91 30       	cpi	r25, 0x01	; 1
     cd6:	09 f0       	breq	.+2      	; 0xcda <_ZNV22AnalogDigitalConverter6sampleEv+0x312>
     cd8:	80 e0       	ldi	r24, 0x00	; 0
     cda:	88 23       	and	r24, r24
     cdc:	09 f4       	brne	.+2      	; 0xce0 <_ZNV22AnalogDigitalConverter6sampleEv+0x318>
     cde:	f4 c0       	rjmp	.+488    	; 0xec8 <_ZNV22AnalogDigitalConverter6sampleEv+0x500>
     ce0:	8b 81       	ldd	r24, Y+3	; 0x03
     ce2:	9c 81       	ldd	r25, Y+4	; 0x04
     ce4:	80 55       	subi	r24, 0x50	; 80
     ce6:	9e 4f       	sbci	r25, 0xFE	; 254
     ce8:	fc 01       	movw	r30, r24
     cea:	80 81       	ld	r24, Z
     cec:	08 2f       	mov	r16, r24
     cee:	10 e0       	ldi	r17, 0x00	; 0
     cf0:	8b 81       	ldd	r24, Y+3	; 0x03
     cf2:	9c 81       	ldd	r25, Y+4	; 0x04
     cf4:	80 55       	subi	r24, 0x50	; 80
     cf6:	9e 4f       	sbci	r25, 0xFE	; 254
     cf8:	fc 01       	movw	r30, r24
     cfa:	80 81       	ld	r24, Z
     cfc:	28 2f       	mov	r18, r24
     cfe:	30 e0       	ldi	r19, 0x00	; 0
     d00:	c9 01       	movw	r24, r18
     d02:	88 0f       	add	r24, r24
     d04:	99 1f       	adc	r25, r25
     d06:	82 0f       	add	r24, r18
     d08:	93 1f       	adc	r25, r19
     d0a:	88 0f       	add	r24, r24
     d0c:	99 1f       	adc	r25, r25
     d0e:	88 0f       	add	r24, r24
     d10:	99 1f       	adc	r25, r25
     d12:	88 0f       	add	r24, r24
     d14:	99 1f       	adc	r25, r25
     d16:	2b 81       	ldd	r18, Y+3	; 0x03
     d18:	3c 81       	ldd	r19, Y+4	; 0x04
     d1a:	82 0f       	add	r24, r18
     d1c:	93 1f       	adc	r25, r19
     d1e:	29 81       	ldd	r18, Y+1	; 0x01
     d20:	3a 81       	ldd	r19, Y+2	; 0x02
     d22:	b9 01       	movw	r22, r18
     d24:	0e 94 ee 15 	call	0x2bdc	; 0x2bdc <_ZNV10iirlowpass6sampleEi>
     d28:	9c 01       	movw	r18, r24
     d2a:	8b 81       	ldd	r24, Y+3	; 0x03
     d2c:	9c 81       	ldd	r25, Y+4	; 0x04
     d2e:	b9 01       	movw	r22, r18
     d30:	5a d1       	rcall	.+692    	; 0xfe6 <_ZNV22AnalogDigitalConverter32ConvertPT2000ADCvalToTemperatureEi>
     d32:	ac 01       	movw	r20, r24
     d34:	2b 81       	ldd	r18, Y+3	; 0x03
     d36:	3c 81       	ldd	r19, Y+4	; 0x04
     d38:	c8 01       	movw	r24, r16
     d3a:	88 0f       	add	r24, r24
     d3c:	99 1f       	adc	r25, r25
     d3e:	82 0f       	add	r24, r18
     d40:	93 1f       	adc	r25, r19
     d42:	8f 54       	subi	r24, 0x4F	; 79
     d44:	9e 4f       	sbci	r25, 0xFE	; 254
     d46:	fc 01       	movw	r30, r24
     d48:	51 83       	std	Z+1, r21	; 0x01
     d4a:	40 83       	st	Z, r20
     d4c:	bd c0       	rjmp	.+378    	; 0xec8 <_ZNV22AnalogDigitalConverter6sampleEv+0x500>
     d4e:	8b 81       	ldd	r24, Y+3	; 0x03
     d50:	9c 81       	ldd	r25, Y+4	; 0x04
     d52:	80 55       	subi	r24, 0x50	; 80
     d54:	9e 4f       	sbci	r25, 0xFE	; 254
     d56:	fc 01       	movw	r30, r24
     d58:	80 81       	ld	r24, Z
     d5a:	08 2f       	mov	r16, r24
     d5c:	10 e0       	ldi	r17, 0x00	; 0
     d5e:	8b 81       	ldd	r24, Y+3	; 0x03
     d60:	9c 81       	ldd	r25, Y+4	; 0x04
     d62:	80 55       	subi	r24, 0x50	; 80
     d64:	9e 4f       	sbci	r25, 0xFE	; 254
     d66:	fc 01       	movw	r30, r24
     d68:	80 81       	ld	r24, Z
     d6a:	28 2f       	mov	r18, r24
     d6c:	30 e0       	ldi	r19, 0x00	; 0
     d6e:	c9 01       	movw	r24, r18
     d70:	88 0f       	add	r24, r24
     d72:	99 1f       	adc	r25, r25
     d74:	82 0f       	add	r24, r18
     d76:	93 1f       	adc	r25, r19
     d78:	88 0f       	add	r24, r24
     d7a:	99 1f       	adc	r25, r25
     d7c:	88 0f       	add	r24, r24
     d7e:	99 1f       	adc	r25, r25
     d80:	88 0f       	add	r24, r24
     d82:	99 1f       	adc	r25, r25
     d84:	2b 81       	ldd	r18, Y+3	; 0x03
     d86:	3c 81       	ldd	r19, Y+4	; 0x04
     d88:	82 0f       	add	r24, r18
     d8a:	93 1f       	adc	r25, r19
     d8c:	29 81       	ldd	r18, Y+1	; 0x01
     d8e:	3a 81       	ldd	r19, Y+2	; 0x02
     d90:	b9 01       	movw	r22, r18
     d92:	0e 94 ee 15 	call	0x2bdc	; 0x2bdc <_ZNV10iirlowpass6sampleEi>
     d96:	ac 01       	movw	r20, r24
     d98:	2b 81       	ldd	r18, Y+3	; 0x03
     d9a:	3c 81       	ldd	r19, Y+4	; 0x04
     d9c:	c8 01       	movw	r24, r16
     d9e:	88 0f       	add	r24, r24
     da0:	99 1f       	adc	r25, r25
     da2:	82 0f       	add	r24, r18
     da4:	93 1f       	adc	r25, r19
     da6:	8f 54       	subi	r24, 0x4F	; 79
     da8:	9e 4f       	sbci	r25, 0xFE	; 254
     daa:	fc 01       	movw	r30, r24
     dac:	51 83       	std	Z+1, r21	; 0x01
     dae:	40 83       	st	Z, r20
     db0:	8b c0       	rjmp	.+278    	; 0xec8 <_ZNV22AnalogDigitalConverter6sampleEv+0x500>
     db2:	8b 81       	ldd	r24, Y+3	; 0x03
     db4:	9c 81       	ldd	r25, Y+4	; 0x04
     db6:	80 55       	subi	r24, 0x50	; 80
     db8:	9e 4f       	sbci	r25, 0xFE	; 254
     dba:	fc 01       	movw	r30, r24
     dbc:	80 81       	ld	r24, Z
     dbe:	88 2f       	mov	r24, r24
     dc0:	90 e0       	ldi	r25, 0x00	; 0
     dc2:	2b 81       	ldd	r18, Y+3	; 0x03
     dc4:	3c 81       	ldd	r19, Y+4	; 0x04
     dc6:	82 0f       	add	r24, r18
     dc8:	93 1f       	adc	r25, r19
     dca:	80 57       	subi	r24, 0x70	; 112
     dcc:	9e 4f       	sbci	r25, 0xFE	; 254
     dce:	fc 01       	movw	r30, r24
     dd0:	80 81       	ld	r24, Z
     dd2:	88 23       	and	r24, r24
     dd4:	09 f4       	brne	.+2      	; 0xdd8 <_ZNV22AnalogDigitalConverter6sampleEv+0x410>
     dd6:	63 c0       	rjmp	.+198    	; 0xe9e <_ZNV22AnalogDigitalConverter6sampleEv+0x4d6>
     dd8:	8b 81       	ldd	r24, Y+3	; 0x03
     dda:	9c 81       	ldd	r25, Y+4	; 0x04
     ddc:	80 55       	subi	r24, 0x50	; 80
     dde:	9e 4f       	sbci	r25, 0xFE	; 254
     de0:	fc 01       	movw	r30, r24
     de2:	80 81       	ld	r24, Z
     de4:	88 2f       	mov	r24, r24
     de6:	90 e0       	ldi	r25, 0x00	; 0
     de8:	2b 81       	ldd	r18, Y+3	; 0x03
     dea:	3c 81       	ldd	r19, Y+4	; 0x04
     dec:	82 0f       	add	r24, r18
     dee:	93 1f       	adc	r25, r19
     df0:	80 58       	subi	r24, 0x80	; 128
     df2:	9e 4f       	sbci	r25, 0xFE	; 254
     df4:	fc 01       	movw	r30, r24
     df6:	90 81       	ld	r25, Z
     df8:	81 e0       	ldi	r24, 0x01	; 1
     dfa:	99 23       	and	r25, r25
     dfc:	09 f0       	breq	.+2      	; 0xe00 <_ZNV22AnalogDigitalConverter6sampleEv+0x438>
     dfe:	80 e0       	ldi	r24, 0x00	; 0
     e00:	88 23       	and	r24, r24
     e02:	d9 f0       	breq	.+54     	; 0xe3a <_ZNV22AnalogDigitalConverter6sampleEv+0x472>
     e04:	8b 81       	ldd	r24, Y+3	; 0x03
     e06:	9c 81       	ldd	r25, Y+4	; 0x04
     e08:	80 55       	subi	r24, 0x50	; 80
     e0a:	9e 4f       	sbci	r25, 0xFE	; 254
     e0c:	fc 01       	movw	r30, r24
     e0e:	80 81       	ld	r24, Z
     e10:	08 2f       	mov	r16, r24
     e12:	10 e0       	ldi	r17, 0x00	; 0
     e14:	29 81       	ldd	r18, Y+1	; 0x01
     e16:	3a 81       	ldd	r19, Y+2	; 0x02
     e18:	8b 81       	ldd	r24, Y+3	; 0x03
     e1a:	9c 81       	ldd	r25, Y+4	; 0x04
     e1c:	b9 01       	movw	r22, r18
     e1e:	a0 d0       	rcall	.+320    	; 0xf60 <_ZNV22AnalogDigitalConverter32ConvertPT1000ADCvalToTemperatureEi>
     e20:	ac 01       	movw	r20, r24
     e22:	2b 81       	ldd	r18, Y+3	; 0x03
     e24:	3c 81       	ldd	r19, Y+4	; 0x04
     e26:	c8 01       	movw	r24, r16
     e28:	88 0f       	add	r24, r24
     e2a:	99 1f       	adc	r25, r25
     e2c:	82 0f       	add	r24, r18
     e2e:	93 1f       	adc	r25, r19
     e30:	8f 54       	subi	r24, 0x4F	; 79
     e32:	9e 4f       	sbci	r25, 0xFE	; 254
     e34:	fc 01       	movw	r30, r24
     e36:	51 83       	std	Z+1, r21	; 0x01
     e38:	40 83       	st	Z, r20
     e3a:	8b 81       	ldd	r24, Y+3	; 0x03
     e3c:	9c 81       	ldd	r25, Y+4	; 0x04
     e3e:	80 55       	subi	r24, 0x50	; 80
     e40:	9e 4f       	sbci	r25, 0xFE	; 254
     e42:	fc 01       	movw	r30, r24
     e44:	80 81       	ld	r24, Z
     e46:	88 2f       	mov	r24, r24
     e48:	90 e0       	ldi	r25, 0x00	; 0
     e4a:	2b 81       	ldd	r18, Y+3	; 0x03
     e4c:	3c 81       	ldd	r19, Y+4	; 0x04
     e4e:	82 0f       	add	r24, r18
     e50:	93 1f       	adc	r25, r19
     e52:	80 58       	subi	r24, 0x80	; 128
     e54:	9e 4f       	sbci	r25, 0xFE	; 254
     e56:	fc 01       	movw	r30, r24
     e58:	90 81       	ld	r25, Z
     e5a:	81 e0       	ldi	r24, 0x01	; 1
     e5c:	91 30       	cpi	r25, 0x01	; 1
     e5e:	09 f0       	breq	.+2      	; 0xe62 <_ZNV22AnalogDigitalConverter6sampleEv+0x49a>
     e60:	80 e0       	ldi	r24, 0x00	; 0
     e62:	88 23       	and	r24, r24
     e64:	89 f1       	breq	.+98     	; 0xec8 <_ZNV22AnalogDigitalConverter6sampleEv+0x500>
     e66:	8b 81       	ldd	r24, Y+3	; 0x03
     e68:	9c 81       	ldd	r25, Y+4	; 0x04
     e6a:	80 55       	subi	r24, 0x50	; 80
     e6c:	9e 4f       	sbci	r25, 0xFE	; 254
     e6e:	fc 01       	movw	r30, r24
     e70:	80 81       	ld	r24, Z
     e72:	08 2f       	mov	r16, r24
     e74:	10 e0       	ldi	r17, 0x00	; 0
     e76:	29 81       	ldd	r18, Y+1	; 0x01
     e78:	3a 81       	ldd	r19, Y+2	; 0x02
     e7a:	8b 81       	ldd	r24, Y+3	; 0x03
     e7c:	9c 81       	ldd	r25, Y+4	; 0x04
     e7e:	b9 01       	movw	r22, r18
     e80:	b2 d0       	rcall	.+356    	; 0xfe6 <_ZNV22AnalogDigitalConverter32ConvertPT2000ADCvalToTemperatureEi>
     e82:	ac 01       	movw	r20, r24
     e84:	2b 81       	ldd	r18, Y+3	; 0x03
     e86:	3c 81       	ldd	r19, Y+4	; 0x04
     e88:	c8 01       	movw	r24, r16
     e8a:	88 0f       	add	r24, r24
     e8c:	99 1f       	adc	r25, r25
     e8e:	82 0f       	add	r24, r18
     e90:	93 1f       	adc	r25, r19
     e92:	8f 54       	subi	r24, 0x4F	; 79
     e94:	9e 4f       	sbci	r25, 0xFE	; 254
     e96:	fc 01       	movw	r30, r24
     e98:	51 83       	std	Z+1, r21	; 0x01
     e9a:	40 83       	st	Z, r20
     e9c:	15 c0       	rjmp	.+42     	; 0xec8 <_ZNV22AnalogDigitalConverter6sampleEv+0x500>
     e9e:	8b 81       	ldd	r24, Y+3	; 0x03
     ea0:	9c 81       	ldd	r25, Y+4	; 0x04
     ea2:	80 55       	subi	r24, 0x50	; 80
     ea4:	9e 4f       	sbci	r25, 0xFE	; 254
     ea6:	fc 01       	movw	r30, r24
     ea8:	80 81       	ld	r24, Z
     eaa:	88 2f       	mov	r24, r24
     eac:	90 e0       	ldi	r25, 0x00	; 0
     eae:	2b 81       	ldd	r18, Y+3	; 0x03
     eb0:	3c 81       	ldd	r19, Y+4	; 0x04
     eb2:	88 0f       	add	r24, r24
     eb4:	99 1f       	adc	r25, r25
     eb6:	82 0f       	add	r24, r18
     eb8:	93 1f       	adc	r25, r19
     eba:	8f 54       	subi	r24, 0x4F	; 79
     ebc:	9e 4f       	sbci	r25, 0xFE	; 254
     ebe:	29 81       	ldd	r18, Y+1	; 0x01
     ec0:	3a 81       	ldd	r19, Y+2	; 0x02
     ec2:	fc 01       	movw	r30, r24
     ec4:	31 83       	std	Z+1, r19	; 0x01
     ec6:	20 83       	st	Z, r18
     ec8:	8b 81       	ldd	r24, Y+3	; 0x03
     eca:	9c 81       	ldd	r25, Y+4	; 0x04
     ecc:	80 55       	subi	r24, 0x50	; 80
     ece:	9e 4f       	sbci	r25, 0xFE	; 254
     ed0:	fc 01       	movw	r30, r24
     ed2:	90 81       	ld	r25, Z
     ed4:	81 e0       	ldi	r24, 0x01	; 1
     ed6:	9f 30       	cpi	r25, 0x0F	; 15
     ed8:	08 f0       	brcs	.+2      	; 0xedc <_ZNV22AnalogDigitalConverter6sampleEv+0x514>
     eda:	80 e0       	ldi	r24, 0x00	; 0
     edc:	88 23       	and	r24, r24
     ede:	79 f0       	breq	.+30     	; 0xefe <_ZNV22AnalogDigitalConverter6sampleEv+0x536>
     ee0:	8b 81       	ldd	r24, Y+3	; 0x03
     ee2:	9c 81       	ldd	r25, Y+4	; 0x04
     ee4:	80 55       	subi	r24, 0x50	; 80
     ee6:	9e 4f       	sbci	r25, 0xFE	; 254
     ee8:	fc 01       	movw	r30, r24
     eea:	80 81       	ld	r24, Z
     eec:	21 e0       	ldi	r18, 0x01	; 1
     eee:	28 0f       	add	r18, r24
     ef0:	8b 81       	ldd	r24, Y+3	; 0x03
     ef2:	9c 81       	ldd	r25, Y+4	; 0x04
     ef4:	80 55       	subi	r24, 0x50	; 80
     ef6:	9e 4f       	sbci	r25, 0xFE	; 254
     ef8:	fc 01       	movw	r30, r24
     efa:	20 83       	st	Z, r18
     efc:	06 c0       	rjmp	.+12     	; 0xf0a <_ZNV22AnalogDigitalConverter6sampleEv+0x542>
     efe:	8b 81       	ldd	r24, Y+3	; 0x03
     f00:	9c 81       	ldd	r25, Y+4	; 0x04
     f02:	80 55       	subi	r24, 0x50	; 80
     f04:	9e 4f       	sbci	r25, 0xFE	; 254
     f06:	fc 01       	movw	r30, r24
     f08:	10 82       	st	Z, r1
     f0a:	0f 90       	pop	r0
     f0c:	0f 90       	pop	r0
     f0e:	0f 90       	pop	r0
     f10:	0f 90       	pop	r0
     f12:	df 91       	pop	r29
     f14:	cf 91       	pop	r28
     f16:	1f 91       	pop	r17
     f18:	0f 91       	pop	r16
     f1a:	08 95       	ret

00000f1c <_ZNV22AnalogDigitalConverter9getoutputEh>:
     f1c:	cf 93       	push	r28
     f1e:	df 93       	push	r29
     f20:	00 d0       	rcall	.+0      	; 0xf22 <_ZNV22AnalogDigitalConverter9getoutputEh+0x6>
     f22:	cd b7       	in	r28, 0x3d	; 61
     f24:	de b7       	in	r29, 0x3e	; 62
     f26:	9a 83       	std	Y+2, r25	; 0x02
     f28:	89 83       	std	Y+1, r24	; 0x01
     f2a:	6b 83       	std	Y+3, r22	; 0x03
     f2c:	8b 81       	ldd	r24, Y+3	; 0x03
     f2e:	80 31       	cpi	r24, 0x10	; 16
     f30:	18 f0       	brcs	.+6      	; 0xf38 <_ZNV22AnalogDigitalConverter9getoutputEh+0x1c>
     f32:	8f ef       	ldi	r24, 0xFF	; 255
     f34:	9f ef       	ldi	r25, 0xFF	; 255
     f36:	0e c0       	rjmp	.+28     	; 0xf54 <_ZNV22AnalogDigitalConverter9getoutputEh+0x38>
     f38:	8b 81       	ldd	r24, Y+3	; 0x03
     f3a:	88 2f       	mov	r24, r24
     f3c:	90 e0       	ldi	r25, 0x00	; 0
     f3e:	29 81       	ldd	r18, Y+1	; 0x01
     f40:	3a 81       	ldd	r19, Y+2	; 0x02
     f42:	88 0f       	add	r24, r24
     f44:	99 1f       	adc	r25, r25
     f46:	82 0f       	add	r24, r18
     f48:	93 1f       	adc	r25, r19
     f4a:	8f 54       	subi	r24, 0x4F	; 79
     f4c:	9e 4f       	sbci	r25, 0xFE	; 254
     f4e:	fc 01       	movw	r30, r24
     f50:	80 81       	ld	r24, Z
     f52:	91 81       	ldd	r25, Z+1	; 0x01
     f54:	0f 90       	pop	r0
     f56:	0f 90       	pop	r0
     f58:	0f 90       	pop	r0
     f5a:	df 91       	pop	r29
     f5c:	cf 91       	pop	r28
     f5e:	08 95       	ret

00000f60 <_ZNV22AnalogDigitalConverter32ConvertPT1000ADCvalToTemperatureEi>:
     f60:	cf 93       	push	r28
     f62:	df 93       	push	r29
     f64:	cd b7       	in	r28, 0x3d	; 61
     f66:	de b7       	in	r29, 0x3e	; 62
     f68:	2a 97       	sbiw	r28, 0x0a	; 10
     f6a:	0f b6       	in	r0, 0x3f	; 63
     f6c:	f8 94       	cli
     f6e:	de bf       	out	0x3e, r29	; 62
     f70:	0f be       	out	0x3f, r0	; 63
     f72:	cd bf       	out	0x3d, r28	; 61
     f74:	98 87       	std	Y+8, r25	; 0x08
     f76:	8f 83       	std	Y+7, r24	; 0x07
     f78:	7a 87       	std	Y+10, r23	; 0x0a
     f7a:	69 87       	std	Y+9, r22	; 0x09
     f7c:	89 85       	ldd	r24, Y+9	; 0x09
     f7e:	9a 85       	ldd	r25, Y+10	; 0x0a
     f80:	80 39       	cpi	r24, 0x90	; 144
     f82:	91 40       	sbci	r25, 0x01	; 1
     f84:	24 f4       	brge	.+8      	; 0xf8e <_ZNV22AnalogDigitalConverter32ConvertPT1000ADCvalToTemperatureEi+0x2e>
     f86:	80 e9       	ldi	r24, 0x90	; 144
     f88:	91 e0       	ldi	r25, 0x01	; 1
     f8a:	9a 87       	std	Y+10, r25	; 0x0a
     f8c:	89 87       	std	Y+9, r24	; 0x09
     f8e:	89 85       	ldd	r24, Y+9	; 0x09
     f90:	9a 85       	ldd	r25, Y+10	; 0x0a
     f92:	8f 33       	cpi	r24, 0x3F	; 63
     f94:	93 40       	sbci	r25, 0x03	; 3
     f96:	24 f0       	brlt	.+8      	; 0xfa0 <_ZNV22AnalogDigitalConverter32ConvertPT1000ADCvalToTemperatureEi+0x40>
     f98:	8e e3       	ldi	r24, 0x3E	; 62
     f9a:	93 e0       	ldi	r25, 0x03	; 3
     f9c:	9a 87       	std	Y+10, r25	; 0x0a
     f9e:	89 87       	std	Y+9, r24	; 0x09
     fa0:	89 85       	ldd	r24, Y+9	; 0x09
     fa2:	9a 85       	ldd	r25, Y+10	; 0x0a
     fa4:	80 59       	subi	r24, 0x90	; 144
     fa6:	91 40       	sbci	r25, 0x01	; 1
     fa8:	9a 83       	std	Y+2, r25	; 0x02
     faa:	89 83       	std	Y+1, r24	; 0x01
     fac:	89 81       	ldd	r24, Y+1	; 0x01
     fae:	9a 81       	ldd	r25, Y+2	; 0x02
     fb0:	88 0f       	add	r24, r24
     fb2:	99 1f       	adc	r25, r25
     fb4:	86 50       	subi	r24, 0x06	; 6
     fb6:	9b 4f       	sbci	r25, 0xFB	; 251
     fb8:	9c 83       	std	Y+4, r25	; 0x04
     fba:	8b 83       	std	Y+3, r24	; 0x03
     fbc:	8b 81       	ldd	r24, Y+3	; 0x03
     fbe:	9c 81       	ldd	r25, Y+4	; 0x04
     fc0:	fc 01       	movw	r30, r24
     fc2:	25 91       	lpm	r18, Z+
     fc4:	34 91       	lpm	r19, Z
     fc6:	cf 01       	movw	r24, r30
     fc8:	3e 83       	std	Y+6, r19	; 0x06
     fca:	2d 83       	std	Y+5, r18	; 0x05
     fcc:	9c 83       	std	Y+4, r25	; 0x04
     fce:	8b 83       	std	Y+3, r24	; 0x03
     fd0:	8d 81       	ldd	r24, Y+5	; 0x05
     fd2:	9e 81       	ldd	r25, Y+6	; 0x06
     fd4:	2a 96       	adiw	r28, 0x0a	; 10
     fd6:	0f b6       	in	r0, 0x3f	; 63
     fd8:	f8 94       	cli
     fda:	de bf       	out	0x3e, r29	; 62
     fdc:	0f be       	out	0x3f, r0	; 63
     fde:	cd bf       	out	0x3d, r28	; 61
     fe0:	df 91       	pop	r29
     fe2:	cf 91       	pop	r28
     fe4:	08 95       	ret

00000fe6 <_ZNV22AnalogDigitalConverter32ConvertPT2000ADCvalToTemperatureEi>:
     fe6:	cf 93       	push	r28
     fe8:	df 93       	push	r29
     fea:	cd b7       	in	r28, 0x3d	; 61
     fec:	de b7       	in	r29, 0x3e	; 62
     fee:	2a 97       	sbiw	r28, 0x0a	; 10
     ff0:	0f b6       	in	r0, 0x3f	; 63
     ff2:	f8 94       	cli
     ff4:	de bf       	out	0x3e, r29	; 62
     ff6:	0f be       	out	0x3f, r0	; 63
     ff8:	cd bf       	out	0x3d, r28	; 61
     ffa:	98 87       	std	Y+8, r25	; 0x08
     ffc:	8f 83       	std	Y+7, r24	; 0x07
     ffe:	7a 87       	std	Y+10, r23	; 0x0a
    1000:	69 87       	std	Y+9, r22	; 0x09
    1002:	89 85       	ldd	r24, Y+9	; 0x09
    1004:	9a 85       	ldd	r25, Y+10	; 0x0a
    1006:	88 35       	cpi	r24, 0x58	; 88
    1008:	92 40       	sbci	r25, 0x02	; 2
    100a:	24 f4       	brge	.+8      	; 0x1014 <_ZNV22AnalogDigitalConverter32ConvertPT2000ADCvalToTemperatureEi+0x2e>
    100c:	88 e5       	ldi	r24, 0x58	; 88
    100e:	92 e0       	ldi	r25, 0x02	; 2
    1010:	9a 87       	std	Y+10, r25	; 0x0a
    1012:	89 87       	std	Y+9, r24	; 0x09
    1014:	89 85       	ldd	r24, Y+9	; 0x09
    1016:	9a 85       	ldd	r25, Y+10	; 0x0a
    1018:	83 35       	cpi	r24, 0x53	; 83
    101a:	94 40       	sbci	r25, 0x04	; 4
    101c:	24 f0       	brlt	.+8      	; 0x1026 <_ZNV22AnalogDigitalConverter32ConvertPT2000ADCvalToTemperatureEi+0x40>
    101e:	82 e5       	ldi	r24, 0x52	; 82
    1020:	94 e0       	ldi	r25, 0x04	; 4
    1022:	9a 87       	std	Y+10, r25	; 0x0a
    1024:	89 87       	std	Y+9, r24	; 0x09
    1026:	89 85       	ldd	r24, Y+9	; 0x09
    1028:	9a 85       	ldd	r25, Y+10	; 0x0a
    102a:	88 55       	subi	r24, 0x58	; 88
    102c:	92 40       	sbci	r25, 0x02	; 2
    102e:	9a 83       	std	Y+2, r25	; 0x02
    1030:	89 83       	std	Y+1, r24	; 0x01
    1032:	89 81       	ldd	r24, Y+1	; 0x01
    1034:	9a 81       	ldd	r25, Y+2	; 0x02
    1036:	88 0f       	add	r24, r24
    1038:	99 1f       	adc	r25, r25
    103a:	8c 5f       	subi	r24, 0xFC	; 252
    103c:	9e 4f       	sbci	r25, 0xFE	; 254
    103e:	9c 83       	std	Y+4, r25	; 0x04
    1040:	8b 83       	std	Y+3, r24	; 0x03
    1042:	8b 81       	ldd	r24, Y+3	; 0x03
    1044:	9c 81       	ldd	r25, Y+4	; 0x04
    1046:	fc 01       	movw	r30, r24
    1048:	25 91       	lpm	r18, Z+
    104a:	34 91       	lpm	r19, Z
    104c:	cf 01       	movw	r24, r30
    104e:	3e 83       	std	Y+6, r19	; 0x06
    1050:	2d 83       	std	Y+5, r18	; 0x05
    1052:	9c 83       	std	Y+4, r25	; 0x04
    1054:	8b 83       	std	Y+3, r24	; 0x03
    1056:	8d 81       	ldd	r24, Y+5	; 0x05
    1058:	9e 81       	ldd	r25, Y+6	; 0x06
    105a:	2a 96       	adiw	r28, 0x0a	; 10
    105c:	0f b6       	in	r0, 0x3f	; 63
    105e:	f8 94       	cli
    1060:	de bf       	out	0x3e, r29	; 62
    1062:	0f be       	out	0x3f, r0	; 63
    1064:	cd bf       	out	0x3d, r28	; 61
    1066:	df 91       	pop	r29
    1068:	cf 91       	pop	r28
    106a:	08 95       	ret

0000106c <_ZNV22AnalogDigitalConverter9getconfigEh>:
    106c:	cf 93       	push	r28
    106e:	df 93       	push	r29
    1070:	00 d0       	rcall	.+0      	; 0x1072 <_ZNV22AnalogDigitalConverter9getconfigEh+0x6>
    1072:	1f 92       	push	r1
    1074:	cd b7       	in	r28, 0x3d	; 61
    1076:	de b7       	in	r29, 0x3e	; 62
    1078:	9b 83       	std	Y+3, r25	; 0x03
    107a:	8a 83       	std	Y+2, r24	; 0x02
    107c:	6c 83       	std	Y+4, r22	; 0x04
    107e:	8c 81       	ldd	r24, Y+4	; 0x04
    1080:	80 31       	cpi	r24, 0x10	; 16
    1082:	10 f0       	brcs	.+4      	; 0x1088 <_ZNV22AnalogDigitalConverter9getconfigEh+0x1c>
    1084:	80 e0       	ldi	r24, 0x00	; 0
    1086:	39 c0       	rjmp	.+114    	; 0x10fa <_ZNV22AnalogDigitalConverter9getconfigEh+0x8e>
    1088:	19 82       	std	Y+1, r1	; 0x01
    108a:	8c 81       	ldd	r24, Y+4	; 0x04
    108c:	88 2f       	mov	r24, r24
    108e:	90 e0       	ldi	r25, 0x00	; 0
    1090:	2a 81       	ldd	r18, Y+2	; 0x02
    1092:	3b 81       	ldd	r19, Y+3	; 0x03
    1094:	82 0f       	add	r24, r18
    1096:	93 1f       	adc	r25, r19
    1098:	80 56       	subi	r24, 0x60	; 96
    109a:	9e 4f       	sbci	r25, 0xFE	; 254
    109c:	fc 01       	movw	r30, r24
    109e:	80 81       	ld	r24, Z
    10a0:	88 23       	and	r24, r24
    10a2:	19 f0       	breq	.+6      	; 0x10aa <_ZNV22AnalogDigitalConverter9getconfigEh+0x3e>
    10a4:	89 81       	ldd	r24, Y+1	; 0x01
    10a6:	81 60       	ori	r24, 0x01	; 1
    10a8:	89 83       	std	Y+1, r24	; 0x01
    10aa:	8c 81       	ldd	r24, Y+4	; 0x04
    10ac:	88 2f       	mov	r24, r24
    10ae:	90 e0       	ldi	r25, 0x00	; 0
    10b0:	2a 81       	ldd	r18, Y+2	; 0x02
    10b2:	3b 81       	ldd	r19, Y+3	; 0x03
    10b4:	82 0f       	add	r24, r18
    10b6:	93 1f       	adc	r25, r19
    10b8:	80 57       	subi	r24, 0x70	; 112
    10ba:	9e 4f       	sbci	r25, 0xFE	; 254
    10bc:	fc 01       	movw	r30, r24
    10be:	80 81       	ld	r24, Z
    10c0:	88 23       	and	r24, r24
    10c2:	19 f0       	breq	.+6      	; 0x10ca <_ZNV22AnalogDigitalConverter9getconfigEh+0x5e>
    10c4:	89 81       	ldd	r24, Y+1	; 0x01
    10c6:	82 60       	ori	r24, 0x02	; 2
    10c8:	89 83       	std	Y+1, r24	; 0x01
    10ca:	8c 81       	ldd	r24, Y+4	; 0x04
    10cc:	88 2f       	mov	r24, r24
    10ce:	90 e0       	ldi	r25, 0x00	; 0
    10d0:	2a 81       	ldd	r18, Y+2	; 0x02
    10d2:	3b 81       	ldd	r19, Y+3	; 0x03
    10d4:	82 0f       	add	r24, r18
    10d6:	93 1f       	adc	r25, r19
    10d8:	80 58       	subi	r24, 0x80	; 128
    10da:	9e 4f       	sbci	r25, 0xFE	; 254
    10dc:	fc 01       	movw	r30, r24
    10de:	80 81       	ld	r24, Z
    10e0:	88 2f       	mov	r24, r24
    10e2:	90 e0       	ldi	r25, 0x00	; 0
    10e4:	88 0f       	add	r24, r24
    10e6:	99 1f       	adc	r25, r25
    10e8:	88 0f       	add	r24, r24
    10ea:	99 1f       	adc	r25, r25
    10ec:	29 81       	ldd	r18, Y+1	; 0x01
    10ee:	22 2f       	mov	r18, r18
    10f0:	30 e0       	ldi	r19, 0x00	; 0
    10f2:	82 2b       	or	r24, r18
    10f4:	93 2b       	or	r25, r19
    10f6:	89 83       	std	Y+1, r24	; 0x01
    10f8:	89 81       	ldd	r24, Y+1	; 0x01
    10fa:	0f 90       	pop	r0
    10fc:	0f 90       	pop	r0
    10fe:	0f 90       	pop	r0
    1100:	0f 90       	pop	r0
    1102:	df 91       	pop	r29
    1104:	cf 91       	pop	r28
    1106:	08 95       	ret

00001108 <_ZNV22AnalogDigitalConverter9setconfigEhh>:
    1108:	cf 93       	push	r28
    110a:	df 93       	push	r29
    110c:	00 d0       	rcall	.+0      	; 0x110e <_ZNV22AnalogDigitalConverter9setconfigEhh+0x6>
    110e:	1f 92       	push	r1
    1110:	cd b7       	in	r28, 0x3d	; 61
    1112:	de b7       	in	r29, 0x3e	; 62
    1114:	9a 83       	std	Y+2, r25	; 0x02
    1116:	89 83       	std	Y+1, r24	; 0x01
    1118:	6b 83       	std	Y+3, r22	; 0x03
    111a:	4c 83       	std	Y+4, r20	; 0x04
    111c:	8b 81       	ldd	r24, Y+3	; 0x03
    111e:	80 31       	cpi	r24, 0x10	; 16
    1120:	10 f0       	brcs	.+4      	; 0x1126 <_ZNV22AnalogDigitalConverter9setconfigEhh+0x1e>
    1122:	81 e0       	ldi	r24, 0x01	; 1
    1124:	54 c0       	rjmp	.+168    	; 0x11ce <_ZNV22AnalogDigitalConverter9setconfigEhh+0xc6>
    1126:	8c 81       	ldd	r24, Y+4	; 0x04
    1128:	88 2f       	mov	r24, r24
    112a:	90 e0       	ldi	r25, 0x00	; 0
    112c:	81 70       	andi	r24, 0x01	; 1
    112e:	99 27       	eor	r25, r25
    1130:	89 2b       	or	r24, r25
    1132:	69 f0       	breq	.+26     	; 0x114e <_ZNV22AnalogDigitalConverter9setconfigEhh+0x46>
    1134:	8b 81       	ldd	r24, Y+3	; 0x03
    1136:	88 2f       	mov	r24, r24
    1138:	90 e0       	ldi	r25, 0x00	; 0
    113a:	29 81       	ldd	r18, Y+1	; 0x01
    113c:	3a 81       	ldd	r19, Y+2	; 0x02
    113e:	82 0f       	add	r24, r18
    1140:	93 1f       	adc	r25, r19
    1142:	80 56       	subi	r24, 0x60	; 96
    1144:	9e 4f       	sbci	r25, 0xFE	; 254
    1146:	21 e0       	ldi	r18, 0x01	; 1
    1148:	fc 01       	movw	r30, r24
    114a:	20 83       	st	Z, r18
    114c:	0b c0       	rjmp	.+22     	; 0x1164 <_ZNV22AnalogDigitalConverter9setconfigEhh+0x5c>
    114e:	8b 81       	ldd	r24, Y+3	; 0x03
    1150:	88 2f       	mov	r24, r24
    1152:	90 e0       	ldi	r25, 0x00	; 0
    1154:	29 81       	ldd	r18, Y+1	; 0x01
    1156:	3a 81       	ldd	r19, Y+2	; 0x02
    1158:	82 0f       	add	r24, r18
    115a:	93 1f       	adc	r25, r19
    115c:	80 56       	subi	r24, 0x60	; 96
    115e:	9e 4f       	sbci	r25, 0xFE	; 254
    1160:	fc 01       	movw	r30, r24
    1162:	10 82       	st	Z, r1
    1164:	8c 81       	ldd	r24, Y+4	; 0x04
    1166:	88 2f       	mov	r24, r24
    1168:	90 e0       	ldi	r25, 0x00	; 0
    116a:	82 70       	andi	r24, 0x02	; 2
    116c:	99 27       	eor	r25, r25
    116e:	89 2b       	or	r24, r25
    1170:	69 f0       	breq	.+26     	; 0x118c <_ZNV22AnalogDigitalConverter9setconfigEhh+0x84>
    1172:	8b 81       	ldd	r24, Y+3	; 0x03
    1174:	88 2f       	mov	r24, r24
    1176:	90 e0       	ldi	r25, 0x00	; 0
    1178:	29 81       	ldd	r18, Y+1	; 0x01
    117a:	3a 81       	ldd	r19, Y+2	; 0x02
    117c:	82 0f       	add	r24, r18
    117e:	93 1f       	adc	r25, r19
    1180:	80 57       	subi	r24, 0x70	; 112
    1182:	9e 4f       	sbci	r25, 0xFE	; 254
    1184:	21 e0       	ldi	r18, 0x01	; 1
    1186:	fc 01       	movw	r30, r24
    1188:	20 83       	st	Z, r18
    118a:	0b c0       	rjmp	.+22     	; 0x11a2 <_ZNV22AnalogDigitalConverter9setconfigEhh+0x9a>
    118c:	8b 81       	ldd	r24, Y+3	; 0x03
    118e:	88 2f       	mov	r24, r24
    1190:	90 e0       	ldi	r25, 0x00	; 0
    1192:	29 81       	ldd	r18, Y+1	; 0x01
    1194:	3a 81       	ldd	r19, Y+2	; 0x02
    1196:	82 0f       	add	r24, r18
    1198:	93 1f       	adc	r25, r19
    119a:	80 57       	subi	r24, 0x70	; 112
    119c:	9e 4f       	sbci	r25, 0xFE	; 254
    119e:	fc 01       	movw	r30, r24
    11a0:	10 82       	st	Z, r1
    11a2:	8b 81       	ldd	r24, Y+3	; 0x03
    11a4:	88 2f       	mov	r24, r24
    11a6:	90 e0       	ldi	r25, 0x00	; 0
    11a8:	2c 81       	ldd	r18, Y+4	; 0x04
    11aa:	22 2f       	mov	r18, r18
    11ac:	30 e0       	ldi	r19, 0x00	; 0
    11ae:	2c 70       	andi	r18, 0x0C	; 12
    11b0:	33 27       	eor	r19, r19
    11b2:	35 95       	asr	r19
    11b4:	27 95       	ror	r18
    11b6:	35 95       	asr	r19
    11b8:	27 95       	ror	r18
    11ba:	42 2f       	mov	r20, r18
    11bc:	29 81       	ldd	r18, Y+1	; 0x01
    11be:	3a 81       	ldd	r19, Y+2	; 0x02
    11c0:	82 0f       	add	r24, r18
    11c2:	93 1f       	adc	r25, r19
    11c4:	80 58       	subi	r24, 0x80	; 128
    11c6:	9e 4f       	sbci	r25, 0xFE	; 254
    11c8:	fc 01       	movw	r30, r24
    11ca:	40 83       	st	Z, r20
    11cc:	80 e0       	ldi	r24, 0x00	; 0
    11ce:	0f 90       	pop	r0
    11d0:	0f 90       	pop	r0
    11d2:	0f 90       	pop	r0
    11d4:	0f 90       	pop	r0
    11d6:	df 91       	pop	r29
    11d8:	cf 91       	pop	r28
    11da:	08 95       	ret

000011dc <__vector_18>:
    11dc:	1f 92       	push	r1
    11de:	0f 92       	push	r0
    11e0:	00 90 5f 00 	lds	r0, 0x005F	; 0x80005f <__TEXT_REGION_LENGTH__+0x70005f>
    11e4:	0f 92       	push	r0
    11e6:	11 24       	eor	r1, r1
    11e8:	cf 93       	push	r28
    11ea:	df 93       	push	r29
    11ec:	cd b7       	in	r28, 0x3d	; 61
    11ee:	de b7       	in	r29, 0x3e	; 62
    11f0:	00 00       	nop
    11f2:	df 91       	pop	r29
    11f4:	cf 91       	pop	r28
    11f6:	0f 90       	pop	r0
    11f8:	00 92 5f 00 	sts	0x005F, r0	; 0x80005f <__TEXT_REGION_LENGTH__+0x70005f>
    11fc:	0f 90       	pop	r0
    11fe:	1f 90       	pop	r1
    1200:	18 95       	reti

00001202 <_Z19cmdHandler_resetMCUv>:
    1202:	cf 93       	push	r28
    1204:	df 93       	push	r29
    1206:	cd b7       	in	r28, 0x3d	; 61
    1208:	de b7       	in	r29, 0x3e	; 62
    120a:	80 e0       	ldi	r24, 0x00	; 0
    120c:	90 e0       	ldi	r25, 0x00	; 0
    120e:	88 70       	andi	r24, 0x08	; 8
    1210:	99 27       	eor	r25, r25
    1212:	89 2b       	or	r24, r25
    1214:	11 f0       	breq	.+4      	; 0x121a <_Z19cmdHandler_resetMCUv+0x18>
    1216:	88 e2       	ldi	r24, 0x28	; 40
    1218:	01 c0       	rjmp	.+2      	; 0x121c <_Z19cmdHandler_resetMCUv+0x1a>
    121a:	88 e0       	ldi	r24, 0x08	; 8
    121c:	90 e0       	ldi	r25, 0x00	; 0
    121e:	97 70       	andi	r25, 0x07	; 7
    1220:	89 2b       	or	r24, r25
    1222:	98 2f       	mov	r25, r24
    1224:	88 e1       	ldi	r24, 0x18	; 24
    1226:	0f b6       	in	r0, 0x3f	; 63
    1228:	f8 94       	cli
    122a:	a8 95       	wdr
    122c:	80 93 60 00 	sts	0x0060, r24	; 0x800060 <__TEXT_REGION_LENGTH__+0x700060>
    1230:	0f be       	out	0x3f, r0	; 63
    1232:	90 93 60 00 	sts	0x0060, r25	; 0x800060 <__TEXT_REGION_LENGTH__+0x700060>
    1236:	df 91       	pop	r29
    1238:	cf 91       	pop	r28
    123a:	08 95       	ret

0000123c <_Z18cmdHandler_freeMemv>:
    123c:	cf 93       	push	r28
    123e:	df 93       	push	r29
    1240:	00 d0       	rcall	.+0      	; 0x1242 <_Z18cmdHandler_freeMemv+0x6>
    1242:	00 d0       	rcall	.+0      	; 0x1244 <_Z18cmdHandler_freeMemv+0x8>
    1244:	cd b7       	in	r28, 0x3d	; 61
    1246:	de b7       	in	r29, 0x3e	; 62
    1248:	83 ef       	ldi	r24, 0xF3	; 243
    124a:	89 83       	std	Y+1, r24	; 0x01
    124c:	0e 94 57 15 	call	0x2aae	; 0x2aae <_Z7freeRamv>
    1250:	9c 01       	movw	r18, r24
    1252:	ce 01       	movw	r24, r28
    1254:	02 96       	adiw	r24, 0x02	; 2
    1256:	bc 01       	movw	r22, r24
    1258:	c9 01       	movw	r24, r18
    125a:	4a d2       	rcall	.+1172   	; 0x16f0 <_Z10plotNumberiPh>
    125c:	82 e1       	ldi	r24, 0x12	; 18
    125e:	8e 83       	std	Y+6, r24	; 0x06
    1260:	66 e0       	ldi	r22, 0x06	; 6
    1262:	ce 01       	movw	r24, r28
    1264:	01 96       	adiw	r24, 0x01	; 1
    1266:	0e 94 bc 17 	call	0x2f78	; 0x2f78 <_Z11serial_out0Phh>
    126a:	26 96       	adiw	r28, 0x06	; 6
    126c:	0f b6       	in	r0, 0x3f	; 63
    126e:	f8 94       	cli
    1270:	de bf       	out	0x3e, r29	; 62
    1272:	0f be       	out	0x3f, r0	; 63
    1274:	cd bf       	out	0x3d, r28	; 61
    1276:	df 91       	pop	r29
    1278:	cf 91       	pop	r28
    127a:	08 95       	ret

0000127c <_Z23cmdHandler_get_value_ioh>:
    127c:	cf 93       	push	r28
    127e:	df 93       	push	r29
    1280:	00 d0       	rcall	.+0      	; 0x1282 <_Z23cmdHandler_get_value_ioh+0x6>
    1282:	1f 92       	push	r1
    1284:	1f 92       	push	r1
    1286:	cd b7       	in	r28, 0x3d	; 61
    1288:	de b7       	in	r29, 0x3e	; 62
    128a:	8d 83       	std	Y+5, r24	; 0x05
    128c:	8d 81       	ldd	r24, Y+5	; 0x05
    128e:	88 32       	cpi	r24, 0x28	; 40
    1290:	d8 f4       	brcc	.+54     	; 0x12c8 <_Z23cmdHandler_get_value_ioh+0x4c>
    1292:	8d 81       	ldd	r24, Y+5	; 0x05
    1294:	8d 5a       	subi	r24, 0xAD	; 173
    1296:	89 83       	std	Y+1, r24	; 0x01
    1298:	8d 81       	ldd	r24, Y+5	; 0x05
    129a:	88 2f       	mov	r24, r24
    129c:	90 e0       	ldi	r25, 0x00	; 0
    129e:	88 0f       	add	r24, r24
    12a0:	99 1f       	adc	r25, r25
    12a2:	87 52       	subi	r24, 0x27	; 39
    12a4:	9c 4f       	sbci	r25, 0xFC	; 252
    12a6:	fc 01       	movw	r30, r24
    12a8:	80 81       	ld	r24, Z
    12aa:	91 81       	ldd	r25, Z+1	; 0x01
    12ac:	3b d4       	rcall	.+2166   	; 0x1b24 <_ZNV6io_pin3getEv>
    12ae:	28 2f       	mov	r18, r24
    12b0:	ce 01       	movw	r24, r28
    12b2:	02 96       	adiw	r24, 0x02	; 2
    12b4:	bc 01       	movw	r22, r24
    12b6:	82 2f       	mov	r24, r18
    12b8:	f5 d1       	rcall	.+1002   	; 0x16a4 <_Z10plotNumberhPh>
    12ba:	82 e1       	ldi	r24, 0x12	; 18
    12bc:	8c 83       	std	Y+4, r24	; 0x04
    12be:	64 e0       	ldi	r22, 0x04	; 4
    12c0:	ce 01       	movw	r24, r28
    12c2:	01 96       	adiw	r24, 0x01	; 1
    12c4:	0e 94 bc 17 	call	0x2f78	; 0x2f78 <_Z11serial_out0Phh>
    12c8:	0f 90       	pop	r0
    12ca:	0f 90       	pop	r0
    12cc:	0f 90       	pop	r0
    12ce:	0f 90       	pop	r0
    12d0:	0f 90       	pop	r0
    12d2:	df 91       	pop	r29
    12d4:	cf 91       	pop	r28
    12d6:	08 95       	ret

000012d8 <_Z24cmdHandler_get_value_adch>:
    12d8:	cf 93       	push	r28
    12da:	df 93       	push	r29
    12dc:	cd b7       	in	r28, 0x3d	; 61
    12de:	de b7       	in	r29, 0x3e	; 62
    12e0:	27 97       	sbiw	r28, 0x07	; 7
    12e2:	0f b6       	in	r0, 0x3f	; 63
    12e4:	f8 94       	cli
    12e6:	de bf       	out	0x3e, r29	; 62
    12e8:	0f be       	out	0x3f, r0	; 63
    12ea:	cd bf       	out	0x3d, r28	; 61
    12ec:	8f 83       	std	Y+7, r24	; 0x07
    12ee:	8f 81       	ldd	r24, Y+7	; 0x07
    12f0:	80 31       	cpi	r24, 0x10	; 16
    12f2:	a0 f4       	brcc	.+40     	; 0x131c <_Z24cmdHandler_get_value_adch+0x44>
    12f4:	8f 81       	ldd	r24, Y+7	; 0x07
    12f6:	8d 5e       	subi	r24, 0xED	; 237
    12f8:	89 83       	std	Y+1, r24	; 0x01
    12fa:	6f 81       	ldd	r22, Y+7	; 0x07
    12fc:	86 e0       	ldi	r24, 0x06	; 6
    12fe:	92 e0       	ldi	r25, 0x02	; 2
    1300:	0d de       	rcall	.-998    	; 0xf1c <_ZNV22AnalogDigitalConverter9getoutputEh>
    1302:	9c 01       	movw	r18, r24
    1304:	ce 01       	movw	r24, r28
    1306:	02 96       	adiw	r24, 0x02	; 2
    1308:	bc 01       	movw	r22, r24
    130a:	c9 01       	movw	r24, r18
    130c:	f1 d1       	rcall	.+994    	; 0x16f0 <_Z10plotNumberiPh>
    130e:	82 e1       	ldi	r24, 0x12	; 18
    1310:	8e 83       	std	Y+6, r24	; 0x06
    1312:	66 e0       	ldi	r22, 0x06	; 6
    1314:	ce 01       	movw	r24, r28
    1316:	01 96       	adiw	r24, 0x01	; 1
    1318:	0e 94 bc 17 	call	0x2f78	; 0x2f78 <_Z11serial_out0Phh>
    131c:	27 96       	adiw	r28, 0x07	; 7
    131e:	0f b6       	in	r0, 0x3f	; 63
    1320:	f8 94       	cli
    1322:	de bf       	out	0x3e, r29	; 62
    1324:	0f be       	out	0x3f, r0	; 63
    1326:	cd bf       	out	0x3d, r28	; 61
    1328:	df 91       	pop	r29
    132a:	cf 91       	pop	r28
    132c:	08 95       	ret

0000132e <_Z24cmdHandler_get_config_ioh>:
    132e:	cf 93       	push	r28
    1330:	df 93       	push	r29
    1332:	00 d0       	rcall	.+0      	; 0x1334 <_Z24cmdHandler_get_config_ioh+0x6>
    1334:	1f 92       	push	r1
    1336:	1f 92       	push	r1
    1338:	cd b7       	in	r28, 0x3d	; 61
    133a:	de b7       	in	r29, 0x3e	; 62
    133c:	8d 83       	std	Y+5, r24	; 0x05
    133e:	8d 81       	ldd	r24, Y+5	; 0x05
    1340:	88 32       	cpi	r24, 0x28	; 40
    1342:	d8 f4       	brcc	.+54     	; 0x137a <_Z24cmdHandler_get_config_ioh+0x4c>
    1344:	8d 81       	ldd	r24, Y+5	; 0x05
    1346:	8d 55       	subi	r24, 0x5D	; 93
    1348:	89 83       	std	Y+1, r24	; 0x01
    134a:	8d 81       	ldd	r24, Y+5	; 0x05
    134c:	88 2f       	mov	r24, r24
    134e:	90 e0       	ldi	r25, 0x00	; 0
    1350:	88 0f       	add	r24, r24
    1352:	99 1f       	adc	r25, r25
    1354:	87 52       	subi	r24, 0x27	; 39
    1356:	9c 4f       	sbci	r25, 0xFC	; 252
    1358:	fc 01       	movw	r30, r24
    135a:	80 81       	ld	r24, Z
    135c:	91 81       	ldd	r25, Z+1	; 0x01
    135e:	ed d6       	rcall	.+3546   	; 0x213a <_ZNV6io_pin9getconfigEv>
    1360:	28 2f       	mov	r18, r24
    1362:	ce 01       	movw	r24, r28
    1364:	02 96       	adiw	r24, 0x02	; 2
    1366:	bc 01       	movw	r22, r24
    1368:	82 2f       	mov	r24, r18
    136a:	9c d1       	rcall	.+824    	; 0x16a4 <_Z10plotNumberhPh>
    136c:	82 e1       	ldi	r24, 0x12	; 18
    136e:	8c 83       	std	Y+4, r24	; 0x04
    1370:	64 e0       	ldi	r22, 0x04	; 4
    1372:	ce 01       	movw	r24, r28
    1374:	01 96       	adiw	r24, 0x01	; 1
    1376:	0e 94 bc 17 	call	0x2f78	; 0x2f78 <_Z11serial_out0Phh>
    137a:	0f 90       	pop	r0
    137c:	0f 90       	pop	r0
    137e:	0f 90       	pop	r0
    1380:	0f 90       	pop	r0
    1382:	0f 90       	pop	r0
    1384:	df 91       	pop	r29
    1386:	cf 91       	pop	r28
    1388:	08 95       	ret

0000138a <_Z25cmdHandler_get_config_adch>:
    138a:	cf 93       	push	r28
    138c:	df 93       	push	r29
    138e:	00 d0       	rcall	.+0      	; 0x1390 <_Z25cmdHandler_get_config_adch+0x6>
    1390:	1f 92       	push	r1
    1392:	1f 92       	push	r1
    1394:	cd b7       	in	r28, 0x3d	; 61
    1396:	de b7       	in	r29, 0x3e	; 62
    1398:	8d 83       	std	Y+5, r24	; 0x05
    139a:	8d 81       	ldd	r24, Y+5	; 0x05
    139c:	80 31       	cpi	r24, 0x10	; 16
    139e:	a0 f4       	brcc	.+40     	; 0x13c8 <_Z25cmdHandler_get_config_adch+0x3e>
    13a0:	8d 81       	ldd	r24, Y+5	; 0x05
    13a2:	8d 5c       	subi	r24, 0xCD	; 205
    13a4:	89 83       	std	Y+1, r24	; 0x01
    13a6:	6d 81       	ldd	r22, Y+5	; 0x05
    13a8:	86 e0       	ldi	r24, 0x06	; 6
    13aa:	92 e0       	ldi	r25, 0x02	; 2
    13ac:	5f de       	rcall	.-834    	; 0x106c <_ZNV22AnalogDigitalConverter9getconfigEh>
    13ae:	28 2f       	mov	r18, r24
    13b0:	ce 01       	movw	r24, r28
    13b2:	02 96       	adiw	r24, 0x02	; 2
    13b4:	bc 01       	movw	r22, r24
    13b6:	82 2f       	mov	r24, r18
    13b8:	75 d1       	rcall	.+746    	; 0x16a4 <_Z10plotNumberhPh>
    13ba:	82 e1       	ldi	r24, 0x12	; 18
    13bc:	8c 83       	std	Y+4, r24	; 0x04
    13be:	64 e0       	ldi	r22, 0x04	; 4
    13c0:	ce 01       	movw	r24, r28
    13c2:	01 96       	adiw	r24, 0x01	; 1
    13c4:	0e 94 bc 17 	call	0x2f78	; 0x2f78 <_Z11serial_out0Phh>
    13c8:	0f 90       	pop	r0
    13ca:	0f 90       	pop	r0
    13cc:	0f 90       	pop	r0
    13ce:	0f 90       	pop	r0
    13d0:	0f 90       	pop	r0
    13d2:	df 91       	pop	r29
    13d4:	cf 91       	pop	r28
    13d6:	08 95       	ret

000013d8 <_Z23cmdHandler_set_value_iohh>:
    13d8:	cf 93       	push	r28
    13da:	df 93       	push	r29
    13dc:	1f 92       	push	r1
    13de:	1f 92       	push	r1
    13e0:	cd b7       	in	r28, 0x3d	; 61
    13e2:	de b7       	in	r29, 0x3e	; 62
    13e4:	89 83       	std	Y+1, r24	; 0x01
    13e6:	6a 83       	std	Y+2, r22	; 0x02
    13e8:	89 81       	ldd	r24, Y+1	; 0x01
    13ea:	88 32       	cpi	r24, 0x28	; 40
    13ec:	70 f4       	brcc	.+28     	; 0x140a <_Z23cmdHandler_set_value_iohh+0x32>
    13ee:	89 81       	ldd	r24, Y+1	; 0x01
    13f0:	88 2f       	mov	r24, r24
    13f2:	90 e0       	ldi	r25, 0x00	; 0
    13f4:	88 0f       	add	r24, r24
    13f6:	99 1f       	adc	r25, r25
    13f8:	87 52       	subi	r24, 0x27	; 39
    13fa:	9c 4f       	sbci	r25, 0xFC	; 252
    13fc:	fc 01       	movw	r30, r24
    13fe:	80 81       	ld	r24, Z
    1400:	91 81       	ldd	r25, Z+1	; 0x01
    1402:	6a 81       	ldd	r22, Y+2	; 0x02
    1404:	45 d4       	rcall	.+2186   	; 0x1c90 <_ZNV6io_pin3setEh>
    1406:	89 81       	ldd	r24, Y+1	; 0x01
    1408:	39 df       	rcall	.-398    	; 0x127c <_Z23cmdHandler_get_value_ioh>
    140a:	0f 90       	pop	r0
    140c:	0f 90       	pop	r0
    140e:	df 91       	pop	r29
    1410:	cf 91       	pop	r28
    1412:	08 95       	ret

00001414 <_Z24cmdHandler_set_config_iohh>:
    1414:	cf 93       	push	r28
    1416:	df 93       	push	r29
    1418:	1f 92       	push	r1
    141a:	1f 92       	push	r1
    141c:	cd b7       	in	r28, 0x3d	; 61
    141e:	de b7       	in	r29, 0x3e	; 62
    1420:	89 83       	std	Y+1, r24	; 0x01
    1422:	6a 83       	std	Y+2, r22	; 0x02
    1424:	89 81       	ldd	r24, Y+1	; 0x01
    1426:	88 32       	cpi	r24, 0x28	; 40
    1428:	70 f4       	brcc	.+28     	; 0x1446 <_Z24cmdHandler_set_config_iohh+0x32>
    142a:	89 81       	ldd	r24, Y+1	; 0x01
    142c:	88 2f       	mov	r24, r24
    142e:	90 e0       	ldi	r25, 0x00	; 0
    1430:	88 0f       	add	r24, r24
    1432:	99 1f       	adc	r25, r25
    1434:	87 52       	subi	r24, 0x27	; 39
    1436:	9c 4f       	sbci	r25, 0xFC	; 252
    1438:	fc 01       	movw	r30, r24
    143a:	80 81       	ld	r24, Z
    143c:	91 81       	ldd	r25, Z+1	; 0x01
    143e:	6a 81       	ldd	r22, Y+2	; 0x02
    1440:	d7 d4       	rcall	.+2478   	; 0x1df0 <_ZNV6io_pin9setconfigEh>
    1442:	89 81       	ldd	r24, Y+1	; 0x01
    1444:	74 df       	rcall	.-280    	; 0x132e <_Z24cmdHandler_get_config_ioh>
    1446:	0f 90       	pop	r0
    1448:	0f 90       	pop	r0
    144a:	df 91       	pop	r29
    144c:	cf 91       	pop	r28
    144e:	08 95       	ret

00001450 <_Z25cmdHandler_set_config_adchh>:
    1450:	cf 93       	push	r28
    1452:	df 93       	push	r29
    1454:	1f 92       	push	r1
    1456:	1f 92       	push	r1
    1458:	cd b7       	in	r28, 0x3d	; 61
    145a:	de b7       	in	r29, 0x3e	; 62
    145c:	89 83       	std	Y+1, r24	; 0x01
    145e:	6a 83       	std	Y+2, r22	; 0x02
    1460:	89 81       	ldd	r24, Y+1	; 0x01
    1462:	80 31       	cpi	r24, 0x10	; 16
    1464:	38 f4       	brcc	.+14     	; 0x1474 <_Z25cmdHandler_set_config_adchh+0x24>
    1466:	4a 81       	ldd	r20, Y+2	; 0x02
    1468:	69 81       	ldd	r22, Y+1	; 0x01
    146a:	86 e0       	ldi	r24, 0x06	; 6
    146c:	92 e0       	ldi	r25, 0x02	; 2
    146e:	4c de       	rcall	.-872    	; 0x1108 <_ZNV22AnalogDigitalConverter9setconfigEhh>
    1470:	89 81       	ldd	r24, Y+1	; 0x01
    1472:	8b df       	rcall	.-234    	; 0x138a <_Z25cmdHandler_get_config_adch>
    1474:	0f 90       	pop	r0
    1476:	0f 90       	pop	r0
    1478:	df 91       	pop	r29
    147a:	cf 91       	pop	r28
    147c:	08 95       	ret

0000147e <_ZN9cmdParserC1Ev>:
    147e:	cf 93       	push	r28
    1480:	df 93       	push	r29
    1482:	1f 92       	push	r1
    1484:	1f 92       	push	r1
    1486:	cd b7       	in	r28, 0x3d	; 61
    1488:	de b7       	in	r29, 0x3e	; 62
    148a:	9a 83       	std	Y+2, r25	; 0x02
    148c:	89 83       	std	Y+1, r24	; 0x01
    148e:	89 81       	ldd	r24, Y+1	; 0x01
    1490:	9a 81       	ldd	r25, Y+2	; 0x02
    1492:	fc 01       	movw	r30, r24
    1494:	10 82       	st	Z, r1
    1496:	89 81       	ldd	r24, Y+1	; 0x01
    1498:	9a 81       	ldd	r25, Y+2	; 0x02
    149a:	fc 01       	movw	r30, r24
    149c:	11 82       	std	Z+1, r1	; 0x01
    149e:	0f 90       	pop	r0
    14a0:	0f 90       	pop	r0
    14a2:	df 91       	pop	r29
    14a4:	cf 91       	pop	r28
    14a6:	08 95       	ret

000014a8 <_ZNV9cmdParser11checkparserEv>:
    14a8:	cf 93       	push	r28
    14aa:	df 93       	push	r29
    14ac:	1f 92       	push	r1
    14ae:	1f 92       	push	r1
    14b0:	cd b7       	in	r28, 0x3d	; 61
    14b2:	de b7       	in	r29, 0x3e	; 62
    14b4:	9a 83       	std	Y+2, r25	; 0x02
    14b6:	89 83       	std	Y+1, r24	; 0x01
    14b8:	89 81       	ldd	r24, Y+1	; 0x01
    14ba:	9a 81       	ldd	r25, Y+2	; 0x02
    14bc:	fc 01       	movw	r30, r24
    14be:	91 81       	ldd	r25, Z+1	; 0x01
    14c0:	81 e0       	ldi	r24, 0x01	; 1
    14c2:	99 23       	and	r25, r25
    14c4:	09 f4       	brne	.+2      	; 0x14c8 <_ZNV9cmdParser11checkparserEv+0x20>
    14c6:	80 e0       	ldi	r24, 0x00	; 0
    14c8:	88 23       	and	r24, r24
    14ca:	19 f0       	breq	.+6      	; 0x14d2 <_ZNV9cmdParser11checkparserEv+0x2a>
    14cc:	89 81       	ldd	r24, Y+1	; 0x01
    14ce:	9a 81       	ldd	r25, Y+2	; 0x02
    14d0:	05 d0       	rcall	.+10     	; 0x14dc <_ZNV9cmdParser8parseOneEv>
    14d2:	0f 90       	pop	r0
    14d4:	0f 90       	pop	r0
    14d6:	df 91       	pop	r29
    14d8:	cf 91       	pop	r28
    14da:	08 95       	ret

000014dc <_ZNV9cmdParser8parseOneEv>:
    14dc:	cf 93       	push	r28
    14de:	df 93       	push	r29
    14e0:	00 d0       	rcall	.+0      	; 0x14e2 <_ZNV9cmdParser8parseOneEv+0x6>
    14e2:	1f 92       	push	r1
    14e4:	cd b7       	in	r28, 0x3d	; 61
    14e6:	de b7       	in	r29, 0x3e	; 62
    14e8:	9c 83       	std	Y+4, r25	; 0x04
    14ea:	8b 83       	std	Y+3, r24	; 0x03
    14ec:	8b 81       	ldd	r24, Y+3	; 0x03
    14ee:	9c 81       	ldd	r25, Y+4	; 0x04
    14f0:	fc 01       	movw	r30, r24
    14f2:	80 81       	ld	r24, Z
    14f4:	88 2f       	mov	r24, r24
    14f6:	90 e0       	ldi	r25, 0x00	; 0
    14f8:	87 5d       	subi	r24, 0xD7	; 215
    14fa:	9b 4f       	sbci	r25, 0xFB	; 251
    14fc:	fc 01       	movw	r30, r24
    14fe:	80 81       	ld	r24, Z
    1500:	89 83       	std	Y+1, r24	; 0x01
    1502:	8b 81       	ldd	r24, Y+3	; 0x03
    1504:	9c 81       	ldd	r25, Y+4	; 0x04
    1506:	fc 01       	movw	r30, r24
    1508:	80 81       	ld	r24, Z
    150a:	21 e0       	ldi	r18, 0x01	; 1
    150c:	28 0f       	add	r18, r24
    150e:	8b 81       	ldd	r24, Y+3	; 0x03
    1510:	9c 81       	ldd	r25, Y+4	; 0x04
    1512:	fc 01       	movw	r30, r24
    1514:	20 83       	st	Z, r18
    1516:	89 81       	ldd	r24, Y+1	; 0x01
    1518:	83 31       	cpi	r24, 0x13	; 19
    151a:	08 f4       	brcc	.+2      	; 0x151e <_ZNV9cmdParser8parseOneEv+0x42>
    151c:	4e c0       	rjmp	.+156    	; 0x15ba <_ZNV9cmdParser8parseOneEv+0xde>
    151e:	8b 81       	ldd	r24, Y+3	; 0x03
    1520:	9c 81       	ldd	r25, Y+4	; 0x04
    1522:	73 d0       	rcall	.+230    	; 0x160a <_ZNV9cmdParser16parseUint8NumberEv>
    1524:	8a 83       	std	Y+2, r24	; 0x02
    1526:	8b 81       	ldd	r24, Y+3	; 0x03
    1528:	9c 81       	ldd	r25, Y+4	; 0x04
    152a:	fc 01       	movw	r30, r24
    152c:	80 81       	ld	r24, Z
    152e:	21 e0       	ldi	r18, 0x01	; 1
    1530:	28 0f       	add	r18, r24
    1532:	8b 81       	ldd	r24, Y+3	; 0x03
    1534:	9c 81       	ldd	r25, Y+4	; 0x04
    1536:	fc 01       	movw	r30, r24
    1538:	20 83       	st	Z, r18
    153a:	89 81       	ldd	r24, Y+1	; 0x01
    153c:	83 35       	cpi	r24, 0x53	; 83
    153e:	b8 f4       	brcc	.+46     	; 0x156e <_ZNV9cmdParser8parseOneEv+0x92>
    1540:	89 81       	ldd	r24, Y+1	; 0x01
    1542:	83 33       	cpi	r24, 0x33	; 51
    1544:	40 f4       	brcc	.+16     	; 0x1556 <_ZNV9cmdParser8parseOneEv+0x7a>
    1546:	89 81       	ldd	r24, Y+1	; 0x01
    1548:	83 32       	cpi	r24, 0x23	; 35
    154a:	08 f4       	brcc	.+2      	; 0x154e <_ZNV9cmdParser8parseOneEv+0x72>
    154c:	36 c0       	rjmp	.+108    	; 0x15ba <_ZNV9cmdParser8parseOneEv+0xde>
    154e:	89 81       	ldd	r24, Y+1	; 0x01
    1550:	83 52       	subi	r24, 0x23	; 35
    1552:	c2 de       	rcall	.-636    	; 0x12d8 <_Z24cmdHandler_get_value_adch>
    1554:	32 c0       	rjmp	.+100    	; 0x15ba <_ZNV9cmdParser8parseOneEv+0xde>
    1556:	89 81       	ldd	r24, Y+1	; 0x01
    1558:	83 34       	cpi	r24, 0x43	; 67
    155a:	28 f4       	brcc	.+10     	; 0x1566 <_ZNV9cmdParser8parseOneEv+0x8a>
    155c:	89 81       	ldd	r24, Y+1	; 0x01
    155e:	83 53       	subi	r24, 0x33	; 51
    1560:	6a 81       	ldd	r22, Y+2	; 0x02
    1562:	76 df       	rcall	.-276    	; 0x1450 <_Z25cmdHandler_set_config_adchh>
    1564:	2a c0       	rjmp	.+84     	; 0x15ba <_ZNV9cmdParser8parseOneEv+0xde>
    1566:	89 81       	ldd	r24, Y+1	; 0x01
    1568:	83 54       	subi	r24, 0x43	; 67
    156a:	0f df       	rcall	.-482    	; 0x138a <_Z25cmdHandler_get_config_adch>
    156c:	26 c0       	rjmp	.+76     	; 0x15ba <_ZNV9cmdParser8parseOneEv+0xde>
    156e:	89 81       	ldd	r24, Y+1	; 0x01
    1570:	83 3a       	cpi	r24, 0xA3	; 163
    1572:	60 f4       	brcc	.+24     	; 0x158c <_ZNV9cmdParser8parseOneEv+0xb0>
    1574:	89 81       	ldd	r24, Y+1	; 0x01
    1576:	8b 37       	cpi	r24, 0x7B	; 123
    1578:	28 f4       	brcc	.+10     	; 0x1584 <_ZNV9cmdParser8parseOneEv+0xa8>
    157a:	89 81       	ldd	r24, Y+1	; 0x01
    157c:	83 55       	subi	r24, 0x53	; 83
    157e:	6a 81       	ldd	r22, Y+2	; 0x02
    1580:	2b df       	rcall	.-426    	; 0x13d8 <_Z23cmdHandler_set_value_iohh>
    1582:	1b c0       	rjmp	.+54     	; 0x15ba <_ZNV9cmdParser8parseOneEv+0xde>
    1584:	89 81       	ldd	r24, Y+1	; 0x01
    1586:	8b 57       	subi	r24, 0x7B	; 123
    1588:	79 de       	rcall	.-782    	; 0x127c <_Z23cmdHandler_get_value_ioh>
    158a:	17 c0       	rjmp	.+46     	; 0x15ba <_ZNV9cmdParser8parseOneEv+0xde>
    158c:	89 81       	ldd	r24, Y+1	; 0x01
    158e:	8b 3c       	cpi	r24, 0xCB	; 203
    1590:	28 f4       	brcc	.+10     	; 0x159c <_ZNV9cmdParser8parseOneEv+0xc0>
    1592:	89 81       	ldd	r24, Y+1	; 0x01
    1594:	83 5a       	subi	r24, 0xA3	; 163
    1596:	6a 81       	ldd	r22, Y+2	; 0x02
    1598:	3d df       	rcall	.-390    	; 0x1414 <_Z24cmdHandler_set_config_iohh>
    159a:	0f c0       	rjmp	.+30     	; 0x15ba <_ZNV9cmdParser8parseOneEv+0xde>
    159c:	89 81       	ldd	r24, Y+1	; 0x01
    159e:	83 3f       	cpi	r24, 0xF3	; 243
    15a0:	20 f4       	brcc	.+8      	; 0x15aa <_ZNV9cmdParser8parseOneEv+0xce>
    15a2:	89 81       	ldd	r24, Y+1	; 0x01
    15a4:	8b 5c       	subi	r24, 0xCB	; 203
    15a6:	c3 de       	rcall	.-634    	; 0x132e <_Z24cmdHandler_get_config_ioh>
    15a8:	08 c0       	rjmp	.+16     	; 0x15ba <_ZNV9cmdParser8parseOneEv+0xde>
    15aa:	89 81       	ldd	r24, Y+1	; 0x01
    15ac:	83 3f       	cpi	r24, 0xF3	; 243
    15ae:	09 f4       	brne	.+2      	; 0x15b2 <_ZNV9cmdParser8parseOneEv+0xd6>
    15b0:	45 de       	rcall	.-886    	; 0x123c <_Z18cmdHandler_freeMemv>
    15b2:	89 81       	ldd	r24, Y+1	; 0x01
    15b4:	87 3f       	cpi	r24, 0xF7	; 247
    15b6:	09 f4       	brne	.+2      	; 0x15ba <_ZNV9cmdParser8parseOneEv+0xde>
    15b8:	24 de       	rcall	.-952    	; 0x1202 <_Z19cmdHandler_resetMCUv>
    15ba:	8b 81       	ldd	r24, Y+3	; 0x03
    15bc:	9c 81       	ldd	r25, Y+4	; 0x04
    15be:	fc 01       	movw	r30, r24
    15c0:	81 81       	ldd	r24, Z+1	; 0x01
    15c2:	2f ef       	ldi	r18, 0xFF	; 255
    15c4:	28 0f       	add	r18, r24
    15c6:	8b 81       	ldd	r24, Y+3	; 0x03
    15c8:	9c 81       	ldd	r25, Y+4	; 0x04
    15ca:	fc 01       	movw	r30, r24
    15cc:	21 83       	std	Z+1, r18	; 0x01
    15ce:	0f 90       	pop	r0
    15d0:	0f 90       	pop	r0
    15d2:	0f 90       	pop	r0
    15d4:	0f 90       	pop	r0
    15d6:	df 91       	pop	r29
    15d8:	cf 91       	pop	r28
    15da:	08 95       	ret

000015dc <_ZNV9cmdParser14inc_parser_cntEv>:
    15dc:	cf 93       	push	r28
    15de:	df 93       	push	r29
    15e0:	1f 92       	push	r1
    15e2:	1f 92       	push	r1
    15e4:	cd b7       	in	r28, 0x3d	; 61
    15e6:	de b7       	in	r29, 0x3e	; 62
    15e8:	9a 83       	std	Y+2, r25	; 0x02
    15ea:	89 83       	std	Y+1, r24	; 0x01
    15ec:	89 81       	ldd	r24, Y+1	; 0x01
    15ee:	9a 81       	ldd	r25, Y+2	; 0x02
    15f0:	fc 01       	movw	r30, r24
    15f2:	81 81       	ldd	r24, Z+1	; 0x01
    15f4:	21 e0       	ldi	r18, 0x01	; 1
    15f6:	28 0f       	add	r18, r24
    15f8:	89 81       	ldd	r24, Y+1	; 0x01
    15fa:	9a 81       	ldd	r25, Y+2	; 0x02
    15fc:	fc 01       	movw	r30, r24
    15fe:	21 83       	std	Z+1, r18	; 0x01
    1600:	0f 90       	pop	r0
    1602:	0f 90       	pop	r0
    1604:	df 91       	pop	r29
    1606:	cf 91       	pop	r28
    1608:	08 95       	ret

0000160a <_ZNV9cmdParser16parseUint8NumberEv>:
    160a:	cf 93       	push	r28
    160c:	df 93       	push	r29
    160e:	00 d0       	rcall	.+0      	; 0x1610 <_ZNV9cmdParser16parseUint8NumberEv+0x6>
    1610:	1f 92       	push	r1
    1612:	1f 92       	push	r1
    1614:	cd b7       	in	r28, 0x3d	; 61
    1616:	de b7       	in	r29, 0x3e	; 62
    1618:	9d 83       	std	Y+5, r25	; 0x05
    161a:	8c 83       	std	Y+4, r24	; 0x04
    161c:	19 82       	std	Y+1, r1	; 0x01
    161e:	1a 82       	std	Y+2, r1	; 0x02
    1620:	8c 81       	ldd	r24, Y+4	; 0x04
    1622:	9d 81       	ldd	r25, Y+5	; 0x05
    1624:	fc 01       	movw	r30, r24
    1626:	80 81       	ld	r24, Z
    1628:	88 2f       	mov	r24, r24
    162a:	90 e0       	ldi	r25, 0x00	; 0
    162c:	87 5d       	subi	r24, 0xD7	; 215
    162e:	9b 4f       	sbci	r25, 0xFB	; 251
    1630:	fc 01       	movw	r30, r24
    1632:	80 81       	ld	r24, Z
    1634:	8b 83       	std	Y+3, r24	; 0x03
    1636:	2a c0       	rjmp	.+84     	; 0x168c <_ZNV9cmdParser16parseUint8NumberEv+0x82>
    1638:	89 81       	ldd	r24, Y+1	; 0x01
    163a:	88 2f       	mov	r24, r24
    163c:	90 e0       	ldi	r25, 0x00	; 0
    163e:	00 97       	sbiw	r24, 0x00	; 0
    1640:	19 f0       	breq	.+6      	; 0x1648 <_ZNV9cmdParser16parseUint8NumberEv+0x3e>
    1642:	01 97       	sbiw	r24, 0x01	; 1
    1644:	31 f0       	breq	.+12     	; 0x1652 <_ZNV9cmdParser16parseUint8NumberEv+0x48>
    1646:	0c c0       	rjmp	.+24     	; 0x1660 <_ZNV9cmdParser16parseUint8NumberEv+0x56>
    1648:	9a 81       	ldd	r25, Y+2	; 0x02
    164a:	8b 81       	ldd	r24, Y+3	; 0x03
    164c:	89 0f       	add	r24, r25
    164e:	8a 83       	std	Y+2, r24	; 0x02
    1650:	09 c0       	rjmp	.+18     	; 0x1664 <_ZNV9cmdParser16parseUint8NumberEv+0x5a>
    1652:	8b 81       	ldd	r24, Y+3	; 0x03
    1654:	82 95       	swap	r24
    1656:	80 7f       	andi	r24, 0xF0	; 240
    1658:	9a 81       	ldd	r25, Y+2	; 0x02
    165a:	89 0f       	add	r24, r25
    165c:	8a 83       	std	Y+2, r24	; 0x02
    165e:	02 c0       	rjmp	.+4      	; 0x1664 <_ZNV9cmdParser16parseUint8NumberEv+0x5a>
    1660:	80 e0       	ldi	r24, 0x00	; 0
    1662:	18 c0       	rjmp	.+48     	; 0x1694 <_ZNV9cmdParser16parseUint8NumberEv+0x8a>
    1664:	89 81       	ldd	r24, Y+1	; 0x01
    1666:	8f 5f       	subi	r24, 0xFF	; 255
    1668:	89 83       	std	Y+1, r24	; 0x01
    166a:	8c 81       	ldd	r24, Y+4	; 0x04
    166c:	9d 81       	ldd	r25, Y+5	; 0x05
    166e:	fc 01       	movw	r30, r24
    1670:	80 81       	ld	r24, Z
    1672:	21 e0       	ldi	r18, 0x01	; 1
    1674:	28 0f       	add	r18, r24
    1676:	8c 81       	ldd	r24, Y+4	; 0x04
    1678:	9d 81       	ldd	r25, Y+5	; 0x05
    167a:	fc 01       	movw	r30, r24
    167c:	20 83       	st	Z, r18
    167e:	82 2f       	mov	r24, r18
    1680:	90 e0       	ldi	r25, 0x00	; 0
    1682:	87 5d       	subi	r24, 0xD7	; 215
    1684:	9b 4f       	sbci	r25, 0xFB	; 251
    1686:	fc 01       	movw	r30, r24
    1688:	80 81       	ld	r24, Z
    168a:	8b 83       	std	Y+3, r24	; 0x03
    168c:	8b 81       	ldd	r24, Y+3	; 0x03
    168e:	82 31       	cpi	r24, 0x12	; 18
    1690:	99 f6       	brne	.-90     	; 0x1638 <_ZNV9cmdParser16parseUint8NumberEv+0x2e>
    1692:	8a 81       	ldd	r24, Y+2	; 0x02
    1694:	0f 90       	pop	r0
    1696:	0f 90       	pop	r0
    1698:	0f 90       	pop	r0
    169a:	0f 90       	pop	r0
    169c:	0f 90       	pop	r0
    169e:	df 91       	pop	r29
    16a0:	cf 91       	pop	r28
    16a2:	08 95       	ret

000016a4 <_Z10plotNumberhPh>:
    16a4:	cf 93       	push	r28
    16a6:	df 93       	push	r29
    16a8:	00 d0       	rcall	.+0      	; 0x16aa <_Z10plotNumberhPh+0x6>
    16aa:	cd b7       	in	r28, 0x3d	; 61
    16ac:	de b7       	in	r29, 0x3e	; 62
    16ae:	89 83       	std	Y+1, r24	; 0x01
    16b0:	7b 83       	std	Y+3, r23	; 0x03
    16b2:	6a 83       	std	Y+2, r22	; 0x02
    16b4:	89 81       	ldd	r24, Y+1	; 0x01
    16b6:	28 2f       	mov	r18, r24
    16b8:	2f 70       	andi	r18, 0x0F	; 15
    16ba:	8a 81       	ldd	r24, Y+2	; 0x02
    16bc:	9b 81       	ldd	r25, Y+3	; 0x03
    16be:	fc 01       	movw	r30, r24
    16c0:	20 83       	st	Z, r18
    16c2:	8a 81       	ldd	r24, Y+2	; 0x02
    16c4:	9b 81       	ldd	r25, Y+3	; 0x03
    16c6:	01 96       	adiw	r24, 0x01	; 1
    16c8:	29 81       	ldd	r18, Y+1	; 0x01
    16ca:	22 2f       	mov	r18, r18
    16cc:	30 e0       	ldi	r19, 0x00	; 0
    16ce:	35 95       	asr	r19
    16d0:	27 95       	ror	r18
    16d2:	35 95       	asr	r19
    16d4:	27 95       	ror	r18
    16d6:	35 95       	asr	r19
    16d8:	27 95       	ror	r18
    16da:	35 95       	asr	r19
    16dc:	27 95       	ror	r18
    16de:	2f 70       	andi	r18, 0x0F	; 15
    16e0:	fc 01       	movw	r30, r24
    16e2:	20 83       	st	Z, r18
    16e4:	0f 90       	pop	r0
    16e6:	0f 90       	pop	r0
    16e8:	0f 90       	pop	r0
    16ea:	df 91       	pop	r29
    16ec:	cf 91       	pop	r28
    16ee:	08 95       	ret

000016f0 <_Z10plotNumberiPh>:
    16f0:	cf 93       	push	r28
    16f2:	df 93       	push	r29
    16f4:	00 d0       	rcall	.+0      	; 0x16f6 <_Z10plotNumberiPh+0x6>
    16f6:	1f 92       	push	r1
    16f8:	cd b7       	in	r28, 0x3d	; 61
    16fa:	de b7       	in	r29, 0x3e	; 62
    16fc:	9a 83       	std	Y+2, r25	; 0x02
    16fe:	89 83       	std	Y+1, r24	; 0x01
    1700:	7c 83       	std	Y+4, r23	; 0x04
    1702:	6b 83       	std	Y+3, r22	; 0x03
    1704:	89 81       	ldd	r24, Y+1	; 0x01
    1706:	28 2f       	mov	r18, r24
    1708:	2f 70       	andi	r18, 0x0F	; 15
    170a:	8b 81       	ldd	r24, Y+3	; 0x03
    170c:	9c 81       	ldd	r25, Y+4	; 0x04
    170e:	fc 01       	movw	r30, r24
    1710:	20 83       	st	Z, r18
    1712:	8b 81       	ldd	r24, Y+3	; 0x03
    1714:	9c 81       	ldd	r25, Y+4	; 0x04
    1716:	01 96       	adiw	r24, 0x01	; 1
    1718:	29 81       	ldd	r18, Y+1	; 0x01
    171a:	3a 81       	ldd	r19, Y+2	; 0x02
    171c:	35 95       	asr	r19
    171e:	27 95       	ror	r18
    1720:	35 95       	asr	r19
    1722:	27 95       	ror	r18
    1724:	35 95       	asr	r19
    1726:	27 95       	ror	r18
    1728:	35 95       	asr	r19
    172a:	27 95       	ror	r18
    172c:	2f 70       	andi	r18, 0x0F	; 15
    172e:	fc 01       	movw	r30, r24
    1730:	20 83       	st	Z, r18
    1732:	8b 81       	ldd	r24, Y+3	; 0x03
    1734:	9c 81       	ldd	r25, Y+4	; 0x04
    1736:	02 96       	adiw	r24, 0x02	; 2
    1738:	29 81       	ldd	r18, Y+1	; 0x01
    173a:	3a 81       	ldd	r19, Y+2	; 0x02
    173c:	23 2f       	mov	r18, r19
    173e:	33 0f       	add	r19, r19
    1740:	33 0b       	sbc	r19, r19
    1742:	2f 70       	andi	r18, 0x0F	; 15
    1744:	fc 01       	movw	r30, r24
    1746:	20 83       	st	Z, r18
    1748:	8b 81       	ldd	r24, Y+3	; 0x03
    174a:	9c 81       	ldd	r25, Y+4	; 0x04
    174c:	03 96       	adiw	r24, 0x03	; 3
    174e:	29 81       	ldd	r18, Y+1	; 0x01
    1750:	3a 81       	ldd	r19, Y+2	; 0x02
    1752:	23 2f       	mov	r18, r19
    1754:	33 27       	eor	r19, r19
    1756:	22 95       	swap	r18
    1758:	2f 70       	andi	r18, 0x0F	; 15
    175a:	fc 01       	movw	r30, r24
    175c:	20 83       	st	Z, r18
    175e:	0f 90       	pop	r0
    1760:	0f 90       	pop	r0
    1762:	0f 90       	pop	r0
    1764:	0f 90       	pop	r0
    1766:	df 91       	pop	r29
    1768:	cf 91       	pop	r28
    176a:	08 95       	ret

0000176c <_ZN6io_pinC1EPVhS1_S1_h>:
    176c:	0f 93       	push	r16
    176e:	cf 93       	push	r28
    1770:	df 93       	push	r29
    1772:	cd b7       	in	r28, 0x3d	; 61
    1774:	de b7       	in	r29, 0x3e	; 62
    1776:	29 97       	sbiw	r28, 0x09	; 9
    1778:	0f b6       	in	r0, 0x3f	; 63
    177a:	f8 94       	cli
    177c:	de bf       	out	0x3e, r29	; 62
    177e:	0f be       	out	0x3f, r0	; 63
    1780:	cd bf       	out	0x3d, r28	; 61
    1782:	9a 83       	std	Y+2, r25	; 0x02
    1784:	89 83       	std	Y+1, r24	; 0x01
    1786:	7c 83       	std	Y+4, r23	; 0x04
    1788:	6b 83       	std	Y+3, r22	; 0x03
    178a:	5e 83       	std	Y+6, r21	; 0x06
    178c:	4d 83       	std	Y+5, r20	; 0x05
    178e:	38 87       	std	Y+8, r19	; 0x08
    1790:	2f 83       	std	Y+7, r18	; 0x07
    1792:	09 87       	std	Y+9, r16	; 0x09
    1794:	89 81       	ldd	r24, Y+1	; 0x01
    1796:	9a 81       	ldd	r25, Y+2	; 0x02
    1798:	2b 81       	ldd	r18, Y+3	; 0x03
    179a:	3c 81       	ldd	r19, Y+4	; 0x04
    179c:	fc 01       	movw	r30, r24
    179e:	36 83       	std	Z+6, r19	; 0x06
    17a0:	25 83       	std	Z+5, r18	; 0x05
    17a2:	89 81       	ldd	r24, Y+1	; 0x01
    17a4:	9a 81       	ldd	r25, Y+2	; 0x02
    17a6:	2d 81       	ldd	r18, Y+5	; 0x05
    17a8:	3e 81       	ldd	r19, Y+6	; 0x06
    17aa:	fc 01       	movw	r30, r24
    17ac:	34 83       	std	Z+4, r19	; 0x04
    17ae:	23 83       	std	Z+3, r18	; 0x03
    17b0:	89 81       	ldd	r24, Y+1	; 0x01
    17b2:	9a 81       	ldd	r25, Y+2	; 0x02
    17b4:	2f 81       	ldd	r18, Y+7	; 0x07
    17b6:	38 85       	ldd	r19, Y+8	; 0x08
    17b8:	fc 01       	movw	r30, r24
    17ba:	32 83       	std	Z+2, r19	; 0x02
    17bc:	21 83       	std	Z+1, r18	; 0x01
    17be:	89 81       	ldd	r24, Y+1	; 0x01
    17c0:	9a 81       	ldd	r25, Y+2	; 0x02
    17c2:	29 85       	ldd	r18, Y+9	; 0x09
    17c4:	fc 01       	movw	r30, r24
    17c6:	27 83       	std	Z+7, r18	; 0x07
    17c8:	89 81       	ldd	r24, Y+1	; 0x01
    17ca:	9a 81       	ldd	r25, Y+2	; 0x02
    17cc:	63 e0       	ldi	r22, 0x03	; 3
    17ce:	12 d0       	rcall	.+36     	; 0x17f4 <_ZNV6io_pin14init_pinConfigE9io_config>
    17d0:	89 81       	ldd	r24, Y+1	; 0x01
    17d2:	9a 81       	ldd	r25, Y+2	; 0x02
    17d4:	fc 01       	movw	r30, r24
    17d6:	10 86       	std	Z+8, r1	; 0x08
    17d8:	89 81       	ldd	r24, Y+1	; 0x01
    17da:	9a 81       	ldd	r25, Y+2	; 0x02
    17dc:	fc 01       	movw	r30, r24
    17de:	11 86       	std	Z+9, r1	; 0x09
    17e0:	29 96       	adiw	r28, 0x09	; 9
    17e2:	0f b6       	in	r0, 0x3f	; 63
    17e4:	f8 94       	cli
    17e6:	de bf       	out	0x3e, r29	; 62
    17e8:	0f be       	out	0x3f, r0	; 63
    17ea:	cd bf       	out	0x3d, r28	; 61
    17ec:	df 91       	pop	r29
    17ee:	cf 91       	pop	r28
    17f0:	0f 91       	pop	r16
    17f2:	08 95       	ret

000017f4 <_ZNV6io_pin14init_pinConfigE9io_config>:
    17f4:	cf 93       	push	r28
    17f6:	df 93       	push	r29
    17f8:	00 d0       	rcall	.+0      	; 0x17fa <_ZNV6io_pin14init_pinConfigE9io_config+0x6>
    17fa:	cd b7       	in	r28, 0x3d	; 61
    17fc:	de b7       	in	r29, 0x3e	; 62
    17fe:	9a 83       	std	Y+2, r25	; 0x02
    1800:	89 83       	std	Y+1, r24	; 0x01
    1802:	6b 83       	std	Y+3, r22	; 0x03
    1804:	8b 81       	ldd	r24, Y+3	; 0x03
    1806:	88 2f       	mov	r24, r24
    1808:	90 e0       	ldi	r25, 0x00	; 0
    180a:	82 30       	cpi	r24, 0x02	; 2
    180c:	91 05       	cpc	r25, r1
    180e:	09 f4       	brne	.+2      	; 0x1812 <_ZNV6io_pin14init_pinConfigE9io_config+0x1e>
    1810:	89 c0       	rjmp	.+274    	; 0x1924 <_ZNV6io_pin14init_pinConfigE9io_config+0x130>
    1812:	83 30       	cpi	r24, 0x03	; 3
    1814:	91 05       	cpc	r25, r1
    1816:	34 f4       	brge	.+12     	; 0x1824 <_ZNV6io_pin14init_pinConfigE9io_config+0x30>
    1818:	00 97       	sbiw	r24, 0x00	; 0
    181a:	81 f0       	breq	.+32     	; 0x183c <_ZNV6io_pin14init_pinConfigE9io_config+0x48>
    181c:	01 97       	sbiw	r24, 0x01	; 1
    181e:	09 f4       	brne	.+2      	; 0x1822 <_ZNV6io_pin14init_pinConfigE9io_config+0x2e>
    1820:	47 c0       	rjmp	.+142    	; 0x18b0 <_ZNV6io_pin14init_pinConfigE9io_config+0xbc>
    1822:	75 c1       	rjmp	.+746    	; 0x1b0e <_ZNV6io_pin14init_pinConfigE9io_config+0x31a>
    1824:	84 30       	cpi	r24, 0x04	; 4
    1826:	91 05       	cpc	r25, r1
    1828:	09 f4       	brne	.+2      	; 0x182c <_ZNV6io_pin14init_pinConfigE9io_config+0x38>
    182a:	ef c0       	rjmp	.+478    	; 0x1a0a <_ZNV6io_pin14init_pinConfigE9io_config+0x216>
    182c:	84 30       	cpi	r24, 0x04	; 4
    182e:	91 05       	cpc	r25, r1
    1830:	0c f4       	brge	.+2      	; 0x1834 <_ZNV6io_pin14init_pinConfigE9io_config+0x40>
    1832:	b2 c0       	rjmp	.+356    	; 0x1998 <_ZNV6io_pin14init_pinConfigE9io_config+0x1a4>
    1834:	05 97       	sbiw	r24, 0x05	; 5
    1836:	09 f4       	brne	.+2      	; 0x183a <_ZNV6io_pin14init_pinConfigE9io_config+0x46>
    1838:	2a c1       	rjmp	.+596    	; 0x1a8e <_ZNV6io_pin14init_pinConfigE9io_config+0x29a>
    183a:	69 c1       	rjmp	.+722    	; 0x1b0e <_ZNV6io_pin14init_pinConfigE9io_config+0x31a>
    183c:	89 81       	ldd	r24, Y+1	; 0x01
    183e:	9a 81       	ldd	r25, Y+2	; 0x02
    1840:	fc 01       	movw	r30, r24
    1842:	87 81       	ldd	r24, Z+7	; 0x07
    1844:	28 2f       	mov	r18, r24
    1846:	30 e0       	ldi	r19, 0x00	; 0
    1848:	81 e0       	ldi	r24, 0x01	; 1
    184a:	90 e0       	ldi	r25, 0x00	; 0
    184c:	02 c0       	rjmp	.+4      	; 0x1852 <_ZNV6io_pin14init_pinConfigE9io_config+0x5e>
    184e:	88 0f       	add	r24, r24
    1850:	99 1f       	adc	r25, r25
    1852:	2a 95       	dec	r18
    1854:	e2 f7       	brpl	.-8      	; 0x184e <_ZNV6io_pin14init_pinConfigE9io_config+0x5a>
    1856:	9c 01       	movw	r18, r24
    1858:	20 95       	com	r18
    185a:	30 95       	com	r19
    185c:	89 81       	ldd	r24, Y+1	; 0x01
    185e:	9a 81       	ldd	r25, Y+2	; 0x02
    1860:	fc 01       	movw	r30, r24
    1862:	85 81       	ldd	r24, Z+5	; 0x05
    1864:	96 81       	ldd	r25, Z+6	; 0x06
    1866:	fc 01       	movw	r30, r24
    1868:	40 81       	ld	r20, Z
    186a:	44 2f       	mov	r20, r20
    186c:	50 e0       	ldi	r21, 0x00	; 0
    186e:	24 23       	and	r18, r20
    1870:	35 23       	and	r19, r21
    1872:	fc 01       	movw	r30, r24
    1874:	20 83       	st	Z, r18
    1876:	89 81       	ldd	r24, Y+1	; 0x01
    1878:	9a 81       	ldd	r25, Y+2	; 0x02
    187a:	fc 01       	movw	r30, r24
    187c:	87 81       	ldd	r24, Z+7	; 0x07
    187e:	28 2f       	mov	r18, r24
    1880:	30 e0       	ldi	r19, 0x00	; 0
    1882:	81 e0       	ldi	r24, 0x01	; 1
    1884:	90 e0       	ldi	r25, 0x00	; 0
    1886:	ac 01       	movw	r20, r24
    1888:	02 c0       	rjmp	.+4      	; 0x188e <_ZNV6io_pin14init_pinConfigE9io_config+0x9a>
    188a:	44 0f       	add	r20, r20
    188c:	55 1f       	adc	r21, r21
    188e:	2a 95       	dec	r18
    1890:	e2 f7       	brpl	.-8      	; 0x188a <_ZNV6io_pin14init_pinConfigE9io_config+0x96>
    1892:	9a 01       	movw	r18, r20
    1894:	89 81       	ldd	r24, Y+1	; 0x01
    1896:	9a 81       	ldd	r25, Y+2	; 0x02
    1898:	fc 01       	movw	r30, r24
    189a:	83 81       	ldd	r24, Z+3	; 0x03
    189c:	94 81       	ldd	r25, Z+4	; 0x04
    189e:	fc 01       	movw	r30, r24
    18a0:	40 81       	ld	r20, Z
    18a2:	44 2f       	mov	r20, r20
    18a4:	50 e0       	ldi	r21, 0x00	; 0
    18a6:	24 2b       	or	r18, r20
    18a8:	35 2b       	or	r19, r21
    18aa:	fc 01       	movw	r30, r24
    18ac:	20 83       	st	Z, r18
    18ae:	2f c1       	rjmp	.+606    	; 0x1b0e <_ZNV6io_pin14init_pinConfigE9io_config+0x31a>
    18b0:	89 81       	ldd	r24, Y+1	; 0x01
    18b2:	9a 81       	ldd	r25, Y+2	; 0x02
    18b4:	fc 01       	movw	r30, r24
    18b6:	87 81       	ldd	r24, Z+7	; 0x07
    18b8:	28 2f       	mov	r18, r24
    18ba:	30 e0       	ldi	r19, 0x00	; 0
    18bc:	81 e0       	ldi	r24, 0x01	; 1
    18be:	90 e0       	ldi	r25, 0x00	; 0
    18c0:	02 c0       	rjmp	.+4      	; 0x18c6 <_ZNV6io_pin14init_pinConfigE9io_config+0xd2>
    18c2:	88 0f       	add	r24, r24
    18c4:	99 1f       	adc	r25, r25
    18c6:	2a 95       	dec	r18
    18c8:	e2 f7       	brpl	.-8      	; 0x18c2 <_ZNV6io_pin14init_pinConfigE9io_config+0xce>
    18ca:	9c 01       	movw	r18, r24
    18cc:	20 95       	com	r18
    18ce:	30 95       	com	r19
    18d0:	89 81       	ldd	r24, Y+1	; 0x01
    18d2:	9a 81       	ldd	r25, Y+2	; 0x02
    18d4:	fc 01       	movw	r30, r24
    18d6:	85 81       	ldd	r24, Z+5	; 0x05
    18d8:	96 81       	ldd	r25, Z+6	; 0x06
    18da:	fc 01       	movw	r30, r24
    18dc:	40 81       	ld	r20, Z
    18de:	44 2f       	mov	r20, r20
    18e0:	50 e0       	ldi	r21, 0x00	; 0
    18e2:	24 23       	and	r18, r20
    18e4:	35 23       	and	r19, r21
    18e6:	fc 01       	movw	r30, r24
    18e8:	20 83       	st	Z, r18
    18ea:	89 81       	ldd	r24, Y+1	; 0x01
    18ec:	9a 81       	ldd	r25, Y+2	; 0x02
    18ee:	fc 01       	movw	r30, r24
    18f0:	87 81       	ldd	r24, Z+7	; 0x07
    18f2:	28 2f       	mov	r18, r24
    18f4:	30 e0       	ldi	r19, 0x00	; 0
    18f6:	81 e0       	ldi	r24, 0x01	; 1
    18f8:	90 e0       	ldi	r25, 0x00	; 0
    18fa:	ac 01       	movw	r20, r24
    18fc:	02 c0       	rjmp	.+4      	; 0x1902 <_ZNV6io_pin14init_pinConfigE9io_config+0x10e>
    18fe:	44 0f       	add	r20, r20
    1900:	55 1f       	adc	r21, r21
    1902:	2a 95       	dec	r18
    1904:	e2 f7       	brpl	.-8      	; 0x18fe <_ZNV6io_pin14init_pinConfigE9io_config+0x10a>
    1906:	9a 01       	movw	r18, r20
    1908:	89 81       	ldd	r24, Y+1	; 0x01
    190a:	9a 81       	ldd	r25, Y+2	; 0x02
    190c:	fc 01       	movw	r30, r24
    190e:	83 81       	ldd	r24, Z+3	; 0x03
    1910:	94 81       	ldd	r25, Z+4	; 0x04
    1912:	fc 01       	movw	r30, r24
    1914:	40 81       	ld	r20, Z
    1916:	44 2f       	mov	r20, r20
    1918:	50 e0       	ldi	r21, 0x00	; 0
    191a:	24 2b       	or	r18, r20
    191c:	35 2b       	or	r19, r21
    191e:	fc 01       	movw	r30, r24
    1920:	20 83       	st	Z, r18
    1922:	f5 c0       	rjmp	.+490    	; 0x1b0e <_ZNV6io_pin14init_pinConfigE9io_config+0x31a>
    1924:	89 81       	ldd	r24, Y+1	; 0x01
    1926:	9a 81       	ldd	r25, Y+2	; 0x02
    1928:	fc 01       	movw	r30, r24
    192a:	87 81       	ldd	r24, Z+7	; 0x07
    192c:	28 2f       	mov	r18, r24
    192e:	30 e0       	ldi	r19, 0x00	; 0
    1930:	81 e0       	ldi	r24, 0x01	; 1
    1932:	90 e0       	ldi	r25, 0x00	; 0
    1934:	ac 01       	movw	r20, r24
    1936:	02 c0       	rjmp	.+4      	; 0x193c <_ZNV6io_pin14init_pinConfigE9io_config+0x148>
    1938:	44 0f       	add	r20, r20
    193a:	55 1f       	adc	r21, r21
    193c:	2a 95       	dec	r18
    193e:	e2 f7       	brpl	.-8      	; 0x1938 <_ZNV6io_pin14init_pinConfigE9io_config+0x144>
    1940:	9a 01       	movw	r18, r20
    1942:	89 81       	ldd	r24, Y+1	; 0x01
    1944:	9a 81       	ldd	r25, Y+2	; 0x02
    1946:	fc 01       	movw	r30, r24
    1948:	85 81       	ldd	r24, Z+5	; 0x05
    194a:	96 81       	ldd	r25, Z+6	; 0x06
    194c:	fc 01       	movw	r30, r24
    194e:	40 81       	ld	r20, Z
    1950:	44 2f       	mov	r20, r20
    1952:	50 e0       	ldi	r21, 0x00	; 0
    1954:	24 2b       	or	r18, r20
    1956:	35 2b       	or	r19, r21
    1958:	fc 01       	movw	r30, r24
    195a:	20 83       	st	Z, r18
    195c:	89 81       	ldd	r24, Y+1	; 0x01
    195e:	9a 81       	ldd	r25, Y+2	; 0x02
    1960:	fc 01       	movw	r30, r24
    1962:	87 81       	ldd	r24, Z+7	; 0x07
    1964:	28 2f       	mov	r18, r24
    1966:	30 e0       	ldi	r19, 0x00	; 0
    1968:	81 e0       	ldi	r24, 0x01	; 1
    196a:	90 e0       	ldi	r25, 0x00	; 0
    196c:	02 c0       	rjmp	.+4      	; 0x1972 <_ZNV6io_pin14init_pinConfigE9io_config+0x17e>
    196e:	88 0f       	add	r24, r24
    1970:	99 1f       	adc	r25, r25
    1972:	2a 95       	dec	r18
    1974:	e2 f7       	brpl	.-8      	; 0x196e <_ZNV6io_pin14init_pinConfigE9io_config+0x17a>
    1976:	9c 01       	movw	r18, r24
    1978:	20 95       	com	r18
    197a:	30 95       	com	r19
    197c:	89 81       	ldd	r24, Y+1	; 0x01
    197e:	9a 81       	ldd	r25, Y+2	; 0x02
    1980:	fc 01       	movw	r30, r24
    1982:	83 81       	ldd	r24, Z+3	; 0x03
    1984:	94 81       	ldd	r25, Z+4	; 0x04
    1986:	fc 01       	movw	r30, r24
    1988:	40 81       	ld	r20, Z
    198a:	44 2f       	mov	r20, r20
    198c:	50 e0       	ldi	r21, 0x00	; 0
    198e:	24 23       	and	r18, r20
    1990:	35 23       	and	r19, r21
    1992:	fc 01       	movw	r30, r24
    1994:	20 83       	st	Z, r18
    1996:	bb c0       	rjmp	.+374    	; 0x1b0e <_ZNV6io_pin14init_pinConfigE9io_config+0x31a>
    1998:	89 81       	ldd	r24, Y+1	; 0x01
    199a:	9a 81       	ldd	r25, Y+2	; 0x02
    199c:	fc 01       	movw	r30, r24
    199e:	87 81       	ldd	r24, Z+7	; 0x07
    19a0:	28 2f       	mov	r18, r24
    19a2:	30 e0       	ldi	r19, 0x00	; 0
    19a4:	81 e0       	ldi	r24, 0x01	; 1
    19a6:	90 e0       	ldi	r25, 0x00	; 0
    19a8:	ac 01       	movw	r20, r24
    19aa:	02 c0       	rjmp	.+4      	; 0x19b0 <_ZNV6io_pin14init_pinConfigE9io_config+0x1bc>
    19ac:	44 0f       	add	r20, r20
    19ae:	55 1f       	adc	r21, r21
    19b0:	2a 95       	dec	r18
    19b2:	e2 f7       	brpl	.-8      	; 0x19ac <_ZNV6io_pin14init_pinConfigE9io_config+0x1b8>
    19b4:	9a 01       	movw	r18, r20
    19b6:	89 81       	ldd	r24, Y+1	; 0x01
    19b8:	9a 81       	ldd	r25, Y+2	; 0x02
    19ba:	fc 01       	movw	r30, r24
    19bc:	85 81       	ldd	r24, Z+5	; 0x05
    19be:	96 81       	ldd	r25, Z+6	; 0x06
    19c0:	fc 01       	movw	r30, r24
    19c2:	40 81       	ld	r20, Z
    19c4:	44 2f       	mov	r20, r20
    19c6:	50 e0       	ldi	r21, 0x00	; 0
    19c8:	24 2b       	or	r18, r20
    19ca:	35 2b       	or	r19, r21
    19cc:	fc 01       	movw	r30, r24
    19ce:	20 83       	st	Z, r18
    19d0:	89 81       	ldd	r24, Y+1	; 0x01
    19d2:	9a 81       	ldd	r25, Y+2	; 0x02
    19d4:	fc 01       	movw	r30, r24
    19d6:	87 81       	ldd	r24, Z+7	; 0x07
    19d8:	28 2f       	mov	r18, r24
    19da:	30 e0       	ldi	r19, 0x00	; 0
    19dc:	81 e0       	ldi	r24, 0x01	; 1
    19de:	90 e0       	ldi	r25, 0x00	; 0
    19e0:	ac 01       	movw	r20, r24
    19e2:	02 c0       	rjmp	.+4      	; 0x19e8 <_ZNV6io_pin14init_pinConfigE9io_config+0x1f4>
    19e4:	44 0f       	add	r20, r20
    19e6:	55 1f       	adc	r21, r21
    19e8:	2a 95       	dec	r18
    19ea:	e2 f7       	brpl	.-8      	; 0x19e4 <_ZNV6io_pin14init_pinConfigE9io_config+0x1f0>
    19ec:	9a 01       	movw	r18, r20
    19ee:	89 81       	ldd	r24, Y+1	; 0x01
    19f0:	9a 81       	ldd	r25, Y+2	; 0x02
    19f2:	fc 01       	movw	r30, r24
    19f4:	83 81       	ldd	r24, Z+3	; 0x03
    19f6:	94 81       	ldd	r25, Z+4	; 0x04
    19f8:	fc 01       	movw	r30, r24
    19fa:	40 81       	ld	r20, Z
    19fc:	44 2f       	mov	r20, r20
    19fe:	50 e0       	ldi	r21, 0x00	; 0
    1a00:	24 2b       	or	r18, r20
    1a02:	35 2b       	or	r19, r21
    1a04:	fc 01       	movw	r30, r24
    1a06:	20 83       	st	Z, r18
    1a08:	82 c0       	rjmp	.+260    	; 0x1b0e <_ZNV6io_pin14init_pinConfigE9io_config+0x31a>
    1a0a:	89 81       	ldd	r24, Y+1	; 0x01
    1a0c:	9a 81       	ldd	r25, Y+2	; 0x02
    1a0e:	fc 01       	movw	r30, r24
    1a10:	11 86       	std	Z+9, r1	; 0x09
    1a12:	89 81       	ldd	r24, Y+1	; 0x01
    1a14:	9a 81       	ldd	r25, Y+2	; 0x02
    1a16:	fc 01       	movw	r30, r24
    1a18:	10 86       	std	Z+8, r1	; 0x08
    1a1a:	89 81       	ldd	r24, Y+1	; 0x01
    1a1c:	9a 81       	ldd	r25, Y+2	; 0x02
    1a1e:	fc 01       	movw	r30, r24
    1a20:	87 81       	ldd	r24, Z+7	; 0x07
    1a22:	28 2f       	mov	r18, r24
    1a24:	30 e0       	ldi	r19, 0x00	; 0
    1a26:	81 e0       	ldi	r24, 0x01	; 1
    1a28:	90 e0       	ldi	r25, 0x00	; 0
    1a2a:	ac 01       	movw	r20, r24
    1a2c:	02 c0       	rjmp	.+4      	; 0x1a32 <_ZNV6io_pin14init_pinConfigE9io_config+0x23e>
    1a2e:	44 0f       	add	r20, r20
    1a30:	55 1f       	adc	r21, r21
    1a32:	2a 95       	dec	r18
    1a34:	e2 f7       	brpl	.-8      	; 0x1a2e <_ZNV6io_pin14init_pinConfigE9io_config+0x23a>
    1a36:	9a 01       	movw	r18, r20
    1a38:	89 81       	ldd	r24, Y+1	; 0x01
    1a3a:	9a 81       	ldd	r25, Y+2	; 0x02
    1a3c:	fc 01       	movw	r30, r24
    1a3e:	85 81       	ldd	r24, Z+5	; 0x05
    1a40:	96 81       	ldd	r25, Z+6	; 0x06
    1a42:	fc 01       	movw	r30, r24
    1a44:	40 81       	ld	r20, Z
    1a46:	44 2f       	mov	r20, r20
    1a48:	50 e0       	ldi	r21, 0x00	; 0
    1a4a:	24 2b       	or	r18, r20
    1a4c:	35 2b       	or	r19, r21
    1a4e:	fc 01       	movw	r30, r24
    1a50:	20 83       	st	Z, r18
    1a52:	89 81       	ldd	r24, Y+1	; 0x01
    1a54:	9a 81       	ldd	r25, Y+2	; 0x02
    1a56:	fc 01       	movw	r30, r24
    1a58:	87 81       	ldd	r24, Z+7	; 0x07
    1a5a:	28 2f       	mov	r18, r24
    1a5c:	30 e0       	ldi	r19, 0x00	; 0
    1a5e:	81 e0       	ldi	r24, 0x01	; 1
    1a60:	90 e0       	ldi	r25, 0x00	; 0
    1a62:	02 c0       	rjmp	.+4      	; 0x1a68 <_ZNV6io_pin14init_pinConfigE9io_config+0x274>
    1a64:	88 0f       	add	r24, r24
    1a66:	99 1f       	adc	r25, r25
    1a68:	2a 95       	dec	r18
    1a6a:	e2 f7       	brpl	.-8      	; 0x1a64 <_ZNV6io_pin14init_pinConfigE9io_config+0x270>
    1a6c:	9c 01       	movw	r18, r24
    1a6e:	20 95       	com	r18
    1a70:	30 95       	com	r19
    1a72:	89 81       	ldd	r24, Y+1	; 0x01
    1a74:	9a 81       	ldd	r25, Y+2	; 0x02
    1a76:	fc 01       	movw	r30, r24
    1a78:	83 81       	ldd	r24, Z+3	; 0x03
    1a7a:	94 81       	ldd	r25, Z+4	; 0x04
    1a7c:	fc 01       	movw	r30, r24
    1a7e:	40 81       	ld	r20, Z
    1a80:	44 2f       	mov	r20, r20
    1a82:	50 e0       	ldi	r21, 0x00	; 0
    1a84:	24 23       	and	r18, r20
    1a86:	35 23       	and	r19, r21
    1a88:	fc 01       	movw	r30, r24
    1a8a:	20 83       	st	Z, r18
    1a8c:	40 c0       	rjmp	.+128    	; 0x1b0e <_ZNV6io_pin14init_pinConfigE9io_config+0x31a>
    1a8e:	89 81       	ldd	r24, Y+1	; 0x01
    1a90:	9a 81       	ldd	r25, Y+2	; 0x02
    1a92:	fc 01       	movw	r30, r24
    1a94:	11 86       	std	Z+9, r1	; 0x09
    1a96:	89 81       	ldd	r24, Y+1	; 0x01
    1a98:	9a 81       	ldd	r25, Y+2	; 0x02
    1a9a:	fc 01       	movw	r30, r24
    1a9c:	10 86       	std	Z+8, r1	; 0x08
    1a9e:	89 81       	ldd	r24, Y+1	; 0x01
    1aa0:	9a 81       	ldd	r25, Y+2	; 0x02
    1aa2:	fc 01       	movw	r30, r24
    1aa4:	87 81       	ldd	r24, Z+7	; 0x07
    1aa6:	28 2f       	mov	r18, r24
    1aa8:	30 e0       	ldi	r19, 0x00	; 0
    1aaa:	81 e0       	ldi	r24, 0x01	; 1
    1aac:	90 e0       	ldi	r25, 0x00	; 0
    1aae:	ac 01       	movw	r20, r24
    1ab0:	02 c0       	rjmp	.+4      	; 0x1ab6 <_ZNV6io_pin14init_pinConfigE9io_config+0x2c2>
    1ab2:	44 0f       	add	r20, r20
    1ab4:	55 1f       	adc	r21, r21
    1ab6:	2a 95       	dec	r18
    1ab8:	e2 f7       	brpl	.-8      	; 0x1ab2 <_ZNV6io_pin14init_pinConfigE9io_config+0x2be>
    1aba:	9a 01       	movw	r18, r20
    1abc:	89 81       	ldd	r24, Y+1	; 0x01
    1abe:	9a 81       	ldd	r25, Y+2	; 0x02
    1ac0:	fc 01       	movw	r30, r24
    1ac2:	85 81       	ldd	r24, Z+5	; 0x05
    1ac4:	96 81       	ldd	r25, Z+6	; 0x06
    1ac6:	fc 01       	movw	r30, r24
    1ac8:	40 81       	ld	r20, Z
    1aca:	44 2f       	mov	r20, r20
    1acc:	50 e0       	ldi	r21, 0x00	; 0
    1ace:	24 2b       	or	r18, r20
    1ad0:	35 2b       	or	r19, r21
    1ad2:	fc 01       	movw	r30, r24
    1ad4:	20 83       	st	Z, r18
    1ad6:	89 81       	ldd	r24, Y+1	; 0x01
    1ad8:	9a 81       	ldd	r25, Y+2	; 0x02
    1ada:	fc 01       	movw	r30, r24
    1adc:	87 81       	ldd	r24, Z+7	; 0x07
    1ade:	28 2f       	mov	r18, r24
    1ae0:	30 e0       	ldi	r19, 0x00	; 0
    1ae2:	81 e0       	ldi	r24, 0x01	; 1
    1ae4:	90 e0       	ldi	r25, 0x00	; 0
    1ae6:	ac 01       	movw	r20, r24
    1ae8:	02 c0       	rjmp	.+4      	; 0x1aee <_ZNV6io_pin14init_pinConfigE9io_config+0x2fa>
    1aea:	44 0f       	add	r20, r20
    1aec:	55 1f       	adc	r21, r21
    1aee:	2a 95       	dec	r18
    1af0:	e2 f7       	brpl	.-8      	; 0x1aea <_ZNV6io_pin14init_pinConfigE9io_config+0x2f6>
    1af2:	9a 01       	movw	r18, r20
    1af4:	89 81       	ldd	r24, Y+1	; 0x01
    1af6:	9a 81       	ldd	r25, Y+2	; 0x02
    1af8:	fc 01       	movw	r30, r24
    1afa:	83 81       	ldd	r24, Z+3	; 0x03
    1afc:	94 81       	ldd	r25, Z+4	; 0x04
    1afe:	fc 01       	movw	r30, r24
    1b00:	40 81       	ld	r20, Z
    1b02:	44 2f       	mov	r20, r20
    1b04:	50 e0       	ldi	r21, 0x00	; 0
    1b06:	24 2b       	or	r18, r20
    1b08:	35 2b       	or	r19, r21
    1b0a:	fc 01       	movw	r30, r24
    1b0c:	20 83       	st	Z, r18
    1b0e:	89 81       	ldd	r24, Y+1	; 0x01
    1b10:	9a 81       	ldd	r25, Y+2	; 0x02
    1b12:	2b 81       	ldd	r18, Y+3	; 0x03
    1b14:	fc 01       	movw	r30, r24
    1b16:	20 83       	st	Z, r18
    1b18:	0f 90       	pop	r0
    1b1a:	0f 90       	pop	r0
    1b1c:	0f 90       	pop	r0
    1b1e:	df 91       	pop	r29
    1b20:	cf 91       	pop	r28
    1b22:	08 95       	ret

00001b24 <_ZNV6io_pin3getEv>:
    1b24:	cf 93       	push	r28
    1b26:	df 93       	push	r29
    1b28:	1f 92       	push	r1
    1b2a:	1f 92       	push	r1
    1b2c:	cd b7       	in	r28, 0x3d	; 61
    1b2e:	de b7       	in	r29, 0x3e	; 62
    1b30:	9a 83       	std	Y+2, r25	; 0x02
    1b32:	89 83       	std	Y+1, r24	; 0x01
    1b34:	89 81       	ldd	r24, Y+1	; 0x01
    1b36:	9a 81       	ldd	r25, Y+2	; 0x02
    1b38:	fc 01       	movw	r30, r24
    1b3a:	80 81       	ld	r24, Z
    1b3c:	88 2f       	mov	r24, r24
    1b3e:	90 e0       	ldi	r25, 0x00	; 0
    1b40:	82 30       	cpi	r24, 0x02	; 2
    1b42:	91 05       	cpc	r25, r1
    1b44:	09 f4       	brne	.+2      	; 0x1b48 <_ZNV6io_pin3getEv+0x24>
    1b46:	54 c0       	rjmp	.+168    	; 0x1bf0 <_ZNV6io_pin3getEv+0xcc>
    1b48:	83 30       	cpi	r24, 0x03	; 3
    1b4a:	91 05       	cpc	r25, r1
    1b4c:	2c f4       	brge	.+10     	; 0x1b58 <_ZNV6io_pin3getEv+0x34>
    1b4e:	00 97       	sbiw	r24, 0x00	; 0
    1b50:	79 f0       	breq	.+30     	; 0x1b70 <_ZNV6io_pin3getEv+0x4c>
    1b52:	01 97       	sbiw	r24, 0x01	; 1
    1b54:	69 f1       	breq	.+90     	; 0x1bb0 <_ZNV6io_pin3getEv+0x8c>
    1b56:	96 c0       	rjmp	.+300    	; 0x1c84 <_ZNV6io_pin3getEv+0x160>
    1b58:	84 30       	cpi	r24, 0x04	; 4
    1b5a:	91 05       	cpc	r25, r1
    1b5c:	09 f4       	brne	.+2      	; 0x1b60 <_ZNV6io_pin3getEv+0x3c>
    1b5e:	88 c0       	rjmp	.+272    	; 0x1c70 <_ZNV6io_pin3getEv+0x14c>
    1b60:	84 30       	cpi	r24, 0x04	; 4
    1b62:	91 05       	cpc	r25, r1
    1b64:	0c f4       	brge	.+2      	; 0x1b68 <_ZNV6io_pin3getEv+0x44>
    1b66:	64 c0       	rjmp	.+200    	; 0x1c30 <_ZNV6io_pin3getEv+0x10c>
    1b68:	05 97       	sbiw	r24, 0x05	; 5
    1b6a:	09 f4       	brne	.+2      	; 0x1b6e <_ZNV6io_pin3getEv+0x4a>
    1b6c:	86 c0       	rjmp	.+268    	; 0x1c7a <_ZNV6io_pin3getEv+0x156>
    1b6e:	8a c0       	rjmp	.+276    	; 0x1c84 <_ZNV6io_pin3getEv+0x160>
    1b70:	89 81       	ldd	r24, Y+1	; 0x01
    1b72:	9a 81       	ldd	r25, Y+2	; 0x02
    1b74:	fc 01       	movw	r30, r24
    1b76:	81 81       	ldd	r24, Z+1	; 0x01
    1b78:	92 81       	ldd	r25, Z+2	; 0x02
    1b7a:	fc 01       	movw	r30, r24
    1b7c:	80 81       	ld	r24, Z
    1b7e:	88 2f       	mov	r24, r24
    1b80:	90 e0       	ldi	r25, 0x00	; 0
    1b82:	29 81       	ldd	r18, Y+1	; 0x01
    1b84:	3a 81       	ldd	r19, Y+2	; 0x02
    1b86:	f9 01       	movw	r30, r18
    1b88:	27 81       	ldd	r18, Z+7	; 0x07
    1b8a:	22 2f       	mov	r18, r18
    1b8c:	30 e0       	ldi	r19, 0x00	; 0
    1b8e:	02 c0       	rjmp	.+4      	; 0x1b94 <_ZNV6io_pin3getEv+0x70>
    1b90:	95 95       	asr	r25
    1b92:	87 95       	ror	r24
    1b94:	2a 95       	dec	r18
    1b96:	e2 f7       	brpl	.-8      	; 0x1b90 <_ZNV6io_pin3getEv+0x6c>
    1b98:	81 70       	andi	r24, 0x01	; 1
    1b9a:	99 27       	eor	r25, r25
    1b9c:	21 e0       	ldi	r18, 0x01	; 1
    1b9e:	89 2b       	or	r24, r25
    1ba0:	09 f4       	brne	.+2      	; 0x1ba4 <_ZNV6io_pin3getEv+0x80>
    1ba2:	20 e0       	ldi	r18, 0x00	; 0
    1ba4:	22 23       	and	r18, r18
    1ba6:	11 f0       	breq	.+4      	; 0x1bac <_ZNV6io_pin3getEv+0x88>
    1ba8:	81 e0       	ldi	r24, 0x01	; 1
    1baa:	6d c0       	rjmp	.+218    	; 0x1c86 <_ZNV6io_pin3getEv+0x162>
    1bac:	80 e0       	ldi	r24, 0x00	; 0
    1bae:	6b c0       	rjmp	.+214    	; 0x1c86 <_ZNV6io_pin3getEv+0x162>
    1bb0:	89 81       	ldd	r24, Y+1	; 0x01
    1bb2:	9a 81       	ldd	r25, Y+2	; 0x02
    1bb4:	fc 01       	movw	r30, r24
    1bb6:	81 81       	ldd	r24, Z+1	; 0x01
    1bb8:	92 81       	ldd	r25, Z+2	; 0x02
    1bba:	fc 01       	movw	r30, r24
    1bbc:	80 81       	ld	r24, Z
    1bbe:	88 2f       	mov	r24, r24
    1bc0:	90 e0       	ldi	r25, 0x00	; 0
    1bc2:	29 81       	ldd	r18, Y+1	; 0x01
    1bc4:	3a 81       	ldd	r19, Y+2	; 0x02
    1bc6:	f9 01       	movw	r30, r18
    1bc8:	27 81       	ldd	r18, Z+7	; 0x07
    1bca:	22 2f       	mov	r18, r18
    1bcc:	30 e0       	ldi	r19, 0x00	; 0
    1bce:	02 c0       	rjmp	.+4      	; 0x1bd4 <_ZNV6io_pin3getEv+0xb0>
    1bd0:	95 95       	asr	r25
    1bd2:	87 95       	ror	r24
    1bd4:	2a 95       	dec	r18
    1bd6:	e2 f7       	brpl	.-8      	; 0x1bd0 <_ZNV6io_pin3getEv+0xac>
    1bd8:	81 70       	andi	r24, 0x01	; 1
    1bda:	99 27       	eor	r25, r25
    1bdc:	21 e0       	ldi	r18, 0x01	; 1
    1bde:	89 2b       	or	r24, r25
    1be0:	09 f4       	brne	.+2      	; 0x1be4 <_ZNV6io_pin3getEv+0xc0>
    1be2:	20 e0       	ldi	r18, 0x00	; 0
    1be4:	22 23       	and	r18, r18
    1be6:	11 f0       	breq	.+4      	; 0x1bec <_ZNV6io_pin3getEv+0xc8>
    1be8:	80 e0       	ldi	r24, 0x00	; 0
    1bea:	4d c0       	rjmp	.+154    	; 0x1c86 <_ZNV6io_pin3getEv+0x162>
    1bec:	81 e0       	ldi	r24, 0x01	; 1
    1bee:	4b c0       	rjmp	.+150    	; 0x1c86 <_ZNV6io_pin3getEv+0x162>
    1bf0:	89 81       	ldd	r24, Y+1	; 0x01
    1bf2:	9a 81       	ldd	r25, Y+2	; 0x02
    1bf4:	fc 01       	movw	r30, r24
    1bf6:	83 81       	ldd	r24, Z+3	; 0x03
    1bf8:	94 81       	ldd	r25, Z+4	; 0x04
    1bfa:	fc 01       	movw	r30, r24
    1bfc:	80 81       	ld	r24, Z
    1bfe:	88 2f       	mov	r24, r24
    1c00:	90 e0       	ldi	r25, 0x00	; 0
    1c02:	29 81       	ldd	r18, Y+1	; 0x01
    1c04:	3a 81       	ldd	r19, Y+2	; 0x02
    1c06:	f9 01       	movw	r30, r18
    1c08:	27 81       	ldd	r18, Z+7	; 0x07
    1c0a:	22 2f       	mov	r18, r18
    1c0c:	30 e0       	ldi	r19, 0x00	; 0
    1c0e:	02 c0       	rjmp	.+4      	; 0x1c14 <_ZNV6io_pin3getEv+0xf0>
    1c10:	95 95       	asr	r25
    1c12:	87 95       	ror	r24
    1c14:	2a 95       	dec	r18
    1c16:	e2 f7       	brpl	.-8      	; 0x1c10 <_ZNV6io_pin3getEv+0xec>
    1c18:	81 70       	andi	r24, 0x01	; 1
    1c1a:	99 27       	eor	r25, r25
    1c1c:	21 e0       	ldi	r18, 0x01	; 1
    1c1e:	89 2b       	or	r24, r25
    1c20:	09 f4       	brne	.+2      	; 0x1c24 <_ZNV6io_pin3getEv+0x100>
    1c22:	20 e0       	ldi	r18, 0x00	; 0
    1c24:	22 23       	and	r18, r18
    1c26:	11 f0       	breq	.+4      	; 0x1c2c <_ZNV6io_pin3getEv+0x108>
    1c28:	81 e0       	ldi	r24, 0x01	; 1
    1c2a:	2d c0       	rjmp	.+90     	; 0x1c86 <_ZNV6io_pin3getEv+0x162>
    1c2c:	80 e0       	ldi	r24, 0x00	; 0
    1c2e:	2b c0       	rjmp	.+86     	; 0x1c86 <_ZNV6io_pin3getEv+0x162>
    1c30:	89 81       	ldd	r24, Y+1	; 0x01
    1c32:	9a 81       	ldd	r25, Y+2	; 0x02
    1c34:	fc 01       	movw	r30, r24
    1c36:	83 81       	ldd	r24, Z+3	; 0x03
    1c38:	94 81       	ldd	r25, Z+4	; 0x04
    1c3a:	fc 01       	movw	r30, r24
    1c3c:	80 81       	ld	r24, Z
    1c3e:	88 2f       	mov	r24, r24
    1c40:	90 e0       	ldi	r25, 0x00	; 0
    1c42:	29 81       	ldd	r18, Y+1	; 0x01
    1c44:	3a 81       	ldd	r19, Y+2	; 0x02
    1c46:	f9 01       	movw	r30, r18
    1c48:	27 81       	ldd	r18, Z+7	; 0x07
    1c4a:	22 2f       	mov	r18, r18
    1c4c:	30 e0       	ldi	r19, 0x00	; 0
    1c4e:	02 c0       	rjmp	.+4      	; 0x1c54 <_ZNV6io_pin3getEv+0x130>
    1c50:	95 95       	asr	r25
    1c52:	87 95       	ror	r24
    1c54:	2a 95       	dec	r18
    1c56:	e2 f7       	brpl	.-8      	; 0x1c50 <_ZNV6io_pin3getEv+0x12c>
    1c58:	81 70       	andi	r24, 0x01	; 1
    1c5a:	99 27       	eor	r25, r25
    1c5c:	21 e0       	ldi	r18, 0x01	; 1
    1c5e:	89 2b       	or	r24, r25
    1c60:	09 f4       	brne	.+2      	; 0x1c64 <_ZNV6io_pin3getEv+0x140>
    1c62:	20 e0       	ldi	r18, 0x00	; 0
    1c64:	22 23       	and	r18, r18
    1c66:	11 f0       	breq	.+4      	; 0x1c6c <_ZNV6io_pin3getEv+0x148>
    1c68:	80 e0       	ldi	r24, 0x00	; 0
    1c6a:	0d c0       	rjmp	.+26     	; 0x1c86 <_ZNV6io_pin3getEv+0x162>
    1c6c:	81 e0       	ldi	r24, 0x01	; 1
    1c6e:	0b c0       	rjmp	.+22     	; 0x1c86 <_ZNV6io_pin3getEv+0x162>
    1c70:	89 81       	ldd	r24, Y+1	; 0x01
    1c72:	9a 81       	ldd	r25, Y+2	; 0x02
    1c74:	fc 01       	movw	r30, r24
    1c76:	80 85       	ldd	r24, Z+8	; 0x08
    1c78:	06 c0       	rjmp	.+12     	; 0x1c86 <_ZNV6io_pin3getEv+0x162>
    1c7a:	89 81       	ldd	r24, Y+1	; 0x01
    1c7c:	9a 81       	ldd	r25, Y+2	; 0x02
    1c7e:	fc 01       	movw	r30, r24
    1c80:	80 85       	ldd	r24, Z+8	; 0x08
    1c82:	01 c0       	rjmp	.+2      	; 0x1c86 <_ZNV6io_pin3getEv+0x162>
    1c84:	80 e0       	ldi	r24, 0x00	; 0
    1c86:	0f 90       	pop	r0
    1c88:	0f 90       	pop	r0
    1c8a:	df 91       	pop	r29
    1c8c:	cf 91       	pop	r28
    1c8e:	08 95       	ret

00001c90 <_ZNV6io_pin3setEh>:
    1c90:	cf 93       	push	r28
    1c92:	df 93       	push	r29
    1c94:	00 d0       	rcall	.+0      	; 0x1c96 <_ZNV6io_pin3setEh+0x6>
    1c96:	cd b7       	in	r28, 0x3d	; 61
    1c98:	de b7       	in	r29, 0x3e	; 62
    1c9a:	9a 83       	std	Y+2, r25	; 0x02
    1c9c:	89 83       	std	Y+1, r24	; 0x01
    1c9e:	6b 83       	std	Y+3, r22	; 0x03
    1ca0:	89 81       	ldd	r24, Y+1	; 0x01
    1ca2:	9a 81       	ldd	r25, Y+2	; 0x02
    1ca4:	fc 01       	movw	r30, r24
    1ca6:	80 81       	ld	r24, Z
    1ca8:	88 2f       	mov	r24, r24
    1caa:	90 e0       	ldi	r25, 0x00	; 0
    1cac:	82 30       	cpi	r24, 0x02	; 2
    1cae:	91 05       	cpc	r25, r1
    1cb0:	81 f0       	breq	.+32     	; 0x1cd2 <_ZNV6io_pin3setEh+0x42>
    1cb2:	83 30       	cpi	r24, 0x03	; 3
    1cb4:	91 05       	cpc	r25, r1
    1cb6:	0c f4       	brge	.+2      	; 0x1cba <_ZNV6io_pin3setEh+0x2a>
    1cb8:	94 c0       	rjmp	.+296    	; 0x1de2 <_ZNV6io_pin3setEh+0x152>
    1cba:	84 30       	cpi	r24, 0x04	; 4
    1cbc:	91 05       	cpc	r25, r1
    1cbe:	09 f4       	brne	.+2      	; 0x1cc2 <_ZNV6io_pin3setEh+0x32>
    1cc0:	84 c0       	rjmp	.+264    	; 0x1dca <_ZNV6io_pin3setEh+0x13a>
    1cc2:	84 30       	cpi	r24, 0x04	; 4
    1cc4:	91 05       	cpc	r25, r1
    1cc6:	0c f4       	brge	.+2      	; 0x1cca <_ZNV6io_pin3setEh+0x3a>
    1cc8:	42 c0       	rjmp	.+132    	; 0x1d4e <_ZNV6io_pin3setEh+0xbe>
    1cca:	05 97       	sbiw	r24, 0x05	; 5
    1ccc:	09 f4       	brne	.+2      	; 0x1cd0 <_ZNV6io_pin3setEh+0x40>
    1cce:	83 c0       	rjmp	.+262    	; 0x1dd6 <_ZNV6io_pin3setEh+0x146>
    1cd0:	89 c0       	rjmp	.+274    	; 0x1de4 <_ZNV6io_pin3setEh+0x154>
    1cd2:	8b 81       	ldd	r24, Y+3	; 0x03
    1cd4:	88 23       	and	r24, r24
    1cd6:	e9 f0       	breq	.+58     	; 0x1d12 <_ZNV6io_pin3setEh+0x82>
    1cd8:	89 81       	ldd	r24, Y+1	; 0x01
    1cda:	9a 81       	ldd	r25, Y+2	; 0x02
    1cdc:	fc 01       	movw	r30, r24
    1cde:	87 81       	ldd	r24, Z+7	; 0x07
    1ce0:	28 2f       	mov	r18, r24
    1ce2:	30 e0       	ldi	r19, 0x00	; 0
    1ce4:	81 e0       	ldi	r24, 0x01	; 1
    1ce6:	90 e0       	ldi	r25, 0x00	; 0
    1ce8:	ac 01       	movw	r20, r24
    1cea:	02 c0       	rjmp	.+4      	; 0x1cf0 <_ZNV6io_pin3setEh+0x60>
    1cec:	44 0f       	add	r20, r20
    1cee:	55 1f       	adc	r21, r21
    1cf0:	2a 95       	dec	r18
    1cf2:	e2 f7       	brpl	.-8      	; 0x1cec <_ZNV6io_pin3setEh+0x5c>
    1cf4:	9a 01       	movw	r18, r20
    1cf6:	89 81       	ldd	r24, Y+1	; 0x01
    1cf8:	9a 81       	ldd	r25, Y+2	; 0x02
    1cfa:	fc 01       	movw	r30, r24
    1cfc:	83 81       	ldd	r24, Z+3	; 0x03
    1cfe:	94 81       	ldd	r25, Z+4	; 0x04
    1d00:	fc 01       	movw	r30, r24
    1d02:	40 81       	ld	r20, Z
    1d04:	44 2f       	mov	r20, r20
    1d06:	50 e0       	ldi	r21, 0x00	; 0
    1d08:	24 2b       	or	r18, r20
    1d0a:	35 2b       	or	r19, r21
    1d0c:	fc 01       	movw	r30, r24
    1d0e:	20 83       	st	Z, r18
    1d10:	69 c0       	rjmp	.+210    	; 0x1de4 <_ZNV6io_pin3setEh+0x154>
    1d12:	89 81       	ldd	r24, Y+1	; 0x01
    1d14:	9a 81       	ldd	r25, Y+2	; 0x02
    1d16:	fc 01       	movw	r30, r24
    1d18:	87 81       	ldd	r24, Z+7	; 0x07
    1d1a:	28 2f       	mov	r18, r24
    1d1c:	30 e0       	ldi	r19, 0x00	; 0
    1d1e:	81 e0       	ldi	r24, 0x01	; 1
    1d20:	90 e0       	ldi	r25, 0x00	; 0
    1d22:	02 c0       	rjmp	.+4      	; 0x1d28 <_ZNV6io_pin3setEh+0x98>
    1d24:	88 0f       	add	r24, r24
    1d26:	99 1f       	adc	r25, r25
    1d28:	2a 95       	dec	r18
    1d2a:	e2 f7       	brpl	.-8      	; 0x1d24 <_ZNV6io_pin3setEh+0x94>
    1d2c:	9c 01       	movw	r18, r24
    1d2e:	20 95       	com	r18
    1d30:	30 95       	com	r19
    1d32:	89 81       	ldd	r24, Y+1	; 0x01
    1d34:	9a 81       	ldd	r25, Y+2	; 0x02
    1d36:	fc 01       	movw	r30, r24
    1d38:	83 81       	ldd	r24, Z+3	; 0x03
    1d3a:	94 81       	ldd	r25, Z+4	; 0x04
    1d3c:	fc 01       	movw	r30, r24
    1d3e:	40 81       	ld	r20, Z
    1d40:	44 2f       	mov	r20, r20
    1d42:	50 e0       	ldi	r21, 0x00	; 0
    1d44:	24 23       	and	r18, r20
    1d46:	35 23       	and	r19, r21
    1d48:	fc 01       	movw	r30, r24
    1d4a:	20 83       	st	Z, r18
    1d4c:	4b c0       	rjmp	.+150    	; 0x1de4 <_ZNV6io_pin3setEh+0x154>
    1d4e:	8b 81       	ldd	r24, Y+3	; 0x03
    1d50:	88 23       	and	r24, r24
    1d52:	f1 f0       	breq	.+60     	; 0x1d90 <_ZNV6io_pin3setEh+0x100>
    1d54:	89 81       	ldd	r24, Y+1	; 0x01
    1d56:	9a 81       	ldd	r25, Y+2	; 0x02
    1d58:	fc 01       	movw	r30, r24
    1d5a:	87 81       	ldd	r24, Z+7	; 0x07
    1d5c:	28 2f       	mov	r18, r24
    1d5e:	30 e0       	ldi	r19, 0x00	; 0
    1d60:	81 e0       	ldi	r24, 0x01	; 1
    1d62:	90 e0       	ldi	r25, 0x00	; 0
    1d64:	02 c0       	rjmp	.+4      	; 0x1d6a <_ZNV6io_pin3setEh+0xda>
    1d66:	88 0f       	add	r24, r24
    1d68:	99 1f       	adc	r25, r25
    1d6a:	2a 95       	dec	r18
    1d6c:	e2 f7       	brpl	.-8      	; 0x1d66 <_ZNV6io_pin3setEh+0xd6>
    1d6e:	9c 01       	movw	r18, r24
    1d70:	20 95       	com	r18
    1d72:	30 95       	com	r19
    1d74:	89 81       	ldd	r24, Y+1	; 0x01
    1d76:	9a 81       	ldd	r25, Y+2	; 0x02
    1d78:	fc 01       	movw	r30, r24
    1d7a:	83 81       	ldd	r24, Z+3	; 0x03
    1d7c:	94 81       	ldd	r25, Z+4	; 0x04
    1d7e:	fc 01       	movw	r30, r24
    1d80:	40 81       	ld	r20, Z
    1d82:	44 2f       	mov	r20, r20
    1d84:	50 e0       	ldi	r21, 0x00	; 0
    1d86:	24 23       	and	r18, r20
    1d88:	35 23       	and	r19, r21
    1d8a:	fc 01       	movw	r30, r24
    1d8c:	20 83       	st	Z, r18
    1d8e:	2a c0       	rjmp	.+84     	; 0x1de4 <_ZNV6io_pin3setEh+0x154>
    1d90:	89 81       	ldd	r24, Y+1	; 0x01
    1d92:	9a 81       	ldd	r25, Y+2	; 0x02
    1d94:	fc 01       	movw	r30, r24
    1d96:	87 81       	ldd	r24, Z+7	; 0x07
    1d98:	28 2f       	mov	r18, r24
    1d9a:	30 e0       	ldi	r19, 0x00	; 0
    1d9c:	81 e0       	ldi	r24, 0x01	; 1
    1d9e:	90 e0       	ldi	r25, 0x00	; 0
    1da0:	ac 01       	movw	r20, r24
    1da2:	02 c0       	rjmp	.+4      	; 0x1da8 <_ZNV6io_pin3setEh+0x118>
    1da4:	44 0f       	add	r20, r20
    1da6:	55 1f       	adc	r21, r21
    1da8:	2a 95       	dec	r18
    1daa:	e2 f7       	brpl	.-8      	; 0x1da4 <_ZNV6io_pin3setEh+0x114>
    1dac:	9a 01       	movw	r18, r20
    1dae:	89 81       	ldd	r24, Y+1	; 0x01
    1db0:	9a 81       	ldd	r25, Y+2	; 0x02
    1db2:	fc 01       	movw	r30, r24
    1db4:	83 81       	ldd	r24, Z+3	; 0x03
    1db6:	94 81       	ldd	r25, Z+4	; 0x04
    1db8:	fc 01       	movw	r30, r24
    1dba:	40 81       	ld	r20, Z
    1dbc:	44 2f       	mov	r20, r20
    1dbe:	50 e0       	ldi	r21, 0x00	; 0
    1dc0:	24 2b       	or	r18, r20
    1dc2:	35 2b       	or	r19, r21
    1dc4:	fc 01       	movw	r30, r24
    1dc6:	20 83       	st	Z, r18
    1dc8:	0d c0       	rjmp	.+26     	; 0x1de4 <_ZNV6io_pin3setEh+0x154>
    1dca:	89 81       	ldd	r24, Y+1	; 0x01
    1dcc:	9a 81       	ldd	r25, Y+2	; 0x02
    1dce:	2b 81       	ldd	r18, Y+3	; 0x03
    1dd0:	fc 01       	movw	r30, r24
    1dd2:	20 87       	std	Z+8, r18	; 0x08
    1dd4:	07 c0       	rjmp	.+14     	; 0x1de4 <_ZNV6io_pin3setEh+0x154>
    1dd6:	89 81       	ldd	r24, Y+1	; 0x01
    1dd8:	9a 81       	ldd	r25, Y+2	; 0x02
    1dda:	2b 81       	ldd	r18, Y+3	; 0x03
    1ddc:	fc 01       	movw	r30, r24
    1dde:	20 87       	std	Z+8, r18	; 0x08
    1de0:	01 c0       	rjmp	.+2      	; 0x1de4 <_ZNV6io_pin3setEh+0x154>
    1de2:	00 00       	nop
    1de4:	0f 90       	pop	r0
    1de6:	0f 90       	pop	r0
    1de8:	0f 90       	pop	r0
    1dea:	df 91       	pop	r29
    1dec:	cf 91       	pop	r28
    1dee:	08 95       	ret

00001df0 <_ZNV6io_pin9setconfigEh>:
    1df0:	cf 93       	push	r28
    1df2:	df 93       	push	r29
    1df4:	00 d0       	rcall	.+0      	; 0x1df6 <_ZNV6io_pin9setconfigEh+0x6>
    1df6:	cd b7       	in	r28, 0x3d	; 61
    1df8:	de b7       	in	r29, 0x3e	; 62
    1dfa:	9a 83       	std	Y+2, r25	; 0x02
    1dfc:	89 83       	std	Y+1, r24	; 0x01
    1dfe:	6b 83       	std	Y+3, r22	; 0x03
    1e00:	89 81       	ldd	r24, Y+1	; 0x01
    1e02:	9a 81       	ldd	r25, Y+2	; 0x02
    1e04:	fc 01       	movw	r30, r24
    1e06:	20 81       	ld	r18, Z
    1e08:	81 e0       	ldi	r24, 0x01	; 1
    1e0a:	9b 81       	ldd	r25, Y+3	; 0x03
    1e0c:	29 17       	cp	r18, r25
    1e0e:	09 f4       	brne	.+2      	; 0x1e12 <_ZNV6io_pin9setconfigEh+0x22>
    1e10:	80 e0       	ldi	r24, 0x00	; 0
    1e12:	88 23       	and	r24, r24
    1e14:	09 f4       	brne	.+2      	; 0x1e18 <_ZNV6io_pin9setconfigEh+0x28>
    1e16:	86 c1       	rjmp	.+780    	; 0x2124 <_ZNV6io_pin9setconfigEh+0x334>
    1e18:	8b 81       	ldd	r24, Y+3	; 0x03
    1e1a:	88 2f       	mov	r24, r24
    1e1c:	90 e0       	ldi	r25, 0x00	; 0
    1e1e:	82 30       	cpi	r24, 0x02	; 2
    1e20:	91 05       	cpc	r25, r1
    1e22:	09 f4       	brne	.+2      	; 0x1e26 <_ZNV6io_pin9setconfigEh+0x36>
    1e24:	89 c0       	rjmp	.+274    	; 0x1f38 <_ZNV6io_pin9setconfigEh+0x148>
    1e26:	83 30       	cpi	r24, 0x03	; 3
    1e28:	91 05       	cpc	r25, r1
    1e2a:	34 f4       	brge	.+12     	; 0x1e38 <_ZNV6io_pin9setconfigEh+0x48>
    1e2c:	00 97       	sbiw	r24, 0x00	; 0
    1e2e:	81 f0       	breq	.+32     	; 0x1e50 <_ZNV6io_pin9setconfigEh+0x60>
    1e30:	01 97       	sbiw	r24, 0x01	; 1
    1e32:	09 f4       	brne	.+2      	; 0x1e36 <_ZNV6io_pin9setconfigEh+0x46>
    1e34:	47 c0       	rjmp	.+142    	; 0x1ec4 <_ZNV6io_pin9setconfigEh+0xd4>
    1e36:	76 c1       	rjmp	.+748    	; 0x2124 <_ZNV6io_pin9setconfigEh+0x334>
    1e38:	84 30       	cpi	r24, 0x04	; 4
    1e3a:	91 05       	cpc	r25, r1
    1e3c:	09 f4       	brne	.+2      	; 0x1e40 <_ZNV6io_pin9setconfigEh+0x50>
    1e3e:	ef c0       	rjmp	.+478    	; 0x201e <_ZNV6io_pin9setconfigEh+0x22e>
    1e40:	84 30       	cpi	r24, 0x04	; 4
    1e42:	91 05       	cpc	r25, r1
    1e44:	0c f4       	brge	.+2      	; 0x1e48 <_ZNV6io_pin9setconfigEh+0x58>
    1e46:	b2 c0       	rjmp	.+356    	; 0x1fac <_ZNV6io_pin9setconfigEh+0x1bc>
    1e48:	05 97       	sbiw	r24, 0x05	; 5
    1e4a:	09 f4       	brne	.+2      	; 0x1e4e <_ZNV6io_pin9setconfigEh+0x5e>
    1e4c:	2a c1       	rjmp	.+596    	; 0x20a2 <_ZNV6io_pin9setconfigEh+0x2b2>
    1e4e:	6a c1       	rjmp	.+724    	; 0x2124 <_ZNV6io_pin9setconfigEh+0x334>
    1e50:	89 81       	ldd	r24, Y+1	; 0x01
    1e52:	9a 81       	ldd	r25, Y+2	; 0x02
    1e54:	fc 01       	movw	r30, r24
    1e56:	87 81       	ldd	r24, Z+7	; 0x07
    1e58:	28 2f       	mov	r18, r24
    1e5a:	30 e0       	ldi	r19, 0x00	; 0
    1e5c:	81 e0       	ldi	r24, 0x01	; 1
    1e5e:	90 e0       	ldi	r25, 0x00	; 0
    1e60:	02 c0       	rjmp	.+4      	; 0x1e66 <_ZNV6io_pin9setconfigEh+0x76>
    1e62:	88 0f       	add	r24, r24
    1e64:	99 1f       	adc	r25, r25
    1e66:	2a 95       	dec	r18
    1e68:	e2 f7       	brpl	.-8      	; 0x1e62 <_ZNV6io_pin9setconfigEh+0x72>
    1e6a:	9c 01       	movw	r18, r24
    1e6c:	20 95       	com	r18
    1e6e:	30 95       	com	r19
    1e70:	89 81       	ldd	r24, Y+1	; 0x01
    1e72:	9a 81       	ldd	r25, Y+2	; 0x02
    1e74:	fc 01       	movw	r30, r24
    1e76:	85 81       	ldd	r24, Z+5	; 0x05
    1e78:	96 81       	ldd	r25, Z+6	; 0x06
    1e7a:	fc 01       	movw	r30, r24
    1e7c:	40 81       	ld	r20, Z
    1e7e:	44 2f       	mov	r20, r20
    1e80:	50 e0       	ldi	r21, 0x00	; 0
    1e82:	24 23       	and	r18, r20
    1e84:	35 23       	and	r19, r21
    1e86:	fc 01       	movw	r30, r24
    1e88:	20 83       	st	Z, r18
    1e8a:	89 81       	ldd	r24, Y+1	; 0x01
    1e8c:	9a 81       	ldd	r25, Y+2	; 0x02
    1e8e:	fc 01       	movw	r30, r24
    1e90:	87 81       	ldd	r24, Z+7	; 0x07
    1e92:	28 2f       	mov	r18, r24
    1e94:	30 e0       	ldi	r19, 0x00	; 0
    1e96:	81 e0       	ldi	r24, 0x01	; 1
    1e98:	90 e0       	ldi	r25, 0x00	; 0
    1e9a:	ac 01       	movw	r20, r24
    1e9c:	02 c0       	rjmp	.+4      	; 0x1ea2 <_ZNV6io_pin9setconfigEh+0xb2>
    1e9e:	44 0f       	add	r20, r20
    1ea0:	55 1f       	adc	r21, r21
    1ea2:	2a 95       	dec	r18
    1ea4:	e2 f7       	brpl	.-8      	; 0x1e9e <_ZNV6io_pin9setconfigEh+0xae>
    1ea6:	9a 01       	movw	r18, r20
    1ea8:	89 81       	ldd	r24, Y+1	; 0x01
    1eaa:	9a 81       	ldd	r25, Y+2	; 0x02
    1eac:	fc 01       	movw	r30, r24
    1eae:	83 81       	ldd	r24, Z+3	; 0x03
    1eb0:	94 81       	ldd	r25, Z+4	; 0x04
    1eb2:	fc 01       	movw	r30, r24
    1eb4:	40 81       	ld	r20, Z
    1eb6:	44 2f       	mov	r20, r20
    1eb8:	50 e0       	ldi	r21, 0x00	; 0
    1eba:	24 2b       	or	r18, r20
    1ebc:	35 2b       	or	r19, r21
    1ebe:	fc 01       	movw	r30, r24
    1ec0:	20 83       	st	Z, r18
    1ec2:	30 c1       	rjmp	.+608    	; 0x2124 <_ZNV6io_pin9setconfigEh+0x334>
    1ec4:	89 81       	ldd	r24, Y+1	; 0x01
    1ec6:	9a 81       	ldd	r25, Y+2	; 0x02
    1ec8:	fc 01       	movw	r30, r24
    1eca:	87 81       	ldd	r24, Z+7	; 0x07
    1ecc:	28 2f       	mov	r18, r24
    1ece:	30 e0       	ldi	r19, 0x00	; 0
    1ed0:	81 e0       	ldi	r24, 0x01	; 1
    1ed2:	90 e0       	ldi	r25, 0x00	; 0
    1ed4:	02 c0       	rjmp	.+4      	; 0x1eda <_ZNV6io_pin9setconfigEh+0xea>
    1ed6:	88 0f       	add	r24, r24
    1ed8:	99 1f       	adc	r25, r25
    1eda:	2a 95       	dec	r18
    1edc:	e2 f7       	brpl	.-8      	; 0x1ed6 <_ZNV6io_pin9setconfigEh+0xe6>
    1ede:	9c 01       	movw	r18, r24
    1ee0:	20 95       	com	r18
    1ee2:	30 95       	com	r19
    1ee4:	89 81       	ldd	r24, Y+1	; 0x01
    1ee6:	9a 81       	ldd	r25, Y+2	; 0x02
    1ee8:	fc 01       	movw	r30, r24
    1eea:	85 81       	ldd	r24, Z+5	; 0x05
    1eec:	96 81       	ldd	r25, Z+6	; 0x06
    1eee:	fc 01       	movw	r30, r24
    1ef0:	40 81       	ld	r20, Z
    1ef2:	44 2f       	mov	r20, r20
    1ef4:	50 e0       	ldi	r21, 0x00	; 0
    1ef6:	24 23       	and	r18, r20
    1ef8:	35 23       	and	r19, r21
    1efa:	fc 01       	movw	r30, r24
    1efc:	20 83       	st	Z, r18
    1efe:	89 81       	ldd	r24, Y+1	; 0x01
    1f00:	9a 81       	ldd	r25, Y+2	; 0x02
    1f02:	fc 01       	movw	r30, r24
    1f04:	87 81       	ldd	r24, Z+7	; 0x07
    1f06:	28 2f       	mov	r18, r24
    1f08:	30 e0       	ldi	r19, 0x00	; 0
    1f0a:	81 e0       	ldi	r24, 0x01	; 1
    1f0c:	90 e0       	ldi	r25, 0x00	; 0
    1f0e:	ac 01       	movw	r20, r24
    1f10:	02 c0       	rjmp	.+4      	; 0x1f16 <_ZNV6io_pin9setconfigEh+0x126>
    1f12:	44 0f       	add	r20, r20
    1f14:	55 1f       	adc	r21, r21
    1f16:	2a 95       	dec	r18
    1f18:	e2 f7       	brpl	.-8      	; 0x1f12 <_ZNV6io_pin9setconfigEh+0x122>
    1f1a:	9a 01       	movw	r18, r20
    1f1c:	89 81       	ldd	r24, Y+1	; 0x01
    1f1e:	9a 81       	ldd	r25, Y+2	; 0x02
    1f20:	fc 01       	movw	r30, r24
    1f22:	83 81       	ldd	r24, Z+3	; 0x03
    1f24:	94 81       	ldd	r25, Z+4	; 0x04
    1f26:	fc 01       	movw	r30, r24
    1f28:	40 81       	ld	r20, Z
    1f2a:	44 2f       	mov	r20, r20
    1f2c:	50 e0       	ldi	r21, 0x00	; 0
    1f2e:	24 2b       	or	r18, r20
    1f30:	35 2b       	or	r19, r21
    1f32:	fc 01       	movw	r30, r24
    1f34:	20 83       	st	Z, r18
    1f36:	f6 c0       	rjmp	.+492    	; 0x2124 <_ZNV6io_pin9setconfigEh+0x334>
    1f38:	89 81       	ldd	r24, Y+1	; 0x01
    1f3a:	9a 81       	ldd	r25, Y+2	; 0x02
    1f3c:	fc 01       	movw	r30, r24
    1f3e:	87 81       	ldd	r24, Z+7	; 0x07
    1f40:	28 2f       	mov	r18, r24
    1f42:	30 e0       	ldi	r19, 0x00	; 0
    1f44:	81 e0       	ldi	r24, 0x01	; 1
    1f46:	90 e0       	ldi	r25, 0x00	; 0
    1f48:	ac 01       	movw	r20, r24
    1f4a:	02 c0       	rjmp	.+4      	; 0x1f50 <_ZNV6io_pin9setconfigEh+0x160>
    1f4c:	44 0f       	add	r20, r20
    1f4e:	55 1f       	adc	r21, r21
    1f50:	2a 95       	dec	r18
    1f52:	e2 f7       	brpl	.-8      	; 0x1f4c <_ZNV6io_pin9setconfigEh+0x15c>
    1f54:	9a 01       	movw	r18, r20
    1f56:	89 81       	ldd	r24, Y+1	; 0x01
    1f58:	9a 81       	ldd	r25, Y+2	; 0x02
    1f5a:	fc 01       	movw	r30, r24
    1f5c:	85 81       	ldd	r24, Z+5	; 0x05
    1f5e:	96 81       	ldd	r25, Z+6	; 0x06
    1f60:	fc 01       	movw	r30, r24
    1f62:	40 81       	ld	r20, Z
    1f64:	44 2f       	mov	r20, r20
    1f66:	50 e0       	ldi	r21, 0x00	; 0
    1f68:	24 2b       	or	r18, r20
    1f6a:	35 2b       	or	r19, r21
    1f6c:	fc 01       	movw	r30, r24
    1f6e:	20 83       	st	Z, r18
    1f70:	89 81       	ldd	r24, Y+1	; 0x01
    1f72:	9a 81       	ldd	r25, Y+2	; 0x02
    1f74:	fc 01       	movw	r30, r24
    1f76:	87 81       	ldd	r24, Z+7	; 0x07
    1f78:	28 2f       	mov	r18, r24
    1f7a:	30 e0       	ldi	r19, 0x00	; 0
    1f7c:	81 e0       	ldi	r24, 0x01	; 1
    1f7e:	90 e0       	ldi	r25, 0x00	; 0
    1f80:	02 c0       	rjmp	.+4      	; 0x1f86 <_ZNV6io_pin9setconfigEh+0x196>
    1f82:	88 0f       	add	r24, r24
    1f84:	99 1f       	adc	r25, r25
    1f86:	2a 95       	dec	r18
    1f88:	e2 f7       	brpl	.-8      	; 0x1f82 <_ZNV6io_pin9setconfigEh+0x192>
    1f8a:	9c 01       	movw	r18, r24
    1f8c:	20 95       	com	r18
    1f8e:	30 95       	com	r19
    1f90:	89 81       	ldd	r24, Y+1	; 0x01
    1f92:	9a 81       	ldd	r25, Y+2	; 0x02
    1f94:	fc 01       	movw	r30, r24
    1f96:	83 81       	ldd	r24, Z+3	; 0x03
    1f98:	94 81       	ldd	r25, Z+4	; 0x04
    1f9a:	fc 01       	movw	r30, r24
    1f9c:	40 81       	ld	r20, Z
    1f9e:	44 2f       	mov	r20, r20
    1fa0:	50 e0       	ldi	r21, 0x00	; 0
    1fa2:	24 23       	and	r18, r20
    1fa4:	35 23       	and	r19, r21
    1fa6:	fc 01       	movw	r30, r24
    1fa8:	20 83       	st	Z, r18
    1faa:	bc c0       	rjmp	.+376    	; 0x2124 <_ZNV6io_pin9setconfigEh+0x334>
    1fac:	89 81       	ldd	r24, Y+1	; 0x01
    1fae:	9a 81       	ldd	r25, Y+2	; 0x02
    1fb0:	fc 01       	movw	r30, r24
    1fb2:	87 81       	ldd	r24, Z+7	; 0x07
    1fb4:	28 2f       	mov	r18, r24
    1fb6:	30 e0       	ldi	r19, 0x00	; 0
    1fb8:	81 e0       	ldi	r24, 0x01	; 1
    1fba:	90 e0       	ldi	r25, 0x00	; 0
    1fbc:	ac 01       	movw	r20, r24
    1fbe:	02 c0       	rjmp	.+4      	; 0x1fc4 <_ZNV6io_pin9setconfigEh+0x1d4>
    1fc0:	44 0f       	add	r20, r20
    1fc2:	55 1f       	adc	r21, r21
    1fc4:	2a 95       	dec	r18
    1fc6:	e2 f7       	brpl	.-8      	; 0x1fc0 <_ZNV6io_pin9setconfigEh+0x1d0>
    1fc8:	9a 01       	movw	r18, r20
    1fca:	89 81       	ldd	r24, Y+1	; 0x01
    1fcc:	9a 81       	ldd	r25, Y+2	; 0x02
    1fce:	fc 01       	movw	r30, r24
    1fd0:	85 81       	ldd	r24, Z+5	; 0x05
    1fd2:	96 81       	ldd	r25, Z+6	; 0x06
    1fd4:	fc 01       	movw	r30, r24
    1fd6:	40 81       	ld	r20, Z
    1fd8:	44 2f       	mov	r20, r20
    1fda:	50 e0       	ldi	r21, 0x00	; 0
    1fdc:	24 2b       	or	r18, r20
    1fde:	35 2b       	or	r19, r21
    1fe0:	fc 01       	movw	r30, r24
    1fe2:	20 83       	st	Z, r18
    1fe4:	89 81       	ldd	r24, Y+1	; 0x01
    1fe6:	9a 81       	ldd	r25, Y+2	; 0x02
    1fe8:	fc 01       	movw	r30, r24
    1fea:	87 81       	ldd	r24, Z+7	; 0x07
    1fec:	28 2f       	mov	r18, r24
    1fee:	30 e0       	ldi	r19, 0x00	; 0
    1ff0:	81 e0       	ldi	r24, 0x01	; 1
    1ff2:	90 e0       	ldi	r25, 0x00	; 0
    1ff4:	ac 01       	movw	r20, r24
    1ff6:	02 c0       	rjmp	.+4      	; 0x1ffc <_ZNV6io_pin9setconfigEh+0x20c>
    1ff8:	44 0f       	add	r20, r20
    1ffa:	55 1f       	adc	r21, r21
    1ffc:	2a 95       	dec	r18
    1ffe:	e2 f7       	brpl	.-8      	; 0x1ff8 <_ZNV6io_pin9setconfigEh+0x208>
    2000:	9a 01       	movw	r18, r20
    2002:	89 81       	ldd	r24, Y+1	; 0x01
    2004:	9a 81       	ldd	r25, Y+2	; 0x02
    2006:	fc 01       	movw	r30, r24
    2008:	83 81       	ldd	r24, Z+3	; 0x03
    200a:	94 81       	ldd	r25, Z+4	; 0x04
    200c:	fc 01       	movw	r30, r24
    200e:	40 81       	ld	r20, Z
    2010:	44 2f       	mov	r20, r20
    2012:	50 e0       	ldi	r21, 0x00	; 0
    2014:	24 2b       	or	r18, r20
    2016:	35 2b       	or	r19, r21
    2018:	fc 01       	movw	r30, r24
    201a:	20 83       	st	Z, r18
    201c:	83 c0       	rjmp	.+262    	; 0x2124 <_ZNV6io_pin9setconfigEh+0x334>
    201e:	89 81       	ldd	r24, Y+1	; 0x01
    2020:	9a 81       	ldd	r25, Y+2	; 0x02
    2022:	fc 01       	movw	r30, r24
    2024:	11 86       	std	Z+9, r1	; 0x09
    2026:	89 81       	ldd	r24, Y+1	; 0x01
    2028:	9a 81       	ldd	r25, Y+2	; 0x02
    202a:	fc 01       	movw	r30, r24
    202c:	10 86       	std	Z+8, r1	; 0x08
    202e:	89 81       	ldd	r24, Y+1	; 0x01
    2030:	9a 81       	ldd	r25, Y+2	; 0x02
    2032:	fc 01       	movw	r30, r24
    2034:	87 81       	ldd	r24, Z+7	; 0x07
    2036:	28 2f       	mov	r18, r24
    2038:	30 e0       	ldi	r19, 0x00	; 0
    203a:	81 e0       	ldi	r24, 0x01	; 1
    203c:	90 e0       	ldi	r25, 0x00	; 0
    203e:	ac 01       	movw	r20, r24
    2040:	02 c0       	rjmp	.+4      	; 0x2046 <_ZNV6io_pin9setconfigEh+0x256>
    2042:	44 0f       	add	r20, r20
    2044:	55 1f       	adc	r21, r21
    2046:	2a 95       	dec	r18
    2048:	e2 f7       	brpl	.-8      	; 0x2042 <_ZNV6io_pin9setconfigEh+0x252>
    204a:	9a 01       	movw	r18, r20
    204c:	89 81       	ldd	r24, Y+1	; 0x01
    204e:	9a 81       	ldd	r25, Y+2	; 0x02
    2050:	fc 01       	movw	r30, r24
    2052:	85 81       	ldd	r24, Z+5	; 0x05
    2054:	96 81       	ldd	r25, Z+6	; 0x06
    2056:	fc 01       	movw	r30, r24
    2058:	40 81       	ld	r20, Z
    205a:	44 2f       	mov	r20, r20
    205c:	50 e0       	ldi	r21, 0x00	; 0
    205e:	24 2b       	or	r18, r20
    2060:	35 2b       	or	r19, r21
    2062:	fc 01       	movw	r30, r24
    2064:	20 83       	st	Z, r18
    2066:	89 81       	ldd	r24, Y+1	; 0x01
    2068:	9a 81       	ldd	r25, Y+2	; 0x02
    206a:	fc 01       	movw	r30, r24
    206c:	87 81       	ldd	r24, Z+7	; 0x07
    206e:	28 2f       	mov	r18, r24
    2070:	30 e0       	ldi	r19, 0x00	; 0
    2072:	81 e0       	ldi	r24, 0x01	; 1
    2074:	90 e0       	ldi	r25, 0x00	; 0
    2076:	02 c0       	rjmp	.+4      	; 0x207c <_ZNV6io_pin9setconfigEh+0x28c>
    2078:	88 0f       	add	r24, r24
    207a:	99 1f       	adc	r25, r25
    207c:	2a 95       	dec	r18
    207e:	e2 f7       	brpl	.-8      	; 0x2078 <_ZNV6io_pin9setconfigEh+0x288>
    2080:	9c 01       	movw	r18, r24
    2082:	20 95       	com	r18
    2084:	30 95       	com	r19
    2086:	89 81       	ldd	r24, Y+1	; 0x01
    2088:	9a 81       	ldd	r25, Y+2	; 0x02
    208a:	fc 01       	movw	r30, r24
    208c:	83 81       	ldd	r24, Z+3	; 0x03
    208e:	94 81       	ldd	r25, Z+4	; 0x04
    2090:	fc 01       	movw	r30, r24
    2092:	40 81       	ld	r20, Z
    2094:	44 2f       	mov	r20, r20
    2096:	50 e0       	ldi	r21, 0x00	; 0
    2098:	24 23       	and	r18, r20
    209a:	35 23       	and	r19, r21
    209c:	fc 01       	movw	r30, r24
    209e:	20 83       	st	Z, r18
    20a0:	41 c0       	rjmp	.+130    	; 0x2124 <_ZNV6io_pin9setconfigEh+0x334>
    20a2:	89 81       	ldd	r24, Y+1	; 0x01
    20a4:	9a 81       	ldd	r25, Y+2	; 0x02
    20a6:	fc 01       	movw	r30, r24
    20a8:	11 86       	std	Z+9, r1	; 0x09
    20aa:	89 81       	ldd	r24, Y+1	; 0x01
    20ac:	9a 81       	ldd	r25, Y+2	; 0x02
    20ae:	fc 01       	movw	r30, r24
    20b0:	10 86       	std	Z+8, r1	; 0x08
    20b2:	89 81       	ldd	r24, Y+1	; 0x01
    20b4:	9a 81       	ldd	r25, Y+2	; 0x02
    20b6:	fc 01       	movw	r30, r24
    20b8:	87 81       	ldd	r24, Z+7	; 0x07
    20ba:	28 2f       	mov	r18, r24
    20bc:	30 e0       	ldi	r19, 0x00	; 0
    20be:	81 e0       	ldi	r24, 0x01	; 1
    20c0:	90 e0       	ldi	r25, 0x00	; 0
    20c2:	ac 01       	movw	r20, r24
    20c4:	02 c0       	rjmp	.+4      	; 0x20ca <_ZNV6io_pin9setconfigEh+0x2da>
    20c6:	44 0f       	add	r20, r20
    20c8:	55 1f       	adc	r21, r21
    20ca:	2a 95       	dec	r18
    20cc:	e2 f7       	brpl	.-8      	; 0x20c6 <_ZNV6io_pin9setconfigEh+0x2d6>
    20ce:	9a 01       	movw	r18, r20
    20d0:	89 81       	ldd	r24, Y+1	; 0x01
    20d2:	9a 81       	ldd	r25, Y+2	; 0x02
    20d4:	fc 01       	movw	r30, r24
    20d6:	85 81       	ldd	r24, Z+5	; 0x05
    20d8:	96 81       	ldd	r25, Z+6	; 0x06
    20da:	fc 01       	movw	r30, r24
    20dc:	40 81       	ld	r20, Z
    20de:	44 2f       	mov	r20, r20
    20e0:	50 e0       	ldi	r21, 0x00	; 0
    20e2:	24 2b       	or	r18, r20
    20e4:	35 2b       	or	r19, r21
    20e6:	fc 01       	movw	r30, r24
    20e8:	20 83       	st	Z, r18
    20ea:	89 81       	ldd	r24, Y+1	; 0x01
    20ec:	9a 81       	ldd	r25, Y+2	; 0x02
    20ee:	fc 01       	movw	r30, r24
    20f0:	87 81       	ldd	r24, Z+7	; 0x07
    20f2:	28 2f       	mov	r18, r24
    20f4:	30 e0       	ldi	r19, 0x00	; 0
    20f6:	81 e0       	ldi	r24, 0x01	; 1
    20f8:	90 e0       	ldi	r25, 0x00	; 0
    20fa:	ac 01       	movw	r20, r24
    20fc:	02 c0       	rjmp	.+4      	; 0x2102 <_ZNV6io_pin9setconfigEh+0x312>
    20fe:	44 0f       	add	r20, r20
    2100:	55 1f       	adc	r21, r21
    2102:	2a 95       	dec	r18
    2104:	e2 f7       	brpl	.-8      	; 0x20fe <_ZNV6io_pin9setconfigEh+0x30e>
    2106:	9a 01       	movw	r18, r20
    2108:	89 81       	ldd	r24, Y+1	; 0x01
    210a:	9a 81       	ldd	r25, Y+2	; 0x02
    210c:	fc 01       	movw	r30, r24
    210e:	83 81       	ldd	r24, Z+3	; 0x03
    2110:	94 81       	ldd	r25, Z+4	; 0x04
    2112:	fc 01       	movw	r30, r24
    2114:	40 81       	ld	r20, Z
    2116:	44 2f       	mov	r20, r20
    2118:	50 e0       	ldi	r21, 0x00	; 0
    211a:	24 2b       	or	r18, r20
    211c:	35 2b       	or	r19, r21
    211e:	fc 01       	movw	r30, r24
    2120:	20 83       	st	Z, r18
    2122:	00 c0       	rjmp	.+0      	; 0x2124 <_ZNV6io_pin9setconfigEh+0x334>
    2124:	89 81       	ldd	r24, Y+1	; 0x01
    2126:	9a 81       	ldd	r25, Y+2	; 0x02
    2128:	2b 81       	ldd	r18, Y+3	; 0x03
    212a:	fc 01       	movw	r30, r24
    212c:	20 83       	st	Z, r18
    212e:	0f 90       	pop	r0
    2130:	0f 90       	pop	r0
    2132:	0f 90       	pop	r0
    2134:	df 91       	pop	r29
    2136:	cf 91       	pop	r28
    2138:	08 95       	ret

0000213a <_ZNV6io_pin9getconfigEv>:
    213a:	cf 93       	push	r28
    213c:	df 93       	push	r29
    213e:	1f 92       	push	r1
    2140:	1f 92       	push	r1
    2142:	cd b7       	in	r28, 0x3d	; 61
    2144:	de b7       	in	r29, 0x3e	; 62
    2146:	9a 83       	std	Y+2, r25	; 0x02
    2148:	89 83       	std	Y+1, r24	; 0x01
    214a:	89 81       	ldd	r24, Y+1	; 0x01
    214c:	9a 81       	ldd	r25, Y+2	; 0x02
    214e:	fc 01       	movw	r30, r24
    2150:	80 81       	ld	r24, Z
    2152:	0f 90       	pop	r0
    2154:	0f 90       	pop	r0
    2156:	df 91       	pop	r29
    2158:	cf 91       	pop	r28
    215a:	08 95       	ret

0000215c <_ZNV6io_pin7triggerEv>:
    215c:	cf 93       	push	r28
    215e:	df 93       	push	r29
    2160:	1f 92       	push	r1
    2162:	1f 92       	push	r1
    2164:	cd b7       	in	r28, 0x3d	; 61
    2166:	de b7       	in	r29, 0x3e	; 62
    2168:	9a 83       	std	Y+2, r25	; 0x02
    216a:	89 83       	std	Y+1, r24	; 0x01
    216c:	89 81       	ldd	r24, Y+1	; 0x01
    216e:	9a 81       	ldd	r25, Y+2	; 0x02
    2170:	fc 01       	movw	r30, r24
    2172:	90 81       	ld	r25, Z
    2174:	81 e0       	ldi	r24, 0x01	; 1
    2176:	94 30       	cpi	r25, 0x04	; 4
    2178:	09 f0       	breq	.+2      	; 0x217c <_ZNV6io_pin7triggerEv+0x20>
    217a:	80 e0       	ldi	r24, 0x00	; 0
    217c:	88 23       	and	r24, r24
    217e:	09 f4       	brne	.+2      	; 0x2182 <_ZNV6io_pin7triggerEv+0x26>
    2180:	5b c0       	rjmp	.+182    	; 0x2238 <__stack+0x39>
    2182:	89 81       	ldd	r24, Y+1	; 0x01
    2184:	9a 81       	ldd	r25, Y+2	; 0x02
    2186:	fc 01       	movw	r30, r24
    2188:	21 85       	ldd	r18, Z+9	; 0x09
    218a:	89 81       	ldd	r24, Y+1	; 0x01
    218c:	9a 81       	ldd	r25, Y+2	; 0x02
    218e:	fc 01       	movw	r30, r24
    2190:	90 85       	ldd	r25, Z+8	; 0x08
    2192:	81 e0       	ldi	r24, 0x01	; 1
    2194:	92 17       	cp	r25, r18
    2196:	08 f0       	brcs	.+2      	; 0x219a <_ZNV6io_pin7triggerEv+0x3e>
    2198:	80 e0       	ldi	r24, 0x00	; 0
    219a:	88 23       	and	r24, r24
    219c:	f1 f0       	breq	.+60     	; 0x21da <_ZNV6io_pin7triggerEv+0x7e>
    219e:	89 81       	ldd	r24, Y+1	; 0x01
    21a0:	9a 81       	ldd	r25, Y+2	; 0x02
    21a2:	fc 01       	movw	r30, r24
    21a4:	87 81       	ldd	r24, Z+7	; 0x07
    21a6:	28 2f       	mov	r18, r24
    21a8:	30 e0       	ldi	r19, 0x00	; 0
    21aa:	81 e0       	ldi	r24, 0x01	; 1
    21ac:	90 e0       	ldi	r25, 0x00	; 0
    21ae:	02 c0       	rjmp	.+4      	; 0x21b4 <_ZNV6io_pin7triggerEv+0x58>
    21b0:	88 0f       	add	r24, r24
    21b2:	99 1f       	adc	r25, r25
    21b4:	2a 95       	dec	r18
    21b6:	e2 f7       	brpl	.-8      	; 0x21b0 <_ZNV6io_pin7triggerEv+0x54>
    21b8:	9c 01       	movw	r18, r24
    21ba:	20 95       	com	r18
    21bc:	30 95       	com	r19
    21be:	89 81       	ldd	r24, Y+1	; 0x01
    21c0:	9a 81       	ldd	r25, Y+2	; 0x02
    21c2:	fc 01       	movw	r30, r24
    21c4:	83 81       	ldd	r24, Z+3	; 0x03
    21c6:	94 81       	ldd	r25, Z+4	; 0x04
    21c8:	fc 01       	movw	r30, r24
    21ca:	40 81       	ld	r20, Z
    21cc:	44 2f       	mov	r20, r20
    21ce:	50 e0       	ldi	r21, 0x00	; 0
    21d0:	24 23       	and	r18, r20
    21d2:	35 23       	and	r19, r21
    21d4:	fc 01       	movw	r30, r24
    21d6:	20 83       	st	Z, r18
    21d8:	93 c0       	rjmp	.+294    	; 0x2300 <__stack+0x101>
    21da:	89 81       	ldd	r24, Y+1	; 0x01
    21dc:	9a 81       	ldd	r25, Y+2	; 0x02
    21de:	fc 01       	movw	r30, r24
    21e0:	81 85       	ldd	r24, Z+9	; 0x09
    21e2:	88 23       	and	r24, r24
    21e4:	41 f4       	brne	.+16     	; 0x21f6 <_ZNV6io_pin7triggerEv+0x9a>
    21e6:	89 81       	ldd	r24, Y+1	; 0x01
    21e8:	9a 81       	ldd	r25, Y+2	; 0x02
    21ea:	fc 01       	movw	r30, r24
    21ec:	80 85       	ldd	r24, Z+8	; 0x08
    21ee:	88 23       	and	r24, r24
    21f0:	11 f0       	breq	.+4      	; 0x21f6 <_ZNV6io_pin7triggerEv+0x9a>
    21f2:	81 e0       	ldi	r24, 0x01	; 1
    21f4:	01 c0       	rjmp	.+2      	; 0x21f8 <_ZNV6io_pin7triggerEv+0x9c>
    21f6:	80 e0       	ldi	r24, 0x00	; 0
    21f8:	88 23       	and	r24, r24
    21fa:	09 f4       	brne	.+2      	; 0x21fe <_ZNV6io_pin7triggerEv+0xa2>
    21fc:	81 c0       	rjmp	.+258    	; 0x2300 <__stack+0x101>
    21fe:	89 81       	ldd	r24, Y+1	; 0x01
    2200:	9a 81       	ldd	r25, Y+2	; 0x02
    2202:	fc 01       	movw	r30, r24
    2204:	87 81       	ldd	r24, Z+7	; 0x07
    2206:	28 2f       	mov	r18, r24
    2208:	30 e0       	ldi	r19, 0x00	; 0
    220a:	81 e0       	ldi	r24, 0x01	; 1
    220c:	90 e0       	ldi	r25, 0x00	; 0
    220e:	ac 01       	movw	r20, r24
    2210:	02 c0       	rjmp	.+4      	; 0x2216 <__stack+0x17>
    2212:	44 0f       	add	r20, r20
    2214:	55 1f       	adc	r21, r21
    2216:	2a 95       	dec	r18
    2218:	e2 f7       	brpl	.-8      	; 0x2212 <__stack+0x13>
    221a:	9a 01       	movw	r18, r20
    221c:	89 81       	ldd	r24, Y+1	; 0x01
    221e:	9a 81       	ldd	r25, Y+2	; 0x02
    2220:	fc 01       	movw	r30, r24
    2222:	83 81       	ldd	r24, Z+3	; 0x03
    2224:	94 81       	ldd	r25, Z+4	; 0x04
    2226:	fc 01       	movw	r30, r24
    2228:	40 81       	ld	r20, Z
    222a:	44 2f       	mov	r20, r20
    222c:	50 e0       	ldi	r21, 0x00	; 0
    222e:	24 2b       	or	r18, r20
    2230:	35 2b       	or	r19, r21
    2232:	fc 01       	movw	r30, r24
    2234:	20 83       	st	Z, r18
    2236:	64 c0       	rjmp	.+200    	; 0x2300 <__stack+0x101>
    2238:	89 81       	ldd	r24, Y+1	; 0x01
    223a:	9a 81       	ldd	r25, Y+2	; 0x02
    223c:	fc 01       	movw	r30, r24
    223e:	90 81       	ld	r25, Z
    2240:	81 e0       	ldi	r24, 0x01	; 1
    2242:	95 30       	cpi	r25, 0x05	; 5
    2244:	09 f0       	breq	.+2      	; 0x2248 <__stack+0x49>
    2246:	80 e0       	ldi	r24, 0x00	; 0
    2248:	88 23       	and	r24, r24
    224a:	09 f4       	brne	.+2      	; 0x224e <__stack+0x4f>
    224c:	59 c0       	rjmp	.+178    	; 0x2300 <__stack+0x101>
    224e:	89 81       	ldd	r24, Y+1	; 0x01
    2250:	9a 81       	ldd	r25, Y+2	; 0x02
    2252:	fc 01       	movw	r30, r24
    2254:	21 85       	ldd	r18, Z+9	; 0x09
    2256:	89 81       	ldd	r24, Y+1	; 0x01
    2258:	9a 81       	ldd	r25, Y+2	; 0x02
    225a:	fc 01       	movw	r30, r24
    225c:	90 85       	ldd	r25, Z+8	; 0x08
    225e:	81 e0       	ldi	r24, 0x01	; 1
    2260:	92 17       	cp	r25, r18
    2262:	08 f0       	brcs	.+2      	; 0x2266 <__stack+0x67>
    2264:	80 e0       	ldi	r24, 0x00	; 0
    2266:	88 23       	and	r24, r24
    2268:	e9 f0       	breq	.+58     	; 0x22a4 <__stack+0xa5>
    226a:	89 81       	ldd	r24, Y+1	; 0x01
    226c:	9a 81       	ldd	r25, Y+2	; 0x02
    226e:	fc 01       	movw	r30, r24
    2270:	87 81       	ldd	r24, Z+7	; 0x07
    2272:	28 2f       	mov	r18, r24
    2274:	30 e0       	ldi	r19, 0x00	; 0
    2276:	81 e0       	ldi	r24, 0x01	; 1
    2278:	90 e0       	ldi	r25, 0x00	; 0
    227a:	ac 01       	movw	r20, r24
    227c:	02 c0       	rjmp	.+4      	; 0x2282 <__stack+0x83>
    227e:	44 0f       	add	r20, r20
    2280:	55 1f       	adc	r21, r21
    2282:	2a 95       	dec	r18
    2284:	e2 f7       	brpl	.-8      	; 0x227e <__stack+0x7f>
    2286:	9a 01       	movw	r18, r20
    2288:	89 81       	ldd	r24, Y+1	; 0x01
    228a:	9a 81       	ldd	r25, Y+2	; 0x02
    228c:	fc 01       	movw	r30, r24
    228e:	83 81       	ldd	r24, Z+3	; 0x03
    2290:	94 81       	ldd	r25, Z+4	; 0x04
    2292:	fc 01       	movw	r30, r24
    2294:	40 81       	ld	r20, Z
    2296:	44 2f       	mov	r20, r20
    2298:	50 e0       	ldi	r21, 0x00	; 0
    229a:	24 2b       	or	r18, r20
    229c:	35 2b       	or	r19, r21
    229e:	fc 01       	movw	r30, r24
    22a0:	20 83       	st	Z, r18
    22a2:	2e c0       	rjmp	.+92     	; 0x2300 <__stack+0x101>
    22a4:	89 81       	ldd	r24, Y+1	; 0x01
    22a6:	9a 81       	ldd	r25, Y+2	; 0x02
    22a8:	fc 01       	movw	r30, r24
    22aa:	81 85       	ldd	r24, Z+9	; 0x09
    22ac:	88 23       	and	r24, r24
    22ae:	41 f4       	brne	.+16     	; 0x22c0 <__stack+0xc1>
    22b0:	89 81       	ldd	r24, Y+1	; 0x01
    22b2:	9a 81       	ldd	r25, Y+2	; 0x02
    22b4:	fc 01       	movw	r30, r24
    22b6:	80 85       	ldd	r24, Z+8	; 0x08
    22b8:	88 23       	and	r24, r24
    22ba:	11 f0       	breq	.+4      	; 0x22c0 <__stack+0xc1>
    22bc:	81 e0       	ldi	r24, 0x01	; 1
    22be:	01 c0       	rjmp	.+2      	; 0x22c2 <__stack+0xc3>
    22c0:	80 e0       	ldi	r24, 0x00	; 0
    22c2:	88 23       	and	r24, r24
    22c4:	e9 f0       	breq	.+58     	; 0x2300 <__stack+0x101>
    22c6:	89 81       	ldd	r24, Y+1	; 0x01
    22c8:	9a 81       	ldd	r25, Y+2	; 0x02
    22ca:	fc 01       	movw	r30, r24
    22cc:	87 81       	ldd	r24, Z+7	; 0x07
    22ce:	28 2f       	mov	r18, r24
    22d0:	30 e0       	ldi	r19, 0x00	; 0
    22d2:	81 e0       	ldi	r24, 0x01	; 1
    22d4:	90 e0       	ldi	r25, 0x00	; 0
    22d6:	02 c0       	rjmp	.+4      	; 0x22dc <__stack+0xdd>
    22d8:	88 0f       	add	r24, r24
    22da:	99 1f       	adc	r25, r25
    22dc:	2a 95       	dec	r18
    22de:	e2 f7       	brpl	.-8      	; 0x22d8 <__stack+0xd9>
    22e0:	9c 01       	movw	r18, r24
    22e2:	20 95       	com	r18
    22e4:	30 95       	com	r19
    22e6:	89 81       	ldd	r24, Y+1	; 0x01
    22e8:	9a 81       	ldd	r25, Y+2	; 0x02
    22ea:	fc 01       	movw	r30, r24
    22ec:	83 81       	ldd	r24, Z+3	; 0x03
    22ee:	94 81       	ldd	r25, Z+4	; 0x04
    22f0:	fc 01       	movw	r30, r24
    22f2:	40 81       	ld	r20, Z
    22f4:	44 2f       	mov	r20, r20
    22f6:	50 e0       	ldi	r21, 0x00	; 0
    22f8:	24 23       	and	r18, r20
    22fa:	35 23       	and	r19, r21
    22fc:	fc 01       	movw	r30, r24
    22fe:	20 83       	st	Z, r18
    2300:	89 81       	ldd	r24, Y+1	; 0x01
    2302:	9a 81       	ldd	r25, Y+2	; 0x02
    2304:	fc 01       	movw	r30, r24
    2306:	81 85       	ldd	r24, Z+9	; 0x09
    2308:	21 e0       	ldi	r18, 0x01	; 1
    230a:	28 0f       	add	r18, r24
    230c:	89 81       	ldd	r24, Y+1	; 0x01
    230e:	9a 81       	ldd	r25, Y+2	; 0x02
    2310:	fc 01       	movw	r30, r24
    2312:	21 87       	std	Z+9, r18	; 0x09
    2314:	0f 90       	pop	r0
    2316:	0f 90       	pop	r0
    2318:	df 91       	pop	r29
    231a:	cf 91       	pop	r28
    231c:	08 95       	ret

0000231e <_ZN4lockC1Ev>:
    231e:	cf 93       	push	r28
    2320:	df 93       	push	r29
    2322:	1f 92       	push	r1
    2324:	1f 92       	push	r1
    2326:	cd b7       	in	r28, 0x3d	; 61
    2328:	de b7       	in	r29, 0x3e	; 62
    232a:	9a 83       	std	Y+2, r25	; 0x02
    232c:	89 83       	std	Y+1, r24	; 0x01
    232e:	89 81       	ldd	r24, Y+1	; 0x01
    2330:	9a 81       	ldd	r25, Y+2	; 0x02
    2332:	fc 01       	movw	r30, r24
    2334:	10 82       	st	Z, r1
    2336:	0f 90       	pop	r0
    2338:	0f 90       	pop	r0
    233a:	df 91       	pop	r29
    233c:	cf 91       	pop	r28
    233e:	08 95       	ret

00002340 <_ZNV4lock7tryLockEv>:
    2340:	cf 93       	push	r28
    2342:	df 93       	push	r29
    2344:	1f 92       	push	r1
    2346:	1f 92       	push	r1
    2348:	cd b7       	in	r28, 0x3d	; 61
    234a:	de b7       	in	r29, 0x3e	; 62
    234c:	9a 83       	std	Y+2, r25	; 0x02
    234e:	89 83       	std	Y+1, r24	; 0x01
    2350:	01 c0       	rjmp	.+2      	; 0x2354 <_ZNV4lock7tryLockEv+0x14>
    2352:	00 00       	nop
    2354:	89 81       	ldd	r24, Y+1	; 0x01
    2356:	9a 81       	ldd	r25, Y+2	; 0x02
    2358:	fc 01       	movw	r30, r24
    235a:	80 81       	ld	r24, Z
    235c:	88 23       	and	r24, r24
    235e:	c9 f7       	brne	.-14     	; 0x2352 <_ZNV4lock7tryLockEv+0x12>
    2360:	89 81       	ldd	r24, Y+1	; 0x01
    2362:	9a 81       	ldd	r25, Y+2	; 0x02
    2364:	21 e0       	ldi	r18, 0x01	; 1
    2366:	fc 01       	movw	r30, r24
    2368:	20 83       	st	Z, r18
    236a:	0f 90       	pop	r0
    236c:	0f 90       	pop	r0
    236e:	df 91       	pop	r29
    2370:	cf 91       	pop	r28
    2372:	08 95       	ret

00002374 <_ZNV4lock6unlockEv>:
    2374:	cf 93       	push	r28
    2376:	df 93       	push	r29
    2378:	1f 92       	push	r1
    237a:	1f 92       	push	r1
    237c:	cd b7       	in	r28, 0x3d	; 61
    237e:	de b7       	in	r29, 0x3e	; 62
    2380:	9a 83       	std	Y+2, r25	; 0x02
    2382:	89 83       	std	Y+1, r24	; 0x01
    2384:	89 81       	ldd	r24, Y+1	; 0x01
    2386:	9a 81       	ldd	r25, Y+2	; 0x02
    2388:	fc 01       	movw	r30, r24
    238a:	10 82       	st	Z, r1
    238c:	0f 90       	pop	r0
    238e:	0f 90       	pop	r0
    2390:	df 91       	pop	r29
    2392:	cf 91       	pop	r28
    2394:	08 95       	ret

00002396 <main>:
    2396:	cf 93       	push	r28
    2398:	df 93       	push	r29
    239a:	1f 92       	push	r1
    239c:	1f 92       	push	r1
    239e:	cd b7       	in	r28, 0x3d	; 61
    23a0:	de b7       	in	r29, 0x3e	; 62
    23a2:	84 e5       	ldi	r24, 0x54	; 84
    23a4:	90 e0       	ldi	r25, 0x00	; 0
    23a6:	fc 01       	movw	r30, r24
    23a8:	10 82       	st	Z, r1
    23aa:	0f b6       	in	r0, 0x3f	; 63
    23ac:	f8 94       	cli
    23ae:	a8 95       	wdr
    23b0:	80 91 60 00 	lds	r24, 0x0060	; 0x800060 <__TEXT_REGION_LENGTH__+0x700060>
    23b4:	88 61       	ori	r24, 0x18	; 24
    23b6:	80 93 60 00 	sts	0x0060, r24	; 0x800060 <__TEXT_REGION_LENGTH__+0x700060>
    23ba:	10 92 60 00 	sts	0x0060, r1	; 0x800060 <__TEXT_REGION_LENGTH__+0x700060>
    23be:	0f be       	out	0x3f, r0	; 63
    23c0:	84 e2       	ldi	r24, 0x24	; 36
    23c2:	90 e0       	ldi	r25, 0x00	; 0
    23c4:	24 e2       	ldi	r18, 0x24	; 36
    23c6:	30 e0       	ldi	r19, 0x00	; 0
    23c8:	f9 01       	movw	r30, r18
    23ca:	20 81       	ld	r18, Z
    23cc:	20 68       	ori	r18, 0x80	; 128
    23ce:	fc 01       	movw	r30, r24
    23d0:	20 83       	st	Z, r18
    23d2:	18 d0       	rcall	.+48     	; 0x2404 <_Z7init_iov>
    23d4:	db d2       	rcall	.+1462   	; 0x298c <_Z13init_pwmTimerv>
    23d6:	0f d5       	rcall	.+2590   	; 0x2df6 <_Z10init_UART0v>
    23d8:	36 d5       	rcall	.+2668   	; 0x2e46 <_Z10init_UART1v>
    23da:	87 ef       	ldi	r24, 0xF7	; 247
    23dc:	89 83       	std	Y+1, r24	; 0x01
    23de:	82 e1       	ldi	r24, 0x12	; 18
    23e0:	8a 83       	std	Y+2, r24	; 0x02
    23e2:	62 e0       	ldi	r22, 0x02	; 2
    23e4:	ce 01       	movw	r24, r28
    23e6:	01 96       	adiw	r24, 0x01	; 1
    23e8:	c7 d5       	rcall	.+2958   	; 0x2f78 <_Z11serial_out0Phh>
    23ea:	05 d0       	rcall	.+10     	; 0x23f6 <_Z4testv>
    23ec:	78 94       	sei
    23ee:	87 ed       	ldi	r24, 0xD7	; 215
    23f0:	93 e0       	ldi	r25, 0x03	; 3
    23f2:	5a d8       	rcall	.-3916   	; 0x14a8 <_ZNV9cmdParser11checkparserEv>
    23f4:	fc cf       	rjmp	.-8      	; 0x23ee <main+0x58>

000023f6 <_Z4testv>:
    23f6:	cf 93       	push	r28
    23f8:	df 93       	push	r29
    23fa:	cd b7       	in	r28, 0x3d	; 61
    23fc:	de b7       	in	r29, 0x3e	; 62
    23fe:	df 91       	pop	r29
    2400:	cf 91       	pop	r28
    2402:	08 95       	ret

00002404 <_Z7init_iov>:
    2404:	ef 92       	push	r14
    2406:	ff 92       	push	r15
    2408:	0f 93       	push	r16
    240a:	cf 93       	push	r28
    240c:	df 93       	push	r29
    240e:	cd b7       	in	r28, 0x3d	; 61
    2410:	de b7       	in	r29, 0x3e	; 62
    2412:	8a e0       	ldi	r24, 0x0A	; 10
    2414:	90 e0       	ldi	r25, 0x00	; 0
    2416:	d2 d3       	rcall	.+1956   	; 0x2bbc <_Znwj>
    2418:	7c 01       	movw	r14, r24
    241a:	01 e0       	ldi	r16, 0x01	; 1
    241c:	26 e2       	ldi	r18, 0x26	; 38
    241e:	30 e0       	ldi	r19, 0x00	; 0
    2420:	48 e2       	ldi	r20, 0x28	; 40
    2422:	50 e0       	ldi	r21, 0x00	; 0
    2424:	67 e2       	ldi	r22, 0x27	; 39
    2426:	70 e0       	ldi	r23, 0x00	; 0
    2428:	c7 01       	movw	r24, r14
    242a:	a0 d9       	rcall	.-3264   	; 0x176c <_ZN6io_pinC1EPVhS1_S1_h>
    242c:	f0 92 da 03 	sts	0x03DA, r15	; 0x8003da <io+0x1>
    2430:	e0 92 d9 03 	sts	0x03D9, r14	; 0x8003d9 <io>
    2434:	8a e0       	ldi	r24, 0x0A	; 10
    2436:	90 e0       	ldi	r25, 0x00	; 0
    2438:	c1 d3       	rcall	.+1922   	; 0x2bbc <_Znwj>
    243a:	7c 01       	movw	r14, r24
    243c:	03 e0       	ldi	r16, 0x03	; 3
    243e:	26 e2       	ldi	r18, 0x26	; 38
    2440:	30 e0       	ldi	r19, 0x00	; 0
    2442:	48 e2       	ldi	r20, 0x28	; 40
    2444:	50 e0       	ldi	r21, 0x00	; 0
    2446:	67 e2       	ldi	r22, 0x27	; 39
    2448:	70 e0       	ldi	r23, 0x00	; 0
    244a:	c7 01       	movw	r24, r14
    244c:	8f d9       	rcall	.-3298   	; 0x176c <_ZN6io_pinC1EPVhS1_S1_h>
    244e:	f0 92 dc 03 	sts	0x03DC, r15	; 0x8003dc <io+0x3>
    2452:	e0 92 db 03 	sts	0x03DB, r14	; 0x8003db <io+0x2>
    2456:	8a e0       	ldi	r24, 0x0A	; 10
    2458:	90 e0       	ldi	r25, 0x00	; 0
    245a:	b0 d3       	rcall	.+1888   	; 0x2bbc <_Znwj>
    245c:	7c 01       	movw	r14, r24
    245e:	05 e0       	ldi	r16, 0x05	; 5
    2460:	26 e2       	ldi	r18, 0x26	; 38
    2462:	30 e0       	ldi	r19, 0x00	; 0
    2464:	48 e2       	ldi	r20, 0x28	; 40
    2466:	50 e0       	ldi	r21, 0x00	; 0
    2468:	67 e2       	ldi	r22, 0x27	; 39
    246a:	70 e0       	ldi	r23, 0x00	; 0
    246c:	c7 01       	movw	r24, r14
    246e:	7e d9       	rcall	.-3332   	; 0x176c <_ZN6io_pinC1EPVhS1_S1_h>
    2470:	f0 92 de 03 	sts	0x03DE, r15	; 0x8003de <io+0x5>
    2474:	e0 92 dd 03 	sts	0x03DD, r14	; 0x8003dd <io+0x4>
    2478:	8a e0       	ldi	r24, 0x0A	; 10
    247a:	90 e0       	ldi	r25, 0x00	; 0
    247c:	9f d3       	rcall	.+1854   	; 0x2bbc <_Znwj>
    247e:	7c 01       	movw	r14, r24
    2480:	07 e0       	ldi	r16, 0x07	; 7
    2482:	26 e2       	ldi	r18, 0x26	; 38
    2484:	30 e0       	ldi	r19, 0x00	; 0
    2486:	48 e2       	ldi	r20, 0x28	; 40
    2488:	50 e0       	ldi	r21, 0x00	; 0
    248a:	67 e2       	ldi	r22, 0x27	; 39
    248c:	70 e0       	ldi	r23, 0x00	; 0
    248e:	c7 01       	movw	r24, r14
    2490:	6d d9       	rcall	.-3366   	; 0x176c <_ZN6io_pinC1EPVhS1_S1_h>
    2492:	f0 92 e0 03 	sts	0x03E0, r15	; 0x8003e0 <io+0x7>
    2496:	e0 92 df 03 	sts	0x03DF, r14	; 0x8003df <io+0x6>
    249a:	8a e0       	ldi	r24, 0x0A	; 10
    249c:	90 e0       	ldi	r25, 0x00	; 0
    249e:	8e d3       	rcall	.+1820   	; 0x2bbc <_Znwj>
    24a0:	7c 01       	movw	r14, r24
    24a2:	06 e0       	ldi	r16, 0x06	; 6
    24a4:	20 e2       	ldi	r18, 0x20	; 32
    24a6:	30 e0       	ldi	r19, 0x00	; 0
    24a8:	42 e2       	ldi	r20, 0x22	; 34
    24aa:	50 e0       	ldi	r21, 0x00	; 0
    24ac:	61 e2       	ldi	r22, 0x21	; 33
    24ae:	70 e0       	ldi	r23, 0x00	; 0
    24b0:	c7 01       	movw	r24, r14
    24b2:	5c d9       	rcall	.-3400   	; 0x176c <_ZN6io_pinC1EPVhS1_S1_h>
    24b4:	f0 92 e2 03 	sts	0x03E2, r15	; 0x8003e2 <io+0x9>
    24b8:	e0 92 e1 03 	sts	0x03E1, r14	; 0x8003e1 <io+0x8>
    24bc:	8a e0       	ldi	r24, 0x0A	; 10
    24be:	90 e0       	ldi	r25, 0x00	; 0
    24c0:	7d d3       	rcall	.+1786   	; 0x2bbc <_Znwj>
    24c2:	7c 01       	movw	r14, r24
    24c4:	04 e0       	ldi	r16, 0x04	; 4
    24c6:	20 e2       	ldi	r18, 0x20	; 32
    24c8:	30 e0       	ldi	r19, 0x00	; 0
    24ca:	42 e2       	ldi	r20, 0x22	; 34
    24cc:	50 e0       	ldi	r21, 0x00	; 0
    24ce:	61 e2       	ldi	r22, 0x21	; 33
    24d0:	70 e0       	ldi	r23, 0x00	; 0
    24d2:	c7 01       	movw	r24, r14
    24d4:	4b d9       	rcall	.-3434   	; 0x176c <_ZN6io_pinC1EPVhS1_S1_h>
    24d6:	f0 92 e4 03 	sts	0x03E4, r15	; 0x8003e4 <io+0xb>
    24da:	e0 92 e3 03 	sts	0x03E3, r14	; 0x8003e3 <io+0xa>
    24de:	8a e0       	ldi	r24, 0x0A	; 10
    24e0:	90 e0       	ldi	r25, 0x00	; 0
    24e2:	6c d3       	rcall	.+1752   	; 0x2bbc <_Znwj>
    24e4:	7c 01       	movw	r14, r24
    24e6:	02 e0       	ldi	r16, 0x02	; 2
    24e8:	20 e2       	ldi	r18, 0x20	; 32
    24ea:	30 e0       	ldi	r19, 0x00	; 0
    24ec:	42 e2       	ldi	r20, 0x22	; 34
    24ee:	50 e0       	ldi	r21, 0x00	; 0
    24f0:	61 e2       	ldi	r22, 0x21	; 33
    24f2:	70 e0       	ldi	r23, 0x00	; 0
    24f4:	c7 01       	movw	r24, r14
    24f6:	3a d9       	rcall	.-3468   	; 0x176c <_ZN6io_pinC1EPVhS1_S1_h>
    24f8:	f0 92 e6 03 	sts	0x03E6, r15	; 0x8003e6 <io+0xd>
    24fc:	e0 92 e5 03 	sts	0x03E5, r14	; 0x8003e5 <io+0xc>
    2500:	8a e0       	ldi	r24, 0x0A	; 10
    2502:	90 e0       	ldi	r25, 0x00	; 0
    2504:	5b d3       	rcall	.+1718   	; 0x2bbc <_Znwj>
    2506:	7c 01       	movw	r14, r24
    2508:	00 e0       	ldi	r16, 0x00	; 0
    250a:	20 e2       	ldi	r18, 0x20	; 32
    250c:	30 e0       	ldi	r19, 0x00	; 0
    250e:	42 e2       	ldi	r20, 0x22	; 34
    2510:	50 e0       	ldi	r21, 0x00	; 0
    2512:	61 e2       	ldi	r22, 0x21	; 33
    2514:	70 e0       	ldi	r23, 0x00	; 0
    2516:	c7 01       	movw	r24, r14
    2518:	29 d9       	rcall	.-3502   	; 0x176c <_ZN6io_pinC1EPVhS1_S1_h>
    251a:	f0 92 e8 03 	sts	0x03E8, r15	; 0x8003e8 <io+0xf>
    251e:	e0 92 e7 03 	sts	0x03E7, r14	; 0x8003e7 <io+0xe>
    2522:	8a e0       	ldi	r24, 0x0A	; 10
    2524:	90 e0       	ldi	r25, 0x00	; 0
    2526:	4a d3       	rcall	.+1684   	; 0x2bbc <_Znwj>
    2528:	7c 01       	movw	r14, r24
    252a:	00 e0       	ldi	r16, 0x00	; 0
    252c:	26 e2       	ldi	r18, 0x26	; 38
    252e:	30 e0       	ldi	r19, 0x00	; 0
    2530:	48 e2       	ldi	r20, 0x28	; 40
    2532:	50 e0       	ldi	r21, 0x00	; 0
    2534:	67 e2       	ldi	r22, 0x27	; 39
    2536:	70 e0       	ldi	r23, 0x00	; 0
    2538:	c7 01       	movw	r24, r14
    253a:	18 d9       	rcall	.-3536   	; 0x176c <_ZN6io_pinC1EPVhS1_S1_h>
    253c:	f0 92 ea 03 	sts	0x03EA, r15	; 0x8003ea <io+0x11>
    2540:	e0 92 e9 03 	sts	0x03E9, r14	; 0x8003e9 <io+0x10>
    2544:	8a e0       	ldi	r24, 0x0A	; 10
    2546:	90 e0       	ldi	r25, 0x00	; 0
    2548:	39 d3       	rcall	.+1650   	; 0x2bbc <_Znwj>
    254a:	7c 01       	movw	r14, r24
    254c:	02 e0       	ldi	r16, 0x02	; 2
    254e:	26 e2       	ldi	r18, 0x26	; 38
    2550:	30 e0       	ldi	r19, 0x00	; 0
    2552:	48 e2       	ldi	r20, 0x28	; 40
    2554:	50 e0       	ldi	r21, 0x00	; 0
    2556:	67 e2       	ldi	r22, 0x27	; 39
    2558:	70 e0       	ldi	r23, 0x00	; 0
    255a:	c7 01       	movw	r24, r14
    255c:	07 d9       	rcall	.-3570   	; 0x176c <_ZN6io_pinC1EPVhS1_S1_h>
    255e:	f0 92 ec 03 	sts	0x03EC, r15	; 0x8003ec <io+0x13>
    2562:	e0 92 eb 03 	sts	0x03EB, r14	; 0x8003eb <io+0x12>
    2566:	8a e0       	ldi	r24, 0x0A	; 10
    2568:	90 e0       	ldi	r25, 0x00	; 0
    256a:	28 d3       	rcall	.+1616   	; 0x2bbc <_Znwj>
    256c:	7c 01       	movw	r14, r24
    256e:	04 e0       	ldi	r16, 0x04	; 4
    2570:	26 e2       	ldi	r18, 0x26	; 38
    2572:	30 e0       	ldi	r19, 0x00	; 0
    2574:	48 e2       	ldi	r20, 0x28	; 40
    2576:	50 e0       	ldi	r21, 0x00	; 0
    2578:	67 e2       	ldi	r22, 0x27	; 39
    257a:	70 e0       	ldi	r23, 0x00	; 0
    257c:	c7 01       	movw	r24, r14
    257e:	f6 d8       	rcall	.-3604   	; 0x176c <_ZN6io_pinC1EPVhS1_S1_h>
    2580:	f0 92 ee 03 	sts	0x03EE, r15	; 0x8003ee <io+0x15>
    2584:	e0 92 ed 03 	sts	0x03ED, r14	; 0x8003ed <io+0x14>
    2588:	8a e0       	ldi	r24, 0x0A	; 10
    258a:	90 e0       	ldi	r25, 0x00	; 0
    258c:	17 d3       	rcall	.+1582   	; 0x2bbc <_Znwj>
    258e:	7c 01       	movw	r14, r24
    2590:	06 e0       	ldi	r16, 0x06	; 6
    2592:	26 e2       	ldi	r18, 0x26	; 38
    2594:	30 e0       	ldi	r19, 0x00	; 0
    2596:	48 e2       	ldi	r20, 0x28	; 40
    2598:	50 e0       	ldi	r21, 0x00	; 0
    259a:	67 e2       	ldi	r22, 0x27	; 39
    259c:	70 e0       	ldi	r23, 0x00	; 0
    259e:	c7 01       	movw	r24, r14
    25a0:	e5 d8       	rcall	.-3638   	; 0x176c <_ZN6io_pinC1EPVhS1_S1_h>
    25a2:	f0 92 f0 03 	sts	0x03F0, r15	; 0x8003f0 <io+0x17>
    25a6:	e0 92 ef 03 	sts	0x03EF, r14	; 0x8003ef <io+0x16>
    25aa:	8a e0       	ldi	r24, 0x0A	; 10
    25ac:	90 e0       	ldi	r25, 0x00	; 0
    25ae:	06 d3       	rcall	.+1548   	; 0x2bbc <_Znwj>
    25b0:	7c 01       	movw	r14, r24
    25b2:	07 e0       	ldi	r16, 0x07	; 7
    25b4:	20 e2       	ldi	r18, 0x20	; 32
    25b6:	30 e0       	ldi	r19, 0x00	; 0
    25b8:	42 e2       	ldi	r20, 0x22	; 34
    25ba:	50 e0       	ldi	r21, 0x00	; 0
    25bc:	61 e2       	ldi	r22, 0x21	; 33
    25be:	70 e0       	ldi	r23, 0x00	; 0
    25c0:	c7 01       	movw	r24, r14
    25c2:	d4 d8       	rcall	.-3672   	; 0x176c <_ZN6io_pinC1EPVhS1_S1_h>
    25c4:	f0 92 f2 03 	sts	0x03F2, r15	; 0x8003f2 <io+0x19>
    25c8:	e0 92 f1 03 	sts	0x03F1, r14	; 0x8003f1 <io+0x18>
    25cc:	8a e0       	ldi	r24, 0x0A	; 10
    25ce:	90 e0       	ldi	r25, 0x00	; 0
    25d0:	f5 d2       	rcall	.+1514   	; 0x2bbc <_Znwj>
    25d2:	7c 01       	movw	r14, r24
    25d4:	05 e0       	ldi	r16, 0x05	; 5
    25d6:	20 e2       	ldi	r18, 0x20	; 32
    25d8:	30 e0       	ldi	r19, 0x00	; 0
    25da:	42 e2       	ldi	r20, 0x22	; 34
    25dc:	50 e0       	ldi	r21, 0x00	; 0
    25de:	61 e2       	ldi	r22, 0x21	; 33
    25e0:	70 e0       	ldi	r23, 0x00	; 0
    25e2:	c7 01       	movw	r24, r14
    25e4:	c3 d8       	rcall	.-3706   	; 0x176c <_ZN6io_pinC1EPVhS1_S1_h>
    25e6:	f0 92 f4 03 	sts	0x03F4, r15	; 0x8003f4 <io+0x1b>
    25ea:	e0 92 f3 03 	sts	0x03F3, r14	; 0x8003f3 <io+0x1a>
    25ee:	8a e0       	ldi	r24, 0x0A	; 10
    25f0:	90 e0       	ldi	r25, 0x00	; 0
    25f2:	e4 d2       	rcall	.+1480   	; 0x2bbc <_Znwj>
    25f4:	7c 01       	movw	r14, r24
    25f6:	03 e0       	ldi	r16, 0x03	; 3
    25f8:	20 e2       	ldi	r18, 0x20	; 32
    25fa:	30 e0       	ldi	r19, 0x00	; 0
    25fc:	42 e2       	ldi	r20, 0x22	; 34
    25fe:	50 e0       	ldi	r21, 0x00	; 0
    2600:	61 e2       	ldi	r22, 0x21	; 33
    2602:	70 e0       	ldi	r23, 0x00	; 0
    2604:	c7 01       	movw	r24, r14
    2606:	b2 d8       	rcall	.-3740   	; 0x176c <_ZN6io_pinC1EPVhS1_S1_h>
    2608:	f0 92 f6 03 	sts	0x03F6, r15	; 0x8003f6 <io+0x1d>
    260c:	e0 92 f5 03 	sts	0x03F5, r14	; 0x8003f5 <io+0x1c>
    2610:	8a e0       	ldi	r24, 0x0A	; 10
    2612:	90 e0       	ldi	r25, 0x00	; 0
    2614:	d3 d2       	rcall	.+1446   	; 0x2bbc <_Znwj>
    2616:	7c 01       	movw	r14, r24
    2618:	01 e0       	ldi	r16, 0x01	; 1
    261a:	20 e2       	ldi	r18, 0x20	; 32
    261c:	30 e0       	ldi	r19, 0x00	; 0
    261e:	42 e2       	ldi	r20, 0x22	; 34
    2620:	50 e0       	ldi	r21, 0x00	; 0
    2622:	61 e2       	ldi	r22, 0x21	; 33
    2624:	70 e0       	ldi	r23, 0x00	; 0
    2626:	c7 01       	movw	r24, r14
    2628:	a1 d8       	rcall	.-3774   	; 0x176c <_ZN6io_pinC1EPVhS1_S1_h>
    262a:	f0 92 f8 03 	sts	0x03F8, r15	; 0x8003f8 <io+0x1f>
    262e:	e0 92 f7 03 	sts	0x03F7, r14	; 0x8003f7 <io+0x1e>
    2632:	8a e0       	ldi	r24, 0x0A	; 10
    2634:	90 e0       	ldi	r25, 0x00	; 0
    2636:	c2 d2       	rcall	.+1412   	; 0x2bbc <_Znwj>
    2638:	7c 01       	movw	r14, r24
    263a:	07 e0       	ldi	r16, 0x07	; 7
    263c:	29 e2       	ldi	r18, 0x29	; 41
    263e:	30 e0       	ldi	r19, 0x00	; 0
    2640:	4b e2       	ldi	r20, 0x2B	; 43
    2642:	50 e0       	ldi	r21, 0x00	; 0
    2644:	6a e2       	ldi	r22, 0x2A	; 42
    2646:	70 e0       	ldi	r23, 0x00	; 0
    2648:	c7 01       	movw	r24, r14
    264a:	90 d8       	rcall	.-3808   	; 0x176c <_ZN6io_pinC1EPVhS1_S1_h>
    264c:	f0 92 fa 03 	sts	0x03FA, r15	; 0x8003fa <io+0x21>
    2650:	e0 92 f9 03 	sts	0x03F9, r14	; 0x8003f9 <io+0x20>
    2654:	8a e0       	ldi	r24, 0x0A	; 10
    2656:	90 e0       	ldi	r25, 0x00	; 0
    2658:	b1 d2       	rcall	.+1378   	; 0x2bbc <_Znwj>
    265a:	7c 01       	movw	r14, r24
    265c:	01 e0       	ldi	r16, 0x01	; 1
    265e:	22 e3       	ldi	r18, 0x32	; 50
    2660:	30 e0       	ldi	r19, 0x00	; 0
    2662:	44 e3       	ldi	r20, 0x34	; 52
    2664:	50 e0       	ldi	r21, 0x00	; 0
    2666:	63 e3       	ldi	r22, 0x33	; 51
    2668:	70 e0       	ldi	r23, 0x00	; 0
    266a:	c7 01       	movw	r24, r14
    266c:	7f d8       	rcall	.-3842   	; 0x176c <_ZN6io_pinC1EPVhS1_S1_h>
    266e:	f0 92 fc 03 	sts	0x03FC, r15	; 0x8003fc <io+0x23>
    2672:	e0 92 fb 03 	sts	0x03FB, r14	; 0x8003fb <io+0x22>
    2676:	8a e0       	ldi	r24, 0x0A	; 10
    2678:	90 e0       	ldi	r25, 0x00	; 0
    267a:	a0 d2       	rcall	.+1344   	; 0x2bbc <_Znwj>
    267c:	7c 01       	movw	r14, r24
    267e:	07 e0       	ldi	r16, 0x07	; 7
    2680:	29 e0       	ldi	r18, 0x09	; 9
    2682:	31 e0       	ldi	r19, 0x01	; 1
    2684:	4b e0       	ldi	r20, 0x0B	; 11
    2686:	51 e0       	ldi	r21, 0x01	; 1
    2688:	6a e0       	ldi	r22, 0x0A	; 10
    268a:	71 e0       	ldi	r23, 0x01	; 1
    268c:	c7 01       	movw	r24, r14
    268e:	6e d8       	rcall	.-3876   	; 0x176c <_ZN6io_pinC1EPVhS1_S1_h>
    2690:	f0 92 fe 03 	sts	0x03FE, r15	; 0x8003fe <io+0x25>
    2694:	e0 92 fd 03 	sts	0x03FD, r14	; 0x8003fd <io+0x24>
    2698:	8a e0       	ldi	r24, 0x0A	; 10
    269a:	90 e0       	ldi	r25, 0x00	; 0
    269c:	8f d2       	rcall	.+1310   	; 0x2bbc <_Znwj>
    269e:	7c 01       	movw	r14, r24
    26a0:	05 e0       	ldi	r16, 0x05	; 5
    26a2:	29 e0       	ldi	r18, 0x09	; 9
    26a4:	31 e0       	ldi	r19, 0x01	; 1
    26a6:	4b e0       	ldi	r20, 0x0B	; 11
    26a8:	51 e0       	ldi	r21, 0x01	; 1
    26aa:	6a e0       	ldi	r22, 0x0A	; 10
    26ac:	71 e0       	ldi	r23, 0x01	; 1
    26ae:	c7 01       	movw	r24, r14
    26b0:	5d d8       	rcall	.-3910   	; 0x176c <_ZN6io_pinC1EPVhS1_S1_h>
    26b2:	f0 92 00 04 	sts	0x0400, r15	; 0x800400 <io+0x27>
    26b6:	e0 92 ff 03 	sts	0x03FF, r14	; 0x8003ff <io+0x26>
    26ba:	8a e0       	ldi	r24, 0x0A	; 10
    26bc:	90 e0       	ldi	r25, 0x00	; 0
    26be:	7e d2       	rcall	.+1276   	; 0x2bbc <_Znwj>
    26c0:	7c 01       	movw	r14, r24
    26c2:	03 e0       	ldi	r16, 0x03	; 3
    26c4:	29 e0       	ldi	r18, 0x09	; 9
    26c6:	31 e0       	ldi	r19, 0x01	; 1
    26c8:	4b e0       	ldi	r20, 0x0B	; 11
    26ca:	51 e0       	ldi	r21, 0x01	; 1
    26cc:	6a e0       	ldi	r22, 0x0A	; 10
    26ce:	71 e0       	ldi	r23, 0x01	; 1
    26d0:	c7 01       	movw	r24, r14
    26d2:	4c d8       	rcall	.-3944   	; 0x176c <_ZN6io_pinC1EPVhS1_S1_h>
    26d4:	f0 92 02 04 	sts	0x0402, r15	; 0x800402 <io+0x29>
    26d8:	e0 92 01 04 	sts	0x0401, r14	; 0x800401 <io+0x28>
    26dc:	8a e0       	ldi	r24, 0x0A	; 10
    26de:	90 e0       	ldi	r25, 0x00	; 0
    26e0:	6d d2       	rcall	.+1242   	; 0x2bbc <_Znwj>
    26e2:	7c 01       	movw	r14, r24
    26e4:	01 e0       	ldi	r16, 0x01	; 1
    26e6:	29 e0       	ldi	r18, 0x09	; 9
    26e8:	31 e0       	ldi	r19, 0x01	; 1
    26ea:	4b e0       	ldi	r20, 0x0B	; 11
    26ec:	51 e0       	ldi	r21, 0x01	; 1
    26ee:	6a e0       	ldi	r22, 0x0A	; 10
    26f0:	71 e0       	ldi	r23, 0x01	; 1
    26f2:	c7 01       	movw	r24, r14
    26f4:	3b d8       	rcall	.-3978   	; 0x176c <_ZN6io_pinC1EPVhS1_S1_h>
    26f6:	f0 92 04 04 	sts	0x0404, r15	; 0x800404 <io+0x2b>
    26fa:	e0 92 03 04 	sts	0x0403, r14	; 0x800403 <io+0x2a>
    26fe:	8a e0       	ldi	r24, 0x0A	; 10
    2700:	90 e0       	ldi	r25, 0x00	; 0
    2702:	5c d2       	rcall	.+1208   	; 0x2bbc <_Znwj>
    2704:	7c 01       	movw	r14, r24
    2706:	03 e0       	ldi	r16, 0x03	; 3
    2708:	23 e2       	ldi	r18, 0x23	; 35
    270a:	30 e0       	ldi	r19, 0x00	; 0
    270c:	45 e2       	ldi	r20, 0x25	; 37
    270e:	50 e0       	ldi	r21, 0x00	; 0
    2710:	64 e2       	ldi	r22, 0x24	; 36
    2712:	70 e0       	ldi	r23, 0x00	; 0
    2714:	c7 01       	movw	r24, r14
    2716:	2a d8       	rcall	.-4012   	; 0x176c <_ZN6io_pinC1EPVhS1_S1_h>
    2718:	f0 92 06 04 	sts	0x0406, r15	; 0x800406 <io+0x2d>
    271c:	e0 92 05 04 	sts	0x0405, r14	; 0x800405 <io+0x2c>
    2720:	8a e0       	ldi	r24, 0x0A	; 10
    2722:	90 e0       	ldi	r25, 0x00	; 0
    2724:	4b d2       	rcall	.+1174   	; 0x2bbc <_Znwj>
    2726:	7c 01       	movw	r14, r24
    2728:	01 e0       	ldi	r16, 0x01	; 1
    272a:	23 e2       	ldi	r18, 0x23	; 35
    272c:	30 e0       	ldi	r19, 0x00	; 0
    272e:	45 e2       	ldi	r20, 0x25	; 37
    2730:	50 e0       	ldi	r21, 0x00	; 0
    2732:	64 e2       	ldi	r22, 0x24	; 36
    2734:	70 e0       	ldi	r23, 0x00	; 0
    2736:	c7 01       	movw	r24, r14
    2738:	19 d8       	rcall	.-4046   	; 0x176c <_ZN6io_pinC1EPVhS1_S1_h>
    273a:	f0 92 08 04 	sts	0x0408, r15	; 0x800408 <io+0x2f>
    273e:	e0 92 07 04 	sts	0x0407, r14	; 0x800407 <io+0x2e>
    2742:	8a e0       	ldi	r24, 0x0A	; 10
    2744:	90 e0       	ldi	r25, 0x00	; 0
    2746:	3a d2       	rcall	.+1140   	; 0x2bbc <_Znwj>
    2748:	7c 01       	movw	r14, r24
    274a:	02 e0       	ldi	r16, 0x02	; 2
    274c:	22 e3       	ldi	r18, 0x32	; 50
    274e:	30 e0       	ldi	r19, 0x00	; 0
    2750:	44 e3       	ldi	r20, 0x34	; 52
    2752:	50 e0       	ldi	r21, 0x00	; 0
    2754:	63 e3       	ldi	r22, 0x33	; 51
    2756:	70 e0       	ldi	r23, 0x00	; 0
    2758:	c7 01       	movw	r24, r14
    275a:	08 d8       	rcall	.-4080   	; 0x176c <_ZN6io_pinC1EPVhS1_S1_h>
    275c:	f0 92 0a 04 	sts	0x040A, r15	; 0x80040a <io+0x31>
    2760:	e0 92 09 04 	sts	0x0409, r14	; 0x800409 <io+0x30>
    2764:	8a e0       	ldi	r24, 0x0A	; 10
    2766:	90 e0       	ldi	r25, 0x00	; 0
    2768:	29 d2       	rcall	.+1106   	; 0x2bbc <_Znwj>
    276a:	7c 01       	movw	r14, r24
    276c:	00 e0       	ldi	r16, 0x00	; 0
    276e:	22 e3       	ldi	r18, 0x32	; 50
    2770:	30 e0       	ldi	r19, 0x00	; 0
    2772:	44 e3       	ldi	r20, 0x34	; 52
    2774:	50 e0       	ldi	r21, 0x00	; 0
    2776:	63 e3       	ldi	r22, 0x33	; 51
    2778:	70 e0       	ldi	r23, 0x00	; 0
    277a:	c7 01       	movw	r24, r14
    277c:	0e 94 b6 0b 	call	0x176c	; 0x176c <_ZN6io_pinC1EPVhS1_S1_h>
    2780:	f0 92 0c 04 	sts	0x040C, r15	; 0x80040c <io+0x33>
    2784:	e0 92 0b 04 	sts	0x040B, r14	; 0x80040b <io+0x32>
    2788:	8a e0       	ldi	r24, 0x0A	; 10
    278a:	90 e0       	ldi	r25, 0x00	; 0
    278c:	17 d2       	rcall	.+1070   	; 0x2bbc <_Znwj>
    278e:	7c 01       	movw	r14, r24
    2790:	06 e0       	ldi	r16, 0x06	; 6
    2792:	29 e0       	ldi	r18, 0x09	; 9
    2794:	31 e0       	ldi	r19, 0x01	; 1
    2796:	4b e0       	ldi	r20, 0x0B	; 11
    2798:	51 e0       	ldi	r21, 0x01	; 1
    279a:	6a e0       	ldi	r22, 0x0A	; 10
    279c:	71 e0       	ldi	r23, 0x01	; 1
    279e:	c7 01       	movw	r24, r14
    27a0:	0e 94 b6 0b 	call	0x176c	; 0x176c <_ZN6io_pinC1EPVhS1_S1_h>
    27a4:	f0 92 0e 04 	sts	0x040E, r15	; 0x80040e <io+0x35>
    27a8:	e0 92 0d 04 	sts	0x040D, r14	; 0x80040d <io+0x34>
    27ac:	8a e0       	ldi	r24, 0x0A	; 10
    27ae:	90 e0       	ldi	r25, 0x00	; 0
    27b0:	05 d2       	rcall	.+1034   	; 0x2bbc <_Znwj>
    27b2:	7c 01       	movw	r14, r24
    27b4:	04 e0       	ldi	r16, 0x04	; 4
    27b6:	29 e0       	ldi	r18, 0x09	; 9
    27b8:	31 e0       	ldi	r19, 0x01	; 1
    27ba:	4b e0       	ldi	r20, 0x0B	; 11
    27bc:	51 e0       	ldi	r21, 0x01	; 1
    27be:	6a e0       	ldi	r22, 0x0A	; 10
    27c0:	71 e0       	ldi	r23, 0x01	; 1
    27c2:	c7 01       	movw	r24, r14
    27c4:	0e 94 b6 0b 	call	0x176c	; 0x176c <_ZN6io_pinC1EPVhS1_S1_h>
    27c8:	f0 92 10 04 	sts	0x0410, r15	; 0x800410 <io+0x37>
    27cc:	e0 92 0f 04 	sts	0x040F, r14	; 0x80040f <io+0x36>
    27d0:	8a e0       	ldi	r24, 0x0A	; 10
    27d2:	90 e0       	ldi	r25, 0x00	; 0
    27d4:	f3 d1       	rcall	.+998    	; 0x2bbc <_Znwj>
    27d6:	7c 01       	movw	r14, r24
    27d8:	02 e0       	ldi	r16, 0x02	; 2
    27da:	29 e0       	ldi	r18, 0x09	; 9
    27dc:	31 e0       	ldi	r19, 0x01	; 1
    27de:	4b e0       	ldi	r20, 0x0B	; 11
    27e0:	51 e0       	ldi	r21, 0x01	; 1
    27e2:	6a e0       	ldi	r22, 0x0A	; 10
    27e4:	71 e0       	ldi	r23, 0x01	; 1
    27e6:	c7 01       	movw	r24, r14
    27e8:	0e 94 b6 0b 	call	0x176c	; 0x176c <_ZN6io_pinC1EPVhS1_S1_h>
    27ec:	f0 92 12 04 	sts	0x0412, r15	; 0x800412 <io+0x39>
    27f0:	e0 92 11 04 	sts	0x0411, r14	; 0x800411 <io+0x38>
    27f4:	8a e0       	ldi	r24, 0x0A	; 10
    27f6:	90 e0       	ldi	r25, 0x00	; 0
    27f8:	e1 d1       	rcall	.+962    	; 0x2bbc <_Znwj>
    27fa:	7c 01       	movw	r14, r24
    27fc:	00 e0       	ldi	r16, 0x00	; 0
    27fe:	29 e0       	ldi	r18, 0x09	; 9
    2800:	31 e0       	ldi	r19, 0x01	; 1
    2802:	4b e0       	ldi	r20, 0x0B	; 11
    2804:	51 e0       	ldi	r21, 0x01	; 1
    2806:	6a e0       	ldi	r22, 0x0A	; 10
    2808:	71 e0       	ldi	r23, 0x01	; 1
    280a:	c7 01       	movw	r24, r14
    280c:	0e 94 b6 0b 	call	0x176c	; 0x176c <_ZN6io_pinC1EPVhS1_S1_h>
    2810:	f0 92 14 04 	sts	0x0414, r15	; 0x800414 <io+0x3b>
    2814:	e0 92 13 04 	sts	0x0413, r14	; 0x800413 <io+0x3a>
    2818:	8a e0       	ldi	r24, 0x0A	; 10
    281a:	90 e0       	ldi	r25, 0x00	; 0
    281c:	cf d1       	rcall	.+926    	; 0x2bbc <_Znwj>
    281e:	7c 01       	movw	r14, r24
    2820:	02 e0       	ldi	r16, 0x02	; 2
    2822:	23 e2       	ldi	r18, 0x23	; 35
    2824:	30 e0       	ldi	r19, 0x00	; 0
    2826:	45 e2       	ldi	r20, 0x25	; 37
    2828:	50 e0       	ldi	r21, 0x00	; 0
    282a:	64 e2       	ldi	r22, 0x24	; 36
    282c:	70 e0       	ldi	r23, 0x00	; 0
    282e:	c7 01       	movw	r24, r14
    2830:	0e 94 b6 0b 	call	0x176c	; 0x176c <_ZN6io_pinC1EPVhS1_S1_h>
    2834:	f0 92 16 04 	sts	0x0416, r15	; 0x800416 <io+0x3d>
    2838:	e0 92 15 04 	sts	0x0415, r14	; 0x800415 <io+0x3c>
    283c:	8a e0       	ldi	r24, 0x0A	; 10
    283e:	90 e0       	ldi	r25, 0x00	; 0
    2840:	bd d1       	rcall	.+890    	; 0x2bbc <_Znwj>
    2842:	7c 01       	movw	r14, r24
    2844:	00 e0       	ldi	r16, 0x00	; 0
    2846:	23 e2       	ldi	r18, 0x23	; 35
    2848:	30 e0       	ldi	r19, 0x00	; 0
    284a:	45 e2       	ldi	r20, 0x25	; 37
    284c:	50 e0       	ldi	r21, 0x00	; 0
    284e:	64 e2       	ldi	r22, 0x24	; 36
    2850:	70 e0       	ldi	r23, 0x00	; 0
    2852:	c7 01       	movw	r24, r14
    2854:	0e 94 b6 0b 	call	0x176c	; 0x176c <_ZN6io_pinC1EPVhS1_S1_h>
    2858:	f0 92 18 04 	sts	0x0418, r15	; 0x800418 <io+0x3f>
    285c:	e0 92 17 04 	sts	0x0417, r14	; 0x800417 <io+0x3e>
    2860:	8a e0       	ldi	r24, 0x0A	; 10
    2862:	90 e0       	ldi	r25, 0x00	; 0
    2864:	ab d1       	rcall	.+854    	; 0x2bbc <_Znwj>
    2866:	7c 01       	movw	r14, r24
    2868:	04 e0       	ldi	r16, 0x04	; 4
    286a:	20 e0       	ldi	r18, 0x00	; 0
    286c:	31 e0       	ldi	r19, 0x01	; 1
    286e:	42 e0       	ldi	r20, 0x02	; 2
    2870:	51 e0       	ldi	r21, 0x01	; 1
    2872:	61 e0       	ldi	r22, 0x01	; 1
    2874:	71 e0       	ldi	r23, 0x01	; 1
    2876:	c7 01       	movw	r24, r14
    2878:	0e 94 b6 0b 	call	0x176c	; 0x176c <_ZN6io_pinC1EPVhS1_S1_h>
    287c:	f0 92 1a 04 	sts	0x041A, r15	; 0x80041a <io+0x41>
    2880:	e0 92 19 04 	sts	0x0419, r14	; 0x800419 <io+0x40>
    2884:	8a e0       	ldi	r24, 0x0A	; 10
    2886:	90 e0       	ldi	r25, 0x00	; 0
    2888:	99 d1       	rcall	.+818    	; 0x2bbc <_Znwj>
    288a:	7c 01       	movw	r14, r24
    288c:	03 e0       	ldi	r16, 0x03	; 3
    288e:	20 e0       	ldi	r18, 0x00	; 0
    2890:	31 e0       	ldi	r19, 0x01	; 1
    2892:	42 e0       	ldi	r20, 0x02	; 2
    2894:	51 e0       	ldi	r21, 0x01	; 1
    2896:	61 e0       	ldi	r22, 0x01	; 1
    2898:	71 e0       	ldi	r23, 0x01	; 1
    289a:	c7 01       	movw	r24, r14
    289c:	0e 94 b6 0b 	call	0x176c	; 0x176c <_ZN6io_pinC1EPVhS1_S1_h>
    28a0:	f0 92 1c 04 	sts	0x041C, r15	; 0x80041c <io+0x43>
    28a4:	e0 92 1b 04 	sts	0x041B, r14	; 0x80041b <io+0x42>
    28a8:	8a e0       	ldi	r24, 0x0A	; 10
    28aa:	90 e0       	ldi	r25, 0x00	; 0
    28ac:	87 d1       	rcall	.+782    	; 0x2bbc <_Znwj>
    28ae:	7c 01       	movw	r14, r24
    28b0:	03 e0       	ldi	r16, 0x03	; 3
    28b2:	2c e2       	ldi	r18, 0x2C	; 44
    28b4:	30 e0       	ldi	r19, 0x00	; 0
    28b6:	4e e2       	ldi	r20, 0x2E	; 46
    28b8:	50 e0       	ldi	r21, 0x00	; 0
    28ba:	6d e2       	ldi	r22, 0x2D	; 45
    28bc:	70 e0       	ldi	r23, 0x00	; 0
    28be:	c7 01       	movw	r24, r14
    28c0:	0e 94 b6 0b 	call	0x176c	; 0x176c <_ZN6io_pinC1EPVhS1_S1_h>
    28c4:	f0 92 1e 04 	sts	0x041E, r15	; 0x80041e <io+0x45>
    28c8:	e0 92 1d 04 	sts	0x041D, r14	; 0x80041d <io+0x44>
    28cc:	8a e0       	ldi	r24, 0x0A	; 10
    28ce:	90 e0       	ldi	r25, 0x00	; 0
    28d0:	75 d1       	rcall	.+746    	; 0x2bbc <_Znwj>
    28d2:	7c 01       	movw	r14, r24
    28d4:	05 e0       	ldi	r16, 0x05	; 5
    28d6:	2c e2       	ldi	r18, 0x2C	; 44
    28d8:	30 e0       	ldi	r19, 0x00	; 0
    28da:	4e e2       	ldi	r20, 0x2E	; 46
    28dc:	50 e0       	ldi	r21, 0x00	; 0
    28de:	6d e2       	ldi	r22, 0x2D	; 45
    28e0:	70 e0       	ldi	r23, 0x00	; 0
    28e2:	c7 01       	movw	r24, r14
    28e4:	0e 94 b6 0b 	call	0x176c	; 0x176c <_ZN6io_pinC1EPVhS1_S1_h>
    28e8:	f0 92 20 04 	sts	0x0420, r15	; 0x800420 <io+0x47>
    28ec:	e0 92 1f 04 	sts	0x041F, r14	; 0x80041f <io+0x46>
    28f0:	8a e0       	ldi	r24, 0x0A	; 10
    28f2:	90 e0       	ldi	r25, 0x00	; 0
    28f4:	63 d1       	rcall	.+710    	; 0x2bbc <_Znwj>
    28f6:	7c 01       	movw	r14, r24
    28f8:	01 e0       	ldi	r16, 0x01	; 1
    28fa:	23 e0       	ldi	r18, 0x03	; 3
    28fc:	31 e0       	ldi	r19, 0x01	; 1
    28fe:	45 e0       	ldi	r20, 0x05	; 5
    2900:	51 e0       	ldi	r21, 0x01	; 1
    2902:	64 e0       	ldi	r22, 0x04	; 4
    2904:	71 e0       	ldi	r23, 0x01	; 1
    2906:	c7 01       	movw	r24, r14
    2908:	0e 94 b6 0b 	call	0x176c	; 0x176c <_ZN6io_pinC1EPVhS1_S1_h>
    290c:	f0 92 22 04 	sts	0x0422, r15	; 0x800422 <io+0x49>
    2910:	e0 92 21 04 	sts	0x0421, r14	; 0x800421 <io+0x48>
    2914:	8a e0       	ldi	r24, 0x0A	; 10
    2916:	90 e0       	ldi	r25, 0x00	; 0
    2918:	51 d1       	rcall	.+674    	; 0x2bbc <_Znwj>
    291a:	7c 01       	movw	r14, r24
    291c:	00 e0       	ldi	r16, 0x00	; 0
    291e:	23 e0       	ldi	r18, 0x03	; 3
    2920:	31 e0       	ldi	r19, 0x01	; 1
    2922:	45 e0       	ldi	r20, 0x05	; 5
    2924:	51 e0       	ldi	r21, 0x01	; 1
    2926:	64 e0       	ldi	r22, 0x04	; 4
    2928:	71 e0       	ldi	r23, 0x01	; 1
    292a:	c7 01       	movw	r24, r14
    292c:	0e 94 b6 0b 	call	0x176c	; 0x176c <_ZN6io_pinC1EPVhS1_S1_h>
    2930:	f0 92 24 04 	sts	0x0424, r15	; 0x800424 <io+0x4b>
    2934:	e0 92 23 04 	sts	0x0423, r14	; 0x800423 <io+0x4a>
    2938:	8a e0       	ldi	r24, 0x0A	; 10
    293a:	90 e0       	ldi	r25, 0x00	; 0
    293c:	3f d1       	rcall	.+638    	; 0x2bbc <_Znwj>
    293e:	7c 01       	movw	r14, r24
    2940:	01 e0       	ldi	r16, 0x01	; 1
    2942:	20 e0       	ldi	r18, 0x00	; 0
    2944:	31 e0       	ldi	r19, 0x01	; 1
    2946:	42 e0       	ldi	r20, 0x02	; 2
    2948:	51 e0       	ldi	r21, 0x01	; 1
    294a:	61 e0       	ldi	r22, 0x01	; 1
    294c:	71 e0       	ldi	r23, 0x01	; 1
    294e:	c7 01       	movw	r24, r14
    2950:	0e 94 b6 0b 	call	0x176c	; 0x176c <_ZN6io_pinC1EPVhS1_S1_h>
    2954:	f0 92 26 04 	sts	0x0426, r15	; 0x800426 <io+0x4d>
    2958:	e0 92 25 04 	sts	0x0425, r14	; 0x800425 <io+0x4c>
    295c:	8a e0       	ldi	r24, 0x0A	; 10
    295e:	90 e0       	ldi	r25, 0x00	; 0
    2960:	2d d1       	rcall	.+602    	; 0x2bbc <_Znwj>
    2962:	7c 01       	movw	r14, r24
    2964:	00 e0       	ldi	r16, 0x00	; 0
    2966:	20 e0       	ldi	r18, 0x00	; 0
    2968:	31 e0       	ldi	r19, 0x01	; 1
    296a:	42 e0       	ldi	r20, 0x02	; 2
    296c:	51 e0       	ldi	r21, 0x01	; 1
    296e:	61 e0       	ldi	r22, 0x01	; 1
    2970:	71 e0       	ldi	r23, 0x01	; 1
    2972:	c7 01       	movw	r24, r14
    2974:	0e 94 b6 0b 	call	0x176c	; 0x176c <_ZN6io_pinC1EPVhS1_S1_h>
    2978:	f0 92 28 04 	sts	0x0428, r15	; 0x800428 <io+0x4f>
    297c:	e0 92 27 04 	sts	0x0427, r14	; 0x800427 <io+0x4e>
    2980:	df 91       	pop	r29
    2982:	cf 91       	pop	r28
    2984:	0f 91       	pop	r16
    2986:	ff 90       	pop	r15
    2988:	ef 90       	pop	r14
    298a:	08 95       	ret

0000298c <_Z13init_pwmTimerv>:
    298c:	cf 93       	push	r28
    298e:	df 93       	push	r29
    2990:	cd b7       	in	r28, 0x3d	; 61
    2992:	de b7       	in	r29, 0x3e	; 62
    2994:	88 e9       	ldi	r24, 0x98	; 152
    2996:	90 e0       	ldi	r25, 0x00	; 0
    2998:	20 e7       	ldi	r18, 0x70	; 112
    299a:	32 e0       	ldi	r19, 0x02	; 2
    299c:	fc 01       	movw	r30, r24
    299e:	31 83       	std	Z+1, r19	; 0x01
    29a0:	20 83       	st	Z, r18
    29a2:	81 e7       	ldi	r24, 0x71	; 113
    29a4:	90 e0       	ldi	r25, 0x00	; 0
    29a6:	22 e0       	ldi	r18, 0x02	; 2
    29a8:	fc 01       	movw	r30, r24
    29aa:	20 83       	st	Z, r18
    29ac:	81 e9       	ldi	r24, 0x91	; 145
    29ae:	90 e0       	ldi	r25, 0x00	; 0
    29b0:	2c e0       	ldi	r18, 0x0C	; 12
    29b2:	fc 01       	movw	r30, r24
    29b4:	20 83       	st	Z, r18
    29b6:	df 91       	pop	r29
    29b8:	cf 91       	pop	r28
    29ba:	08 95       	ret

000029bc <__vector_32>:
    29bc:	1f 92       	push	r1
    29be:	0f 92       	push	r0
    29c0:	00 90 5f 00 	lds	r0, 0x005F	; 0x80005f <__TEXT_REGION_LENGTH__+0x70005f>
    29c4:	0f 92       	push	r0
    29c6:	11 24       	eor	r1, r1
    29c8:	00 90 5b 00 	lds	r0, 0x005B	; 0x80005b <__TEXT_REGION_LENGTH__+0x70005b>
    29cc:	0f 92       	push	r0
    29ce:	2f 93       	push	r18
    29d0:	3f 93       	push	r19
    29d2:	4f 93       	push	r20
    29d4:	5f 93       	push	r21
    29d6:	6f 93       	push	r22
    29d8:	7f 93       	push	r23
    29da:	8f 93       	push	r24
    29dc:	9f 93       	push	r25
    29de:	af 93       	push	r26
    29e0:	bf 93       	push	r27
    29e2:	ef 93       	push	r30
    29e4:	ff 93       	push	r31
    29e6:	cf 93       	push	r28
    29e8:	df 93       	push	r29
    29ea:	1f 92       	push	r1
    29ec:	cd b7       	in	r28, 0x3d	; 61
    29ee:	de b7       	in	r29, 0x3e	; 62
    29f0:	19 82       	std	Y+1, r1	; 0x01
    29f2:	0e c0       	rjmp	.+28     	; 0x2a10 <__vector_32+0x54>
    29f4:	89 81       	ldd	r24, Y+1	; 0x01
    29f6:	88 2f       	mov	r24, r24
    29f8:	90 e0       	ldi	r25, 0x00	; 0
    29fa:	88 0f       	add	r24, r24
    29fc:	99 1f       	adc	r25, r25
    29fe:	87 52       	subi	r24, 0x27	; 39
    2a00:	9c 4f       	sbci	r25, 0xFC	; 252
    2a02:	fc 01       	movw	r30, r24
    2a04:	80 81       	ld	r24, Z
    2a06:	91 81       	ldd	r25, Z+1	; 0x01
    2a08:	a9 db       	rcall	.-2222   	; 0x215c <_ZNV6io_pin7triggerEv>
    2a0a:	89 81       	ldd	r24, Y+1	; 0x01
    2a0c:	8f 5f       	subi	r24, 0xFF	; 255
    2a0e:	89 83       	std	Y+1, r24	; 0x01
    2a10:	89 81       	ldd	r24, Y+1	; 0x01
    2a12:	88 32       	cpi	r24, 0x28	; 40
    2a14:	78 f3       	brcs	.-34     	; 0x29f4 <__vector_32+0x38>
    2a16:	0f 90       	pop	r0
    2a18:	df 91       	pop	r29
    2a1a:	cf 91       	pop	r28
    2a1c:	ff 91       	pop	r31
    2a1e:	ef 91       	pop	r30
    2a20:	bf 91       	pop	r27
    2a22:	af 91       	pop	r26
    2a24:	9f 91       	pop	r25
    2a26:	8f 91       	pop	r24
    2a28:	7f 91       	pop	r23
    2a2a:	6f 91       	pop	r22
    2a2c:	5f 91       	pop	r21
    2a2e:	4f 91       	pop	r20
    2a30:	3f 91       	pop	r19
    2a32:	2f 91       	pop	r18
    2a34:	0f 90       	pop	r0
    2a36:	00 92 5b 00 	sts	0x005B, r0	; 0x80005b <__TEXT_REGION_LENGTH__+0x70005b>
    2a3a:	0f 90       	pop	r0
    2a3c:	00 92 5f 00 	sts	0x005F, r0	; 0x80005f <__TEXT_REGION_LENGTH__+0x70005f>
    2a40:	0f 90       	pop	r0
    2a42:	1f 90       	pop	r1
    2a44:	18 95       	reti

00002a46 <__vector_29>:
    2a46:	1f 92       	push	r1
    2a48:	0f 92       	push	r0
    2a4a:	00 90 5f 00 	lds	r0, 0x005F	; 0x80005f <__TEXT_REGION_LENGTH__+0x70005f>
    2a4e:	0f 92       	push	r0
    2a50:	11 24       	eor	r1, r1
    2a52:	00 90 5b 00 	lds	r0, 0x005B	; 0x80005b <__TEXT_REGION_LENGTH__+0x70005b>
    2a56:	0f 92       	push	r0
    2a58:	2f 93       	push	r18
    2a5a:	3f 93       	push	r19
    2a5c:	4f 93       	push	r20
    2a5e:	5f 93       	push	r21
    2a60:	6f 93       	push	r22
    2a62:	7f 93       	push	r23
    2a64:	8f 93       	push	r24
    2a66:	9f 93       	push	r25
    2a68:	af 93       	push	r26
    2a6a:	bf 93       	push	r27
    2a6c:	ef 93       	push	r30
    2a6e:	ff 93       	push	r31
    2a70:	cf 93       	push	r28
    2a72:	df 93       	push	r29
    2a74:	cd b7       	in	r28, 0x3d	; 61
    2a76:	de b7       	in	r29, 0x3e	; 62
    2a78:	86 e0       	ldi	r24, 0x06	; 6
    2a7a:	92 e0       	ldi	r25, 0x02	; 2
    2a7c:	0e 94 e4 04 	call	0x9c8	; 0x9c8 <_ZNV22AnalogDigitalConverter6sampleEv>
    2a80:	df 91       	pop	r29
    2a82:	cf 91       	pop	r28
    2a84:	ff 91       	pop	r31
    2a86:	ef 91       	pop	r30
    2a88:	bf 91       	pop	r27
    2a8a:	af 91       	pop	r26
    2a8c:	9f 91       	pop	r25
    2a8e:	8f 91       	pop	r24
    2a90:	7f 91       	pop	r23
    2a92:	6f 91       	pop	r22
    2a94:	5f 91       	pop	r21
    2a96:	4f 91       	pop	r20
    2a98:	3f 91       	pop	r19
    2a9a:	2f 91       	pop	r18
    2a9c:	0f 90       	pop	r0
    2a9e:	00 92 5b 00 	sts	0x005B, r0	; 0x80005b <__TEXT_REGION_LENGTH__+0x70005b>
    2aa2:	0f 90       	pop	r0
    2aa4:	00 92 5f 00 	sts	0x005F, r0	; 0x80005f <__TEXT_REGION_LENGTH__+0x70005f>
    2aa8:	0f 90       	pop	r0
    2aaa:	1f 90       	pop	r1
    2aac:	18 95       	reti

00002aae <_Z7freeRamv>:
    2aae:	cf 93       	push	r28
    2ab0:	df 93       	push	r29
    2ab2:	1f 92       	push	r1
    2ab4:	1f 92       	push	r1
    2ab6:	cd b7       	in	r28, 0x3d	; 61
    2ab8:	de b7       	in	r29, 0x3e	; 62
    2aba:	9e 01       	movw	r18, r28
    2abc:	2f 5f       	subi	r18, 0xFF	; 255
    2abe:	3f 4f       	sbci	r19, 0xFF	; 255
    2ac0:	80 91 2b 05 	lds	r24, 0x052B	; 0x80052b <__brkval>
    2ac4:	90 91 2c 05 	lds	r25, 0x052C	; 0x80052c <__brkval+0x1>
    2ac8:	89 2b       	or	r24, r25
    2aca:	29 f0       	breq	.+10     	; 0x2ad6 <_Z7freeRamv+0x28>
    2acc:	80 91 2b 05 	lds	r24, 0x052B	; 0x80052b <__brkval>
    2ad0:	90 91 2c 05 	lds	r25, 0x052C	; 0x80052c <__brkval+0x1>
    2ad4:	02 c0       	rjmp	.+4      	; 0x2ada <_Z7freeRamv+0x2c>
    2ad6:	8f e2       	ldi	r24, 0x2F	; 47
    2ad8:	95 e0       	ldi	r25, 0x05	; 5
    2ada:	a9 01       	movw	r20, r18
    2adc:	48 1b       	sub	r20, r24
    2ade:	59 0b       	sbc	r21, r25
    2ae0:	ca 01       	movw	r24, r20
    2ae2:	0f 90       	pop	r0
    2ae4:	0f 90       	pop	r0
    2ae6:	df 91       	pop	r29
    2ae8:	cf 91       	pop	r28
    2aea:	08 95       	ret

00002aec <_ZN22AnalogDigitalConverterD1Ev>:
    2aec:	0f 93       	push	r16
    2aee:	1f 93       	push	r17
    2af0:	cf 93       	push	r28
    2af2:	df 93       	push	r29
    2af4:	1f 92       	push	r1
    2af6:	1f 92       	push	r1
    2af8:	cd b7       	in	r28, 0x3d	; 61
    2afa:	de b7       	in	r29, 0x3e	; 62
    2afc:	9a 83       	std	Y+2, r25	; 0x02
    2afe:	89 83       	std	Y+1, r24	; 0x01
    2b00:	89 81       	ldd	r24, Y+1	; 0x01
    2b02:	9a 81       	ldd	r25, Y+2	; 0x02
    2b04:	89 2b       	or	r24, r25
    2b06:	79 f0       	breq	.+30     	; 0x2b26 <_ZN22AnalogDigitalConverterD1Ev+0x3a>
    2b08:	89 81       	ldd	r24, Y+1	; 0x01
    2b0a:	9a 81       	ldd	r25, Y+2	; 0x02
    2b0c:	8c 01       	movw	r16, r24
    2b0e:	00 58       	subi	r16, 0x80	; 128
    2b10:	1e 4f       	sbci	r17, 0xFE	; 254
    2b12:	89 81       	ldd	r24, Y+1	; 0x01
    2b14:	9a 81       	ldd	r25, Y+2	; 0x02
    2b16:	08 17       	cp	r16, r24
    2b18:	19 07       	cpc	r17, r25
    2b1a:	29 f0       	breq	.+10     	; 0x2b26 <_ZN22AnalogDigitalConverterD1Ev+0x3a>
    2b1c:	08 51       	subi	r16, 0x18	; 24
    2b1e:	11 09       	sbc	r17, r1
    2b20:	c8 01       	movw	r24, r16
    2b22:	56 d1       	rcall	.+684    	; 0x2dd0 <_ZN10iirlowpassD1Ev>
    2b24:	f6 cf       	rjmp	.-20     	; 0x2b12 <_ZN22AnalogDigitalConverterD1Ev+0x26>
    2b26:	0f 90       	pop	r0
    2b28:	0f 90       	pop	r0
    2b2a:	df 91       	pop	r29
    2b2c:	cf 91       	pop	r28
    2b2e:	1f 91       	pop	r17
    2b30:	0f 91       	pop	r16
    2b32:	08 95       	ret

00002b34 <_Z41__static_initialization_and_destruction_0ii>:
    2b34:	cf 93       	push	r28
    2b36:	df 93       	push	r29
    2b38:	00 d0       	rcall	.+0      	; 0x2b3a <_Z41__static_initialization_and_destruction_0ii+0x6>
    2b3a:	1f 92       	push	r1
    2b3c:	cd b7       	in	r28, 0x3d	; 61
    2b3e:	de b7       	in	r29, 0x3e	; 62
    2b40:	9a 83       	std	Y+2, r25	; 0x02
    2b42:	89 83       	std	Y+1, r24	; 0x01
    2b44:	7c 83       	std	Y+4, r23	; 0x04
    2b46:	6b 83       	std	Y+3, r22	; 0x03
    2b48:	89 81       	ldd	r24, Y+1	; 0x01
    2b4a:	9a 81       	ldd	r25, Y+2	; 0x02
    2b4c:	01 97       	sbiw	r24, 0x01	; 1
    2b4e:	61 f4       	brne	.+24     	; 0x2b68 <_Z41__static_initialization_and_destruction_0ii+0x34>
    2b50:	8b 81       	ldd	r24, Y+3	; 0x03
    2b52:	9c 81       	ldd	r25, Y+4	; 0x04
    2b54:	01 96       	adiw	r24, 0x01	; 1
    2b56:	41 f4       	brne	.+16     	; 0x2b68 <_Z41__static_initialization_and_destruction_0ii+0x34>
    2b58:	86 e0       	ldi	r24, 0x06	; 6
    2b5a:	92 e0       	ldi	r25, 0x02	; 2
    2b5c:	0e 94 61 04 	call	0x8c2	; 0x8c2 <_ZN22AnalogDigitalConverterC1Ev>
    2b60:	87 ed       	ldi	r24, 0xD7	; 215
    2b62:	93 e0       	ldi	r25, 0x03	; 3
    2b64:	0e 94 3f 0a 	call	0x147e	; 0x147e <_ZN9cmdParserC1Ev>
    2b68:	89 81       	ldd	r24, Y+1	; 0x01
    2b6a:	9a 81       	ldd	r25, Y+2	; 0x02
    2b6c:	89 2b       	or	r24, r25
    2b6e:	39 f4       	brne	.+14     	; 0x2b7e <_Z41__static_initialization_and_destruction_0ii+0x4a>
    2b70:	8b 81       	ldd	r24, Y+3	; 0x03
    2b72:	9c 81       	ldd	r25, Y+4	; 0x04
    2b74:	01 96       	adiw	r24, 0x01	; 1
    2b76:	19 f4       	brne	.+6      	; 0x2b7e <_Z41__static_initialization_and_destruction_0ii+0x4a>
    2b78:	86 e0       	ldi	r24, 0x06	; 6
    2b7a:	92 e0       	ldi	r25, 0x02	; 2
    2b7c:	b7 df       	rcall	.-146    	; 0x2aec <_ZN22AnalogDigitalConverterD1Ev>
    2b7e:	0f 90       	pop	r0
    2b80:	0f 90       	pop	r0
    2b82:	0f 90       	pop	r0
    2b84:	0f 90       	pop	r0
    2b86:	df 91       	pop	r29
    2b88:	cf 91       	pop	r28
    2b8a:	08 95       	ret

00002b8c <_GLOBAL__sub_I_myADC>:
    2b8c:	cf 93       	push	r28
    2b8e:	df 93       	push	r29
    2b90:	cd b7       	in	r28, 0x3d	; 61
    2b92:	de b7       	in	r29, 0x3e	; 62
    2b94:	6f ef       	ldi	r22, 0xFF	; 255
    2b96:	7f ef       	ldi	r23, 0xFF	; 255
    2b98:	81 e0       	ldi	r24, 0x01	; 1
    2b9a:	90 e0       	ldi	r25, 0x00	; 0
    2b9c:	cb df       	rcall	.-106    	; 0x2b34 <_Z41__static_initialization_and_destruction_0ii>
    2b9e:	df 91       	pop	r29
    2ba0:	cf 91       	pop	r28
    2ba2:	08 95       	ret

00002ba4 <_GLOBAL__sub_D_myADC>:
    2ba4:	cf 93       	push	r28
    2ba6:	df 93       	push	r29
    2ba8:	cd b7       	in	r28, 0x3d	; 61
    2baa:	de b7       	in	r29, 0x3e	; 62
    2bac:	6f ef       	ldi	r22, 0xFF	; 255
    2bae:	7f ef       	ldi	r23, 0xFF	; 255
    2bb0:	80 e0       	ldi	r24, 0x00	; 0
    2bb2:	90 e0       	ldi	r25, 0x00	; 0
    2bb4:	bf df       	rcall	.-130    	; 0x2b34 <_Z41__static_initialization_and_destruction_0ii>
    2bb6:	df 91       	pop	r29
    2bb8:	cf 91       	pop	r28
    2bba:	08 95       	ret

00002bbc <_Znwj>:
    2bbc:	cf 93       	push	r28
    2bbe:	df 93       	push	r29
    2bc0:	1f 92       	push	r1
    2bc2:	1f 92       	push	r1
    2bc4:	cd b7       	in	r28, 0x3d	; 61
    2bc6:	de b7       	in	r29, 0x3e	; 62
    2bc8:	9a 83       	std	Y+2, r25	; 0x02
    2bca:	89 83       	std	Y+1, r24	; 0x01
    2bcc:	89 81       	ldd	r24, Y+1	; 0x01
    2bce:	9a 81       	ldd	r25, Y+2	; 0x02
    2bd0:	67 d2       	rcall	.+1230   	; 0x30a0 <malloc>
    2bd2:	0f 90       	pop	r0
    2bd4:	0f 90       	pop	r0
    2bd6:	df 91       	pop	r29
    2bd8:	cf 91       	pop	r28
    2bda:	08 95       	ret

00002bdc <_ZNV10iirlowpass6sampleEi>:
    2bdc:	cf 93       	push	r28
    2bde:	df 93       	push	r29
    2be0:	cd b7       	in	r28, 0x3d	; 61
    2be2:	de b7       	in	r29, 0x3e	; 62
    2be4:	2a 97       	sbiw	r28, 0x0a	; 10
    2be6:	0f b6       	in	r0, 0x3f	; 63
    2be8:	f8 94       	cli
    2bea:	de bf       	out	0x3e, r29	; 62
    2bec:	0f be       	out	0x3f, r0	; 63
    2bee:	cd bf       	out	0x3d, r28	; 61
    2bf0:	98 87       	std	Y+8, r25	; 0x08
    2bf2:	8f 83       	std	Y+7, r24	; 0x07
    2bf4:	7a 87       	std	Y+10, r23	; 0x0a
    2bf6:	69 87       	std	Y+9, r22	; 0x09
    2bf8:	19 82       	std	Y+1, r1	; 0x01
    2bfa:	1a 82       	std	Y+2, r1	; 0x02
    2bfc:	1b 82       	std	Y+3, r1	; 0x03
    2bfe:	1c 82       	std	Y+4, r1	; 0x04
    2c00:	8a e0       	ldi	r24, 0x0A	; 10
    2c02:	8d 83       	std	Y+5, r24	; 0x05
    2c04:	23 c0       	rjmp	.+70     	; 0x2c4c <_ZNV10iirlowpass6sampleEi+0x70>
    2c06:	8f 81       	ldd	r24, Y+7	; 0x07
    2c08:	98 85       	ldd	r25, Y+8	; 0x08
    2c0a:	fc 01       	movw	r30, r24
    2c0c:	26 89       	ldd	r18, Z+22	; 0x16
    2c0e:	37 89       	ldd	r19, Z+23	; 0x17
    2c10:	8d 81       	ldd	r24, Y+5	; 0x05
    2c12:	88 2f       	mov	r24, r24
    2c14:	90 e0       	ldi	r25, 0x00	; 0
    2c16:	88 0f       	add	r24, r24
    2c18:	99 1f       	adc	r25, r25
    2c1a:	82 0f       	add	r24, r18
    2c1c:	93 1f       	adc	r25, r19
    2c1e:	2f 81       	ldd	r18, Y+7	; 0x07
    2c20:	38 85       	ldd	r19, Y+8	; 0x08
    2c22:	f9 01       	movw	r30, r18
    2c24:	46 89       	ldd	r20, Z+22	; 0x16
    2c26:	57 89       	ldd	r21, Z+23	; 0x17
    2c28:	2d 81       	ldd	r18, Y+5	; 0x05
    2c2a:	22 2f       	mov	r18, r18
    2c2c:	30 e0       	ldi	r19, 0x00	; 0
    2c2e:	21 50       	subi	r18, 0x01	; 1
    2c30:	30 48       	sbci	r19, 0x80	; 128
    2c32:	22 0f       	add	r18, r18
    2c34:	33 1f       	adc	r19, r19
    2c36:	24 0f       	add	r18, r20
    2c38:	35 1f       	adc	r19, r21
    2c3a:	f9 01       	movw	r30, r18
    2c3c:	20 81       	ld	r18, Z
    2c3e:	31 81       	ldd	r19, Z+1	; 0x01
    2c40:	fc 01       	movw	r30, r24
    2c42:	31 83       	std	Z+1, r19	; 0x01
    2c44:	20 83       	st	Z, r18
    2c46:	8d 81       	ldd	r24, Y+5	; 0x05
    2c48:	81 50       	subi	r24, 0x01	; 1
    2c4a:	8d 83       	std	Y+5, r24	; 0x05
    2c4c:	8d 81       	ldd	r24, Y+5	; 0x05
    2c4e:	88 23       	and	r24, r24
    2c50:	d1 f6       	brne	.-76     	; 0x2c06 <_ZNV10iirlowpass6sampleEi+0x2a>
    2c52:	8f 81       	ldd	r24, Y+7	; 0x07
    2c54:	98 85       	ldd	r25, Y+8	; 0x08
    2c56:	fc 01       	movw	r30, r24
    2c58:	86 89       	ldd	r24, Z+22	; 0x16
    2c5a:	97 89       	ldd	r25, Z+23	; 0x17
    2c5c:	29 85       	ldd	r18, Y+9	; 0x09
    2c5e:	3a 85       	ldd	r19, Y+10	; 0x0a
    2c60:	fc 01       	movw	r30, r24
    2c62:	31 83       	std	Z+1, r19	; 0x01
    2c64:	20 83       	st	Z, r18
    2c66:	1e 82       	std	Y+6, r1	; 0x06
    2c68:	37 c0       	rjmp	.+110    	; 0x2cd8 <_ZNV10iirlowpass6sampleEi+0xfc>
    2c6a:	8e 81       	ldd	r24, Y+6	; 0x06
    2c6c:	88 2f       	mov	r24, r24
    2c6e:	90 e0       	ldi	r25, 0x00	; 0
    2c70:	2f 81       	ldd	r18, Y+7	; 0x07
    2c72:	38 85       	ldd	r19, Y+8	; 0x08
    2c74:	88 0f       	add	r24, r24
    2c76:	99 1f       	adc	r25, r25
    2c78:	82 0f       	add	r24, r18
    2c7a:	93 1f       	adc	r25, r19
    2c7c:	fc 01       	movw	r30, r24
    2c7e:	80 81       	ld	r24, Z
    2c80:	91 81       	ldd	r25, Z+1	; 0x01
    2c82:	9c 01       	movw	r18, r24
    2c84:	99 0f       	add	r25, r25
    2c86:	44 0b       	sbc	r20, r20
    2c88:	55 0b       	sbc	r21, r21
    2c8a:	8f 81       	ldd	r24, Y+7	; 0x07
    2c8c:	98 85       	ldd	r25, Y+8	; 0x08
    2c8e:	fc 01       	movw	r30, r24
    2c90:	66 89       	ldd	r22, Z+22	; 0x16
    2c92:	77 89       	ldd	r23, Z+23	; 0x17
    2c94:	8e 81       	ldd	r24, Y+6	; 0x06
    2c96:	88 2f       	mov	r24, r24
    2c98:	90 e0       	ldi	r25, 0x00	; 0
    2c9a:	88 0f       	add	r24, r24
    2c9c:	99 1f       	adc	r25, r25
    2c9e:	86 0f       	add	r24, r22
    2ca0:	97 1f       	adc	r25, r23
    2ca2:	fc 01       	movw	r30, r24
    2ca4:	80 81       	ld	r24, Z
    2ca6:	91 81       	ldd	r25, Z+1	; 0x01
    2ca8:	09 2e       	mov	r0, r25
    2caa:	00 0c       	add	r0, r0
    2cac:	aa 0b       	sbc	r26, r26
    2cae:	bb 0b       	sbc	r27, r27
    2cb0:	bc 01       	movw	r22, r24
    2cb2:	cd 01       	movw	r24, r26
    2cb4:	c5 d1       	rcall	.+906    	; 0x3040 <__mulsi3>
    2cb6:	9b 01       	movw	r18, r22
    2cb8:	ac 01       	movw	r20, r24
    2cba:	89 81       	ldd	r24, Y+1	; 0x01
    2cbc:	9a 81       	ldd	r25, Y+2	; 0x02
    2cbe:	ab 81       	ldd	r26, Y+3	; 0x03
    2cc0:	bc 81       	ldd	r27, Y+4	; 0x04
    2cc2:	82 0f       	add	r24, r18
    2cc4:	93 1f       	adc	r25, r19
    2cc6:	a4 1f       	adc	r26, r20
    2cc8:	b5 1f       	adc	r27, r21
    2cca:	89 83       	std	Y+1, r24	; 0x01
    2ccc:	9a 83       	std	Y+2, r25	; 0x02
    2cce:	ab 83       	std	Y+3, r26	; 0x03
    2cd0:	bc 83       	std	Y+4, r27	; 0x04
    2cd2:	8e 81       	ldd	r24, Y+6	; 0x06
    2cd4:	8f 5f       	subi	r24, 0xFF	; 255
    2cd6:	8e 83       	std	Y+6, r24	; 0x06
    2cd8:	8e 81       	ldd	r24, Y+6	; 0x06
    2cda:	8b 30       	cpi	r24, 0x0B	; 11
    2cdc:	30 f2       	brcs	.-116    	; 0x2c6a <_ZNV10iirlowpass6sampleEi+0x8e>
    2cde:	89 81       	ldd	r24, Y+1	; 0x01
    2ce0:	9a 81       	ldd	r25, Y+2	; 0x02
    2ce2:	ab 81       	ldd	r26, Y+3	; 0x03
    2ce4:	bc 81       	ldd	r27, Y+4	; 0x04
    2ce6:	07 2e       	mov	r0, r23
    2ce8:	72 e1       	ldi	r23, 0x12	; 18
    2cea:	b5 95       	asr	r27
    2cec:	a7 95       	ror	r26
    2cee:	97 95       	ror	r25
    2cf0:	87 95       	ror	r24
    2cf2:	7a 95       	dec	r23
    2cf4:	d1 f7       	brne	.-12     	; 0x2cea <_ZNV10iirlowpass6sampleEi+0x10e>
    2cf6:	70 2d       	mov	r23, r0
    2cf8:	2a 96       	adiw	r28, 0x0a	; 10
    2cfa:	0f b6       	in	r0, 0x3f	; 63
    2cfc:	f8 94       	cli
    2cfe:	de bf       	out	0x3e, r29	; 62
    2d00:	0f be       	out	0x3f, r0	; 63
    2d02:	cd bf       	out	0x3d, r28	; 61
    2d04:	df 91       	pop	r29
    2d06:	cf 91       	pop	r28
    2d08:	08 95       	ret

00002d0a <_ZN10iirlowpassC1Ev>:
    2d0a:	cf 93       	push	r28
    2d0c:	df 93       	push	r29
    2d0e:	1f 92       	push	r1
    2d10:	1f 92       	push	r1
    2d12:	cd b7       	in	r28, 0x3d	; 61
    2d14:	de b7       	in	r29, 0x3e	; 62
    2d16:	9a 83       	std	Y+2, r25	; 0x02
    2d18:	89 83       	std	Y+1, r24	; 0x01
    2d1a:	89 81       	ldd	r24, Y+1	; 0x01
    2d1c:	9a 81       	ldd	r25, Y+2	; 0x02
    2d1e:	2c ef       	ldi	r18, 0xFC	; 252
    2d20:	38 e5       	ldi	r19, 0x58	; 88
    2d22:	fc 01       	movw	r30, r24
    2d24:	31 83       	std	Z+1, r19	; 0x01
    2d26:	20 83       	st	Z, r18
    2d28:	89 81       	ldd	r24, Y+1	; 0x01
    2d2a:	9a 81       	ldd	r25, Y+2	; 0x02
    2d2c:	2a e6       	ldi	r18, 0x6A	; 106
    2d2e:	3b e5       	ldi	r19, 0x5B	; 91
    2d30:	fc 01       	movw	r30, r24
    2d32:	33 83       	std	Z+3, r19	; 0x03
    2d34:	22 83       	std	Z+2, r18	; 0x02
    2d36:	89 81       	ldd	r24, Y+1	; 0x01
    2d38:	9a 81       	ldd	r25, Y+2	; 0x02
    2d3a:	28 e5       	ldi	r18, 0x58	; 88
    2d3c:	3d e5       	ldi	r19, 0x5D	; 93
    2d3e:	fc 01       	movw	r30, r24
    2d40:	35 83       	std	Z+5, r19	; 0x05
    2d42:	24 83       	std	Z+4, r18	; 0x04
    2d44:	89 81       	ldd	r24, Y+1	; 0x01
    2d46:	9a 81       	ldd	r25, Y+2	; 0x02
    2d48:	2c eb       	ldi	r18, 0xBC	; 188
    2d4a:	3e e5       	ldi	r19, 0x5E	; 94
    2d4c:	fc 01       	movw	r30, r24
    2d4e:	37 83       	std	Z+7, r19	; 0x07
    2d50:	26 83       	std	Z+6, r18	; 0x06
    2d52:	89 81       	ldd	r24, Y+1	; 0x01
    2d54:	9a 81       	ldd	r25, Y+2	; 0x02
    2d56:	25 e9       	ldi	r18, 0x95	; 149
    2d58:	3f e5       	ldi	r19, 0x5F	; 95
    2d5a:	fc 01       	movw	r30, r24
    2d5c:	31 87       	std	Z+9, r19	; 0x09
    2d5e:	20 87       	std	Z+8, r18	; 0x08
    2d60:	89 81       	ldd	r24, Y+1	; 0x01
    2d62:	9a 81       	ldd	r25, Y+2	; 0x02
    2d64:	2d ed       	ldi	r18, 0xDD	; 221
    2d66:	3f e5       	ldi	r19, 0x5F	; 95
    2d68:	fc 01       	movw	r30, r24
    2d6a:	33 87       	std	Z+11, r19	; 0x0b
    2d6c:	22 87       	std	Z+10, r18	; 0x0a
    2d6e:	89 81       	ldd	r24, Y+1	; 0x01
    2d70:	9a 81       	ldd	r25, Y+2	; 0x02
    2d72:	25 e9       	ldi	r18, 0x95	; 149
    2d74:	3f e5       	ldi	r19, 0x5F	; 95
    2d76:	fc 01       	movw	r30, r24
    2d78:	35 87       	std	Z+13, r19	; 0x0d
    2d7a:	24 87       	std	Z+12, r18	; 0x0c
    2d7c:	89 81       	ldd	r24, Y+1	; 0x01
    2d7e:	9a 81       	ldd	r25, Y+2	; 0x02
    2d80:	2c eb       	ldi	r18, 0xBC	; 188
    2d82:	3e e5       	ldi	r19, 0x5E	; 94
    2d84:	fc 01       	movw	r30, r24
    2d86:	37 87       	std	Z+15, r19	; 0x0f
    2d88:	26 87       	std	Z+14, r18	; 0x0e
    2d8a:	89 81       	ldd	r24, Y+1	; 0x01
    2d8c:	9a 81       	ldd	r25, Y+2	; 0x02
    2d8e:	28 e5       	ldi	r18, 0x58	; 88
    2d90:	3d e5       	ldi	r19, 0x5D	; 93
    2d92:	fc 01       	movw	r30, r24
    2d94:	31 8b       	std	Z+17, r19	; 0x11
    2d96:	20 8b       	std	Z+16, r18	; 0x10
    2d98:	89 81       	ldd	r24, Y+1	; 0x01
    2d9a:	9a 81       	ldd	r25, Y+2	; 0x02
    2d9c:	2a e6       	ldi	r18, 0x6A	; 106
    2d9e:	3b e5       	ldi	r19, 0x5B	; 91
    2da0:	fc 01       	movw	r30, r24
    2da2:	33 8b       	std	Z+19, r19	; 0x13
    2da4:	22 8b       	std	Z+18, r18	; 0x12
    2da6:	89 81       	ldd	r24, Y+1	; 0x01
    2da8:	9a 81       	ldd	r25, Y+2	; 0x02
    2daa:	2c ef       	ldi	r18, 0xFC	; 252
    2dac:	38 e5       	ldi	r19, 0x58	; 88
    2dae:	fc 01       	movw	r30, r24
    2db0:	35 8b       	std	Z+21, r19	; 0x15
    2db2:	24 8b       	std	Z+20, r18	; 0x14
    2db4:	86 e1       	ldi	r24, 0x16	; 22
    2db6:	90 e0       	ldi	r25, 0x00	; 0
    2db8:	73 d1       	rcall	.+742    	; 0x30a0 <malloc>
    2dba:	9c 01       	movw	r18, r24
    2dbc:	89 81       	ldd	r24, Y+1	; 0x01
    2dbe:	9a 81       	ldd	r25, Y+2	; 0x02
    2dc0:	fc 01       	movw	r30, r24
    2dc2:	37 8b       	std	Z+23, r19	; 0x17
    2dc4:	26 8b       	std	Z+22, r18	; 0x16
    2dc6:	0f 90       	pop	r0
    2dc8:	0f 90       	pop	r0
    2dca:	df 91       	pop	r29
    2dcc:	cf 91       	pop	r28
    2dce:	08 95       	ret

00002dd0 <_ZN10iirlowpassD1Ev>:
    2dd0:	cf 93       	push	r28
    2dd2:	df 93       	push	r29
    2dd4:	1f 92       	push	r1
    2dd6:	1f 92       	push	r1
    2dd8:	cd b7       	in	r28, 0x3d	; 61
    2dda:	de b7       	in	r29, 0x3e	; 62
    2ddc:	9a 83       	std	Y+2, r25	; 0x02
    2dde:	89 83       	std	Y+1, r24	; 0x01
    2de0:	89 81       	ldd	r24, Y+1	; 0x01
    2de2:	9a 81       	ldd	r25, Y+2	; 0x02
    2de4:	fc 01       	movw	r30, r24
    2de6:	86 89       	ldd	r24, Z+22	; 0x16
    2de8:	97 89       	ldd	r25, Z+23	; 0x17
    2dea:	ef d1       	rcall	.+990    	; 0x31ca <free>
    2dec:	0f 90       	pop	r0
    2dee:	0f 90       	pop	r0
    2df0:	df 91       	pop	r29
    2df2:	cf 91       	pop	r28
    2df4:	08 95       	ret

00002df6 <_Z10init_UART0v>:
    2df6:	cf 93       	push	r28
    2df8:	df 93       	push	r29
    2dfa:	1f 92       	push	r1
    2dfc:	1f 92       	push	r1
    2dfe:	cd b7       	in	r28, 0x3d	; 61
    2e00:	de b7       	in	r29, 0x3e	; 62
    2e02:	10 92 29 05 	sts	0x0529, r1	; 0x800529 <InBufferUart0pointer>
    2e06:	80 e1       	ldi	r24, 0x10	; 16
    2e08:	90 e0       	ldi	r25, 0x00	; 0
    2e0a:	9a 83       	std	Y+2, r25	; 0x02
    2e0c:	89 83       	std	Y+1, r24	; 0x01
    2e0e:	85 ec       	ldi	r24, 0xC5	; 197
    2e10:	90 e0       	ldi	r25, 0x00	; 0
    2e12:	29 81       	ldd	r18, Y+1	; 0x01
    2e14:	3a 81       	ldd	r19, Y+2	; 0x02
    2e16:	23 2f       	mov	r18, r19
    2e18:	33 27       	eor	r19, r19
    2e1a:	fc 01       	movw	r30, r24
    2e1c:	20 83       	st	Z, r18
    2e1e:	84 ec       	ldi	r24, 0xC4	; 196
    2e20:	90 e0       	ldi	r25, 0x00	; 0
    2e22:	29 81       	ldd	r18, Y+1	; 0x01
    2e24:	fc 01       	movw	r30, r24
    2e26:	20 83       	st	Z, r18
    2e28:	81 ec       	ldi	r24, 0xC1	; 193
    2e2a:	90 e0       	ldi	r25, 0x00	; 0
    2e2c:	28 e9       	ldi	r18, 0x98	; 152
    2e2e:	fc 01       	movw	r30, r24
    2e30:	20 83       	st	Z, r18
    2e32:	82 ec       	ldi	r24, 0xC2	; 194
    2e34:	90 e0       	ldi	r25, 0x00	; 0
    2e36:	26 e0       	ldi	r18, 0x06	; 6
    2e38:	fc 01       	movw	r30, r24
    2e3a:	20 83       	st	Z, r18
    2e3c:	0f 90       	pop	r0
    2e3e:	0f 90       	pop	r0
    2e40:	df 91       	pop	r29
    2e42:	cf 91       	pop	r28
    2e44:	08 95       	ret

00002e46 <_Z10init_UART1v>:
    2e46:	cf 93       	push	r28
    2e48:	df 93       	push	r29
    2e4a:	1f 92       	push	r1
    2e4c:	1f 92       	push	r1
    2e4e:	cd b7       	in	r28, 0x3d	; 61
    2e50:	de b7       	in	r29, 0x3e	; 62
    2e52:	83 e3       	ldi	r24, 0x33	; 51
    2e54:	90 e0       	ldi	r25, 0x00	; 0
    2e56:	9a 83       	std	Y+2, r25	; 0x02
    2e58:	89 83       	std	Y+1, r24	; 0x01
    2e5a:	8d ec       	ldi	r24, 0xCD	; 205
    2e5c:	90 e0       	ldi	r25, 0x00	; 0
    2e5e:	29 81       	ldd	r18, Y+1	; 0x01
    2e60:	3a 81       	ldd	r19, Y+2	; 0x02
    2e62:	23 2f       	mov	r18, r19
    2e64:	33 27       	eor	r19, r19
    2e66:	fc 01       	movw	r30, r24
    2e68:	20 83       	st	Z, r18
    2e6a:	8c ec       	ldi	r24, 0xCC	; 204
    2e6c:	90 e0       	ldi	r25, 0x00	; 0
    2e6e:	29 81       	ldd	r18, Y+1	; 0x01
    2e70:	fc 01       	movw	r30, r24
    2e72:	20 83       	st	Z, r18
    2e74:	89 ec       	ldi	r24, 0xC9	; 201
    2e76:	90 e0       	ldi	r25, 0x00	; 0
    2e78:	28 e9       	ldi	r18, 0x98	; 152
    2e7a:	fc 01       	movw	r30, r24
    2e7c:	20 83       	st	Z, r18
    2e7e:	8a ec       	ldi	r24, 0xCA	; 202
    2e80:	90 e0       	ldi	r25, 0x00	; 0
    2e82:	26 e0       	ldi	r18, 0x06	; 6
    2e84:	fc 01       	movw	r30, r24
    2e86:	20 83       	st	Z, r18
    2e88:	0f 90       	pop	r0
    2e8a:	0f 90       	pop	r0
    2e8c:	df 91       	pop	r29
    2e8e:	cf 91       	pop	r28
    2e90:	08 95       	ret

00002e92 <__vector_25>:
    2e92:	1f 92       	push	r1
    2e94:	0f 92       	push	r0
    2e96:	00 90 5f 00 	lds	r0, 0x005F	; 0x80005f <__TEXT_REGION_LENGTH__+0x70005f>
    2e9a:	0f 92       	push	r0
    2e9c:	11 24       	eor	r1, r1
    2e9e:	00 90 5b 00 	lds	r0, 0x005B	; 0x80005b <__TEXT_REGION_LENGTH__+0x70005b>
    2ea2:	0f 92       	push	r0
    2ea4:	2f 93       	push	r18
    2ea6:	3f 93       	push	r19
    2ea8:	4f 93       	push	r20
    2eaa:	5f 93       	push	r21
    2eac:	6f 93       	push	r22
    2eae:	7f 93       	push	r23
    2eb0:	8f 93       	push	r24
    2eb2:	9f 93       	push	r25
    2eb4:	af 93       	push	r26
    2eb6:	bf 93       	push	r27
    2eb8:	ef 93       	push	r30
    2eba:	ff 93       	push	r31
    2ebc:	cf 93       	push	r28
    2ebe:	df 93       	push	r29
    2ec0:	1f 92       	push	r1
    2ec2:	cd b7       	in	r28, 0x3d	; 61
    2ec4:	de b7       	in	r29, 0x3e	; 62
    2ec6:	86 ec       	ldi	r24, 0xC6	; 198
    2ec8:	90 e0       	ldi	r25, 0x00	; 0
    2eca:	fc 01       	movw	r30, r24
    2ecc:	80 81       	ld	r24, Z
    2ece:	89 83       	std	Y+1, r24	; 0x01
    2ed0:	80 91 29 05 	lds	r24, 0x0529	; 0x800529 <InBufferUart0pointer>
    2ed4:	88 2f       	mov	r24, r24
    2ed6:	90 e0       	ldi	r25, 0x00	; 0
    2ed8:	87 5d       	subi	r24, 0xD7	; 215
    2eda:	9b 4f       	sbci	r25, 0xFB	; 251
    2edc:	29 81       	ldd	r18, Y+1	; 0x01
    2ede:	fc 01       	movw	r30, r24
    2ee0:	20 83       	st	Z, r18
    2ee2:	80 91 29 05 	lds	r24, 0x0529	; 0x800529 <InBufferUart0pointer>
    2ee6:	8f 5f       	subi	r24, 0xFF	; 255
    2ee8:	80 93 29 05 	sts	0x0529, r24	; 0x800529 <InBufferUart0pointer>
    2eec:	89 81       	ldd	r24, Y+1	; 0x01
    2eee:	82 31       	cpi	r24, 0x12	; 18
    2ef0:	21 f4       	brne	.+8      	; 0x2efa <__vector_25+0x68>
    2ef2:	87 ed       	ldi	r24, 0xD7	; 215
    2ef4:	93 e0       	ldi	r25, 0x03	; 3
    2ef6:	0e 94 ee 0a 	call	0x15dc	; 0x15dc <_ZNV9cmdParser14inc_parser_cntEv>
    2efa:	0f 90       	pop	r0
    2efc:	df 91       	pop	r29
    2efe:	cf 91       	pop	r28
    2f00:	ff 91       	pop	r31
    2f02:	ef 91       	pop	r30
    2f04:	bf 91       	pop	r27
    2f06:	af 91       	pop	r26
    2f08:	9f 91       	pop	r25
    2f0a:	8f 91       	pop	r24
    2f0c:	7f 91       	pop	r23
    2f0e:	6f 91       	pop	r22
    2f10:	5f 91       	pop	r21
    2f12:	4f 91       	pop	r20
    2f14:	3f 91       	pop	r19
    2f16:	2f 91       	pop	r18
    2f18:	0f 90       	pop	r0
    2f1a:	00 92 5b 00 	sts	0x005B, r0	; 0x80005b <__TEXT_REGION_LENGTH__+0x70005b>
    2f1e:	0f 90       	pop	r0
    2f20:	00 92 5f 00 	sts	0x005F, r0	; 0x80005f <__TEXT_REGION_LENGTH__+0x70005f>
    2f24:	0f 90       	pop	r0
    2f26:	1f 90       	pop	r1
    2f28:	18 95       	reti

00002f2a <__vector_36>:
    2f2a:	1f 92       	push	r1
    2f2c:	0f 92       	push	r0
    2f2e:	00 90 5f 00 	lds	r0, 0x005F	; 0x80005f <__TEXT_REGION_LENGTH__+0x70005f>
    2f32:	0f 92       	push	r0
    2f34:	11 24       	eor	r1, r1
    2f36:	00 90 5b 00 	lds	r0, 0x005B	; 0x80005b <__TEXT_REGION_LENGTH__+0x70005b>
    2f3a:	0f 92       	push	r0
    2f3c:	8f 93       	push	r24
    2f3e:	9f 93       	push	r25
    2f40:	ef 93       	push	r30
    2f42:	ff 93       	push	r31
    2f44:	cf 93       	push	r28
    2f46:	df 93       	push	r29
    2f48:	1f 92       	push	r1
    2f4a:	cd b7       	in	r28, 0x3d	; 61
    2f4c:	de b7       	in	r29, 0x3e	; 62
    2f4e:	8e ec       	ldi	r24, 0xCE	; 206
    2f50:	90 e0       	ldi	r25, 0x00	; 0
    2f52:	fc 01       	movw	r30, r24
    2f54:	80 81       	ld	r24, Z
    2f56:	89 83       	std	Y+1, r24	; 0x01
    2f58:	0f 90       	pop	r0
    2f5a:	df 91       	pop	r29
    2f5c:	cf 91       	pop	r28
    2f5e:	ff 91       	pop	r31
    2f60:	ef 91       	pop	r30
    2f62:	9f 91       	pop	r25
    2f64:	8f 91       	pop	r24
    2f66:	0f 90       	pop	r0
    2f68:	00 92 5b 00 	sts	0x005B, r0	; 0x80005b <__TEXT_REGION_LENGTH__+0x70005b>
    2f6c:	0f 90       	pop	r0
    2f6e:	00 92 5f 00 	sts	0x005F, r0	; 0x80005f <__TEXT_REGION_LENGTH__+0x70005f>
    2f72:	0f 90       	pop	r0
    2f74:	1f 90       	pop	r1
    2f76:	18 95       	reti

00002f78 <_Z11serial_out0Phh>:
    2f78:	cf 93       	push	r28
    2f7a:	df 93       	push	r29
    2f7c:	00 d0       	rcall	.+0      	; 0x2f7e <_Z11serial_out0Phh+0x6>
    2f7e:	1f 92       	push	r1
    2f80:	cd b7       	in	r28, 0x3d	; 61
    2f82:	de b7       	in	r29, 0x3e	; 62
    2f84:	9b 83       	std	Y+3, r25	; 0x03
    2f86:	8a 83       	std	Y+2, r24	; 0x02
    2f88:	6c 83       	std	Y+4, r22	; 0x04
    2f8a:	8a e2       	ldi	r24, 0x2A	; 42
    2f8c:	95 e0       	ldi	r25, 0x05	; 5
    2f8e:	d8 d9       	rcall	.-3152   	; 0x2340 <_ZNV4lock7tryLockEv>
    2f90:	19 82       	std	Y+1, r1	; 0x01
    2f92:	20 c0       	rjmp	.+64     	; 0x2fd4 <_Z11serial_out0Phh+0x5c>
    2f94:	01 c0       	rjmp	.+2      	; 0x2f98 <_Z11serial_out0Phh+0x20>
    2f96:	00 00       	nop
    2f98:	80 ec       	ldi	r24, 0xC0	; 192
    2f9a:	90 e0       	ldi	r25, 0x00	; 0
    2f9c:	fc 01       	movw	r30, r24
    2f9e:	80 81       	ld	r24, Z
    2fa0:	88 2f       	mov	r24, r24
    2fa2:	90 e0       	ldi	r25, 0x00	; 0
    2fa4:	80 72       	andi	r24, 0x20	; 32
    2fa6:	99 27       	eor	r25, r25
    2fa8:	21 e0       	ldi	r18, 0x01	; 1
    2faa:	89 2b       	or	r24, r25
    2fac:	09 f0       	breq	.+2      	; 0x2fb0 <_Z11serial_out0Phh+0x38>
    2fae:	20 e0       	ldi	r18, 0x00	; 0
    2fb0:	22 23       	and	r18, r18
    2fb2:	89 f7       	brne	.-30     	; 0x2f96 <_Z11serial_out0Phh+0x1e>
    2fb4:	86 ec       	ldi	r24, 0xC6	; 198
    2fb6:	90 e0       	ldi	r25, 0x00	; 0
    2fb8:	29 81       	ldd	r18, Y+1	; 0x01
    2fba:	22 2f       	mov	r18, r18
    2fbc:	30 e0       	ldi	r19, 0x00	; 0
    2fbe:	4a 81       	ldd	r20, Y+2	; 0x02
    2fc0:	5b 81       	ldd	r21, Y+3	; 0x03
    2fc2:	24 0f       	add	r18, r20
    2fc4:	35 1f       	adc	r19, r21
    2fc6:	f9 01       	movw	r30, r18
    2fc8:	20 81       	ld	r18, Z
    2fca:	fc 01       	movw	r30, r24
    2fcc:	20 83       	st	Z, r18
    2fce:	89 81       	ldd	r24, Y+1	; 0x01
    2fd0:	8f 5f       	subi	r24, 0xFF	; 255
    2fd2:	89 83       	std	Y+1, r24	; 0x01
    2fd4:	99 81       	ldd	r25, Y+1	; 0x01
    2fd6:	8c 81       	ldd	r24, Y+4	; 0x04
    2fd8:	98 17       	cp	r25, r24
    2fda:	e0 f2       	brcs	.-72     	; 0x2f94 <_Z11serial_out0Phh+0x1c>
    2fdc:	8a e2       	ldi	r24, 0x2A	; 42
    2fde:	95 e0       	ldi	r25, 0x05	; 5
    2fe0:	c9 d9       	rcall	.-3182   	; 0x2374 <_ZNV4lock6unlockEv>
    2fe2:	0f 90       	pop	r0
    2fe4:	0f 90       	pop	r0
    2fe6:	0f 90       	pop	r0
    2fe8:	0f 90       	pop	r0
    2fea:	df 91       	pop	r29
    2fec:	cf 91       	pop	r28
    2fee:	08 95       	ret

00002ff0 <_Z41__static_initialization_and_destruction_0ii>:
    2ff0:	cf 93       	push	r28
    2ff2:	df 93       	push	r29
    2ff4:	00 d0       	rcall	.+0      	; 0x2ff6 <_Z41__static_initialization_and_destruction_0ii+0x6>
    2ff6:	1f 92       	push	r1
    2ff8:	cd b7       	in	r28, 0x3d	; 61
    2ffa:	de b7       	in	r29, 0x3e	; 62
    2ffc:	9a 83       	std	Y+2, r25	; 0x02
    2ffe:	89 83       	std	Y+1, r24	; 0x01
    3000:	7c 83       	std	Y+4, r23	; 0x04
    3002:	6b 83       	std	Y+3, r22	; 0x03
    3004:	89 81       	ldd	r24, Y+1	; 0x01
    3006:	9a 81       	ldd	r25, Y+2	; 0x02
    3008:	01 97       	sbiw	r24, 0x01	; 1
    300a:	39 f4       	brne	.+14     	; 0x301a <_Z41__static_initialization_and_destruction_0ii+0x2a>
    300c:	8b 81       	ldd	r24, Y+3	; 0x03
    300e:	9c 81       	ldd	r25, Y+4	; 0x04
    3010:	01 96       	adiw	r24, 0x01	; 1
    3012:	19 f4       	brne	.+6      	; 0x301a <_Z41__static_initialization_and_destruction_0ii+0x2a>
    3014:	8a e2       	ldi	r24, 0x2A	; 42
    3016:	95 e0       	ldi	r25, 0x05	; 5
    3018:	82 d9       	rcall	.-3324   	; 0x231e <_ZN4lockC1Ev>
    301a:	0f 90       	pop	r0
    301c:	0f 90       	pop	r0
    301e:	0f 90       	pop	r0
    3020:	0f 90       	pop	r0
    3022:	df 91       	pop	r29
    3024:	cf 91       	pop	r28
    3026:	08 95       	ret

00003028 <_GLOBAL__sub_I_InBufferUart0>:
    3028:	cf 93       	push	r28
    302a:	df 93       	push	r29
    302c:	cd b7       	in	r28, 0x3d	; 61
    302e:	de b7       	in	r29, 0x3e	; 62
    3030:	6f ef       	ldi	r22, 0xFF	; 255
    3032:	7f ef       	ldi	r23, 0xFF	; 255
    3034:	81 e0       	ldi	r24, 0x01	; 1
    3036:	90 e0       	ldi	r25, 0x00	; 0
    3038:	db df       	rcall	.-74     	; 0x2ff0 <_Z41__static_initialization_and_destruction_0ii>
    303a:	df 91       	pop	r29
    303c:	cf 91       	pop	r28
    303e:	08 95       	ret

00003040 <__mulsi3>:
    3040:	db 01       	movw	r26, r22
    3042:	8f 93       	push	r24
    3044:	9f 93       	push	r25
    3046:	22 d0       	rcall	.+68     	; 0x308c <__muluhisi3>
    3048:	bf 91       	pop	r27
    304a:	af 91       	pop	r26
    304c:	a2 9f       	mul	r26, r18
    304e:	80 0d       	add	r24, r0
    3050:	91 1d       	adc	r25, r1
    3052:	a3 9f       	mul	r26, r19
    3054:	90 0d       	add	r25, r0
    3056:	b2 9f       	mul	r27, r18
    3058:	90 0d       	add	r25, r0
    305a:	11 24       	eor	r1, r1
    305c:	08 95       	ret

0000305e <__tablejump2__>:
    305e:	ee 0f       	add	r30, r30
    3060:	ff 1f       	adc	r31, r31
    3062:	88 1f       	adc	r24, r24
    3064:	8b bf       	out	0x3b, r24	; 59
    3066:	07 90       	elpm	r0, Z+
    3068:	f6 91       	elpm	r31, Z
    306a:	e0 2d       	mov	r30, r0
    306c:	19 94       	eijmp

0000306e <__umulhisi3>:
    306e:	a2 9f       	mul	r26, r18
    3070:	b0 01       	movw	r22, r0
    3072:	b3 9f       	mul	r27, r19
    3074:	c0 01       	movw	r24, r0
    3076:	a3 9f       	mul	r26, r19
    3078:	70 0d       	add	r23, r0
    307a:	81 1d       	adc	r24, r1
    307c:	11 24       	eor	r1, r1
    307e:	91 1d       	adc	r25, r1
    3080:	b2 9f       	mul	r27, r18
    3082:	70 0d       	add	r23, r0
    3084:	81 1d       	adc	r24, r1
    3086:	11 24       	eor	r1, r1
    3088:	91 1d       	adc	r25, r1
    308a:	08 95       	ret

0000308c <__muluhisi3>:
    308c:	f0 df       	rcall	.-32     	; 0x306e <__umulhisi3>
    308e:	a5 9f       	mul	r26, r21
    3090:	90 0d       	add	r25, r0
    3092:	b4 9f       	mul	r27, r20
    3094:	90 0d       	add	r25, r0
    3096:	a4 9f       	mul	r26, r20
    3098:	80 0d       	add	r24, r0
    309a:	91 1d       	adc	r25, r1
    309c:	11 24       	eor	r1, r1
    309e:	08 95       	ret

000030a0 <malloc>:
    30a0:	cf 93       	push	r28
    30a2:	df 93       	push	r29
    30a4:	82 30       	cpi	r24, 0x02	; 2
    30a6:	91 05       	cpc	r25, r1
    30a8:	10 f4       	brcc	.+4      	; 0x30ae <malloc+0xe>
    30aa:	82 e0       	ldi	r24, 0x02	; 2
    30ac:	90 e0       	ldi	r25, 0x00	; 0
    30ae:	e0 91 2d 05 	lds	r30, 0x052D	; 0x80052d <__flp>
    30b2:	f0 91 2e 05 	lds	r31, 0x052E	; 0x80052e <__flp+0x1>
    30b6:	20 e0       	ldi	r18, 0x00	; 0
    30b8:	30 e0       	ldi	r19, 0x00	; 0
    30ba:	c0 e0       	ldi	r28, 0x00	; 0
    30bc:	d0 e0       	ldi	r29, 0x00	; 0
    30be:	30 97       	sbiw	r30, 0x00	; 0
    30c0:	11 f1       	breq	.+68     	; 0x3106 <malloc+0x66>
    30c2:	40 81       	ld	r20, Z
    30c4:	51 81       	ldd	r21, Z+1	; 0x01
    30c6:	48 17       	cp	r20, r24
    30c8:	59 07       	cpc	r21, r25
    30ca:	c0 f0       	brcs	.+48     	; 0x30fc <malloc+0x5c>
    30cc:	48 17       	cp	r20, r24
    30ce:	59 07       	cpc	r21, r25
    30d0:	61 f4       	brne	.+24     	; 0x30ea <malloc+0x4a>
    30d2:	82 81       	ldd	r24, Z+2	; 0x02
    30d4:	93 81       	ldd	r25, Z+3	; 0x03
    30d6:	20 97       	sbiw	r28, 0x00	; 0
    30d8:	19 f0       	breq	.+6      	; 0x30e0 <malloc+0x40>
    30da:	9b 83       	std	Y+3, r25	; 0x03
    30dc:	8a 83       	std	Y+2, r24	; 0x02
    30de:	2b c0       	rjmp	.+86     	; 0x3136 <malloc+0x96>
    30e0:	90 93 2e 05 	sts	0x052E, r25	; 0x80052e <__flp+0x1>
    30e4:	80 93 2d 05 	sts	0x052D, r24	; 0x80052d <__flp>
    30e8:	26 c0       	rjmp	.+76     	; 0x3136 <malloc+0x96>
    30ea:	21 15       	cp	r18, r1
    30ec:	31 05       	cpc	r19, r1
    30ee:	19 f0       	breq	.+6      	; 0x30f6 <malloc+0x56>
    30f0:	42 17       	cp	r20, r18
    30f2:	53 07       	cpc	r21, r19
    30f4:	18 f4       	brcc	.+6      	; 0x30fc <malloc+0x5c>
    30f6:	9a 01       	movw	r18, r20
    30f8:	be 01       	movw	r22, r28
    30fa:	df 01       	movw	r26, r30
    30fc:	ef 01       	movw	r28, r30
    30fe:	02 80       	ldd	r0, Z+2	; 0x02
    3100:	f3 81       	ldd	r31, Z+3	; 0x03
    3102:	e0 2d       	mov	r30, r0
    3104:	dc cf       	rjmp	.-72     	; 0x30be <malloc+0x1e>
    3106:	21 15       	cp	r18, r1
    3108:	31 05       	cpc	r19, r1
    310a:	09 f1       	breq	.+66     	; 0x314e <malloc+0xae>
    310c:	28 1b       	sub	r18, r24
    310e:	39 0b       	sbc	r19, r25
    3110:	24 30       	cpi	r18, 0x04	; 4
    3112:	31 05       	cpc	r19, r1
    3114:	90 f4       	brcc	.+36     	; 0x313a <malloc+0x9a>
    3116:	12 96       	adiw	r26, 0x02	; 2
    3118:	8d 91       	ld	r24, X+
    311a:	9c 91       	ld	r25, X
    311c:	13 97       	sbiw	r26, 0x03	; 3
    311e:	61 15       	cp	r22, r1
    3120:	71 05       	cpc	r23, r1
    3122:	21 f0       	breq	.+8      	; 0x312c <malloc+0x8c>
    3124:	fb 01       	movw	r30, r22
    3126:	93 83       	std	Z+3, r25	; 0x03
    3128:	82 83       	std	Z+2, r24	; 0x02
    312a:	04 c0       	rjmp	.+8      	; 0x3134 <malloc+0x94>
    312c:	90 93 2e 05 	sts	0x052E, r25	; 0x80052e <__flp+0x1>
    3130:	80 93 2d 05 	sts	0x052D, r24	; 0x80052d <__flp>
    3134:	fd 01       	movw	r30, r26
    3136:	32 96       	adiw	r30, 0x02	; 2
    3138:	44 c0       	rjmp	.+136    	; 0x31c2 <malloc+0x122>
    313a:	fd 01       	movw	r30, r26
    313c:	e2 0f       	add	r30, r18
    313e:	f3 1f       	adc	r31, r19
    3140:	81 93       	st	Z+, r24
    3142:	91 93       	st	Z+, r25
    3144:	22 50       	subi	r18, 0x02	; 2
    3146:	31 09       	sbc	r19, r1
    3148:	2d 93       	st	X+, r18
    314a:	3c 93       	st	X, r19
    314c:	3a c0       	rjmp	.+116    	; 0x31c2 <malloc+0x122>
    314e:	20 91 2b 05 	lds	r18, 0x052B	; 0x80052b <__brkval>
    3152:	30 91 2c 05 	lds	r19, 0x052C	; 0x80052c <__brkval+0x1>
    3156:	23 2b       	or	r18, r19
    3158:	41 f4       	brne	.+16     	; 0x316a <malloc+0xca>
    315a:	20 91 02 02 	lds	r18, 0x0202	; 0x800202 <__malloc_heap_start>
    315e:	30 91 03 02 	lds	r19, 0x0203	; 0x800203 <__malloc_heap_start+0x1>
    3162:	30 93 2c 05 	sts	0x052C, r19	; 0x80052c <__brkval+0x1>
    3166:	20 93 2b 05 	sts	0x052B, r18	; 0x80052b <__brkval>
    316a:	20 91 00 02 	lds	r18, 0x0200	; 0x800200 <__data_start>
    316e:	30 91 01 02 	lds	r19, 0x0201	; 0x800201 <__data_start+0x1>
    3172:	21 15       	cp	r18, r1
    3174:	31 05       	cpc	r19, r1
    3176:	41 f4       	brne	.+16     	; 0x3188 <malloc+0xe8>
    3178:	2d b7       	in	r18, 0x3d	; 61
    317a:	3e b7       	in	r19, 0x3e	; 62
    317c:	40 91 04 02 	lds	r20, 0x0204	; 0x800204 <__malloc_margin>
    3180:	50 91 05 02 	lds	r21, 0x0205	; 0x800205 <__malloc_margin+0x1>
    3184:	24 1b       	sub	r18, r20
    3186:	35 0b       	sbc	r19, r21
    3188:	e0 91 2b 05 	lds	r30, 0x052B	; 0x80052b <__brkval>
    318c:	f0 91 2c 05 	lds	r31, 0x052C	; 0x80052c <__brkval+0x1>
    3190:	e2 17       	cp	r30, r18
    3192:	f3 07       	cpc	r31, r19
    3194:	a0 f4       	brcc	.+40     	; 0x31be <malloc+0x11e>
    3196:	2e 1b       	sub	r18, r30
    3198:	3f 0b       	sbc	r19, r31
    319a:	28 17       	cp	r18, r24
    319c:	39 07       	cpc	r19, r25
    319e:	78 f0       	brcs	.+30     	; 0x31be <malloc+0x11e>
    31a0:	ac 01       	movw	r20, r24
    31a2:	4e 5f       	subi	r20, 0xFE	; 254
    31a4:	5f 4f       	sbci	r21, 0xFF	; 255
    31a6:	24 17       	cp	r18, r20
    31a8:	35 07       	cpc	r19, r21
    31aa:	48 f0       	brcs	.+18     	; 0x31be <malloc+0x11e>
    31ac:	4e 0f       	add	r20, r30
    31ae:	5f 1f       	adc	r21, r31
    31b0:	50 93 2c 05 	sts	0x052C, r21	; 0x80052c <__brkval+0x1>
    31b4:	40 93 2b 05 	sts	0x052B, r20	; 0x80052b <__brkval>
    31b8:	81 93       	st	Z+, r24
    31ba:	91 93       	st	Z+, r25
    31bc:	02 c0       	rjmp	.+4      	; 0x31c2 <malloc+0x122>
    31be:	e0 e0       	ldi	r30, 0x00	; 0
    31c0:	f0 e0       	ldi	r31, 0x00	; 0
    31c2:	cf 01       	movw	r24, r30
    31c4:	df 91       	pop	r29
    31c6:	cf 91       	pop	r28
    31c8:	08 95       	ret

000031ca <free>:
    31ca:	0f 93       	push	r16
    31cc:	1f 93       	push	r17
    31ce:	cf 93       	push	r28
    31d0:	df 93       	push	r29
    31d2:	00 97       	sbiw	r24, 0x00	; 0
    31d4:	09 f4       	brne	.+2      	; 0x31d8 <free+0xe>
    31d6:	8c c0       	rjmp	.+280    	; 0x32f0 <free+0x126>
    31d8:	fc 01       	movw	r30, r24
    31da:	32 97       	sbiw	r30, 0x02	; 2
    31dc:	13 82       	std	Z+3, r1	; 0x03
    31de:	12 82       	std	Z+2, r1	; 0x02
    31e0:	00 91 2d 05 	lds	r16, 0x052D	; 0x80052d <__flp>
    31e4:	10 91 2e 05 	lds	r17, 0x052E	; 0x80052e <__flp+0x1>
    31e8:	01 15       	cp	r16, r1
    31ea:	11 05       	cpc	r17, r1
    31ec:	81 f4       	brne	.+32     	; 0x320e <free+0x44>
    31ee:	20 81       	ld	r18, Z
    31f0:	31 81       	ldd	r19, Z+1	; 0x01
    31f2:	82 0f       	add	r24, r18
    31f4:	93 1f       	adc	r25, r19
    31f6:	20 91 2b 05 	lds	r18, 0x052B	; 0x80052b <__brkval>
    31fa:	30 91 2c 05 	lds	r19, 0x052C	; 0x80052c <__brkval+0x1>
    31fe:	28 17       	cp	r18, r24
    3200:	39 07       	cpc	r19, r25
    3202:	79 f5       	brne	.+94     	; 0x3262 <free+0x98>
    3204:	f0 93 2c 05 	sts	0x052C, r31	; 0x80052c <__brkval+0x1>
    3208:	e0 93 2b 05 	sts	0x052B, r30	; 0x80052b <__brkval>
    320c:	71 c0       	rjmp	.+226    	; 0x32f0 <free+0x126>
    320e:	d8 01       	movw	r26, r16
    3210:	40 e0       	ldi	r20, 0x00	; 0
    3212:	50 e0       	ldi	r21, 0x00	; 0
    3214:	ae 17       	cp	r26, r30
    3216:	bf 07       	cpc	r27, r31
    3218:	50 f4       	brcc	.+20     	; 0x322e <free+0x64>
    321a:	12 96       	adiw	r26, 0x02	; 2
    321c:	2d 91       	ld	r18, X+
    321e:	3c 91       	ld	r19, X
    3220:	13 97       	sbiw	r26, 0x03	; 3
    3222:	ad 01       	movw	r20, r26
    3224:	21 15       	cp	r18, r1
    3226:	31 05       	cpc	r19, r1
    3228:	09 f1       	breq	.+66     	; 0x326c <free+0xa2>
    322a:	d9 01       	movw	r26, r18
    322c:	f3 cf       	rjmp	.-26     	; 0x3214 <free+0x4a>
    322e:	9d 01       	movw	r18, r26
    3230:	da 01       	movw	r26, r20
    3232:	33 83       	std	Z+3, r19	; 0x03
    3234:	22 83       	std	Z+2, r18	; 0x02
    3236:	60 81       	ld	r22, Z
    3238:	71 81       	ldd	r23, Z+1	; 0x01
    323a:	86 0f       	add	r24, r22
    323c:	97 1f       	adc	r25, r23
    323e:	82 17       	cp	r24, r18
    3240:	93 07       	cpc	r25, r19
    3242:	69 f4       	brne	.+26     	; 0x325e <free+0x94>
    3244:	ec 01       	movw	r28, r24
    3246:	28 81       	ld	r18, Y
    3248:	39 81       	ldd	r19, Y+1	; 0x01
    324a:	26 0f       	add	r18, r22
    324c:	37 1f       	adc	r19, r23
    324e:	2e 5f       	subi	r18, 0xFE	; 254
    3250:	3f 4f       	sbci	r19, 0xFF	; 255
    3252:	31 83       	std	Z+1, r19	; 0x01
    3254:	20 83       	st	Z, r18
    3256:	8a 81       	ldd	r24, Y+2	; 0x02
    3258:	9b 81       	ldd	r25, Y+3	; 0x03
    325a:	93 83       	std	Z+3, r25	; 0x03
    325c:	82 83       	std	Z+2, r24	; 0x02
    325e:	45 2b       	or	r20, r21
    3260:	29 f4       	brne	.+10     	; 0x326c <free+0xa2>
    3262:	f0 93 2e 05 	sts	0x052E, r31	; 0x80052e <__flp+0x1>
    3266:	e0 93 2d 05 	sts	0x052D, r30	; 0x80052d <__flp>
    326a:	42 c0       	rjmp	.+132    	; 0x32f0 <free+0x126>
    326c:	13 96       	adiw	r26, 0x03	; 3
    326e:	fc 93       	st	X, r31
    3270:	ee 93       	st	-X, r30
    3272:	12 97       	sbiw	r26, 0x02	; 2
    3274:	ed 01       	movw	r28, r26
    3276:	49 91       	ld	r20, Y+
    3278:	59 91       	ld	r21, Y+
    327a:	9e 01       	movw	r18, r28
    327c:	24 0f       	add	r18, r20
    327e:	35 1f       	adc	r19, r21
    3280:	e2 17       	cp	r30, r18
    3282:	f3 07       	cpc	r31, r19
    3284:	71 f4       	brne	.+28     	; 0x32a2 <free+0xd8>
    3286:	80 81       	ld	r24, Z
    3288:	91 81       	ldd	r25, Z+1	; 0x01
    328a:	84 0f       	add	r24, r20
    328c:	95 1f       	adc	r25, r21
    328e:	02 96       	adiw	r24, 0x02	; 2
    3290:	11 96       	adiw	r26, 0x01	; 1
    3292:	9c 93       	st	X, r25
    3294:	8e 93       	st	-X, r24
    3296:	82 81       	ldd	r24, Z+2	; 0x02
    3298:	93 81       	ldd	r25, Z+3	; 0x03
    329a:	13 96       	adiw	r26, 0x03	; 3
    329c:	9c 93       	st	X, r25
    329e:	8e 93       	st	-X, r24
    32a0:	12 97       	sbiw	r26, 0x02	; 2
    32a2:	e0 e0       	ldi	r30, 0x00	; 0
    32a4:	f0 e0       	ldi	r31, 0x00	; 0
    32a6:	d8 01       	movw	r26, r16
    32a8:	12 96       	adiw	r26, 0x02	; 2
    32aa:	8d 91       	ld	r24, X+
    32ac:	9c 91       	ld	r25, X
    32ae:	13 97       	sbiw	r26, 0x03	; 3
    32b0:	00 97       	sbiw	r24, 0x00	; 0
    32b2:	19 f0       	breq	.+6      	; 0x32ba <free+0xf0>
    32b4:	f8 01       	movw	r30, r16
    32b6:	8c 01       	movw	r16, r24
    32b8:	f6 cf       	rjmp	.-20     	; 0x32a6 <free+0xdc>
    32ba:	8d 91       	ld	r24, X+
    32bc:	9c 91       	ld	r25, X
    32be:	98 01       	movw	r18, r16
    32c0:	2e 5f       	subi	r18, 0xFE	; 254
    32c2:	3f 4f       	sbci	r19, 0xFF	; 255
    32c4:	82 0f       	add	r24, r18
    32c6:	93 1f       	adc	r25, r19
    32c8:	20 91 2b 05 	lds	r18, 0x052B	; 0x80052b <__brkval>
    32cc:	30 91 2c 05 	lds	r19, 0x052C	; 0x80052c <__brkval+0x1>
    32d0:	28 17       	cp	r18, r24
    32d2:	39 07       	cpc	r19, r25
    32d4:	69 f4       	brne	.+26     	; 0x32f0 <free+0x126>
    32d6:	30 97       	sbiw	r30, 0x00	; 0
    32d8:	29 f4       	brne	.+10     	; 0x32e4 <free+0x11a>
    32da:	10 92 2e 05 	sts	0x052E, r1	; 0x80052e <__flp+0x1>
    32de:	10 92 2d 05 	sts	0x052D, r1	; 0x80052d <__flp>
    32e2:	02 c0       	rjmp	.+4      	; 0x32e8 <free+0x11e>
    32e4:	13 82       	std	Z+3, r1	; 0x03
    32e6:	12 82       	std	Z+2, r1	; 0x02
    32e8:	10 93 2c 05 	sts	0x052C, r17	; 0x80052c <__brkval+0x1>
    32ec:	00 93 2b 05 	sts	0x052B, r16	; 0x80052b <__brkval>
    32f0:	df 91       	pop	r29
    32f2:	cf 91       	pop	r28
    32f4:	1f 91       	pop	r17
    32f6:	0f 91       	pop	r16
    32f8:	08 95       	ret

000032fa <__do_global_dtors>:
    32fa:	14 e0       	ldi	r17, 0x04	; 4
    32fc:	ce e2       	ldi	r28, 0x2E	; 46
    32fe:	d4 e0       	ldi	r29, 0x04	; 4
    3300:	00 e0       	ldi	r16, 0x00	; 0
    3302:	05 c0       	rjmp	.+10     	; 0x330e <__do_global_dtors+0x14>
    3304:	80 2f       	mov	r24, r16
    3306:	fe 01       	movw	r30, r28
    3308:	aa de       	rcall	.-684    	; 0x305e <__tablejump2__>
    330a:	21 96       	adiw	r28, 0x01	; 1
    330c:	01 1d       	adc	r16, r1
    330e:	cf 32       	cpi	r28, 0x2F	; 47
    3310:	d1 07       	cpc	r29, r17
    3312:	80 e0       	ldi	r24, 0x00	; 0
    3314:	08 07       	cpc	r16, r24
    3316:	b1 f7       	brne	.-20     	; 0x3304 <__do_global_dtors+0xa>
    3318:	f8 94       	cli

0000331a <__stop_program>:
    331a:	ff cf       	rjmp	.-2      	; 0x331a <__stop_program>
