
arduino io.elf:     file format elf32-avr

Sections:
Idx Name          Size      VMA       LMA       File off  Algn
  0 .data         00000006  00800200  00001fec  00002080  2**0
                  CONTENTS, ALLOC, LOAD, DATA
  1 .text         00001fec  00000000  00000000  00000094  2**1
                  CONTENTS, ALLOC, LOAD, READONLY, CODE
  2 .bss          00000329  00800206  00800206  00002086  2**0
                  ALLOC
  3 .comment      00000030  00000000  00000000  00002086  2**0
                  CONTENTS, READONLY
  4 .note.gnu.avr.deviceinfo 00000040  00000000  00000000  000020b8  2**2
                  CONTENTS, READONLY
  5 .debug_info   00000bbc  00000000  00000000  000020f8  2**0
                  CONTENTS, READONLY, DEBUGGING
  6 .debug_abbrev 00000b1a  00000000  00000000  00002cb4  2**0
                  CONTENTS, READONLY, DEBUGGING
  7 .debug_line   000001f9  00000000  00000000  000037ce  2**0
                  CONTENTS, READONLY, DEBUGGING
  8 .debug_str    000003e6  00000000  00000000  000039c7  2**0
                  CONTENTS, READONLY, DEBUGGING

Disassembly of section .text:

00000000 <__vectors>:
       0:	db c3       	rjmp	.+1974   	; 0x7b8 <__dtors_end>
       2:	00 00       	nop
       4:	0a c4       	rjmp	.+2068   	; 0x81a <__bad_interrupt>
       6:	00 00       	nop
       8:	08 c4       	rjmp	.+2064   	; 0x81a <__bad_interrupt>
       a:	00 00       	nop
       c:	06 c4       	rjmp	.+2060   	; 0x81a <__bad_interrupt>
       e:	00 00       	nop
      10:	04 c4       	rjmp	.+2056   	; 0x81a <__bad_interrupt>
      12:	00 00       	nop
      14:	02 c4       	rjmp	.+2052   	; 0x81a <__bad_interrupt>
      16:	00 00       	nop
      18:	00 c4       	rjmp	.+2048   	; 0x81a <__bad_interrupt>
      1a:	00 00       	nop
      1c:	fe c3       	rjmp	.+2044   	; 0x81a <__bad_interrupt>
      1e:	00 00       	nop
      20:	fc c3       	rjmp	.+2040   	; 0x81a <__bad_interrupt>
      22:	00 00       	nop
      24:	fa c3       	rjmp	.+2036   	; 0x81a <__bad_interrupt>
      26:	00 00       	nop
      28:	f8 c3       	rjmp	.+2032   	; 0x81a <__bad_interrupt>
      2a:	00 00       	nop
      2c:	f6 c3       	rjmp	.+2028   	; 0x81a <__bad_interrupt>
      2e:	00 00       	nop
      30:	f4 c3       	rjmp	.+2024   	; 0x81a <__bad_interrupt>
      32:	00 00       	nop
      34:	f2 c3       	rjmp	.+2020   	; 0x81a <__bad_interrupt>
      36:	00 00       	nop
      38:	f0 c3       	rjmp	.+2016   	; 0x81a <__bad_interrupt>
      3a:	00 00       	nop
      3c:	ee c3       	rjmp	.+2012   	; 0x81a <__bad_interrupt>
      3e:	00 00       	nop
      40:	ec c3       	rjmp	.+2008   	; 0x81a <__bad_interrupt>
      42:	00 00       	nop
      44:	ea c3       	rjmp	.+2004   	; 0x81a <__bad_interrupt>
      46:	00 00       	nop
      48:	42 c6       	rjmp	.+3204   	; 0xcce <__vector_18>
      4a:	00 00       	nop
      4c:	e6 c3       	rjmp	.+1996   	; 0x81a <__bad_interrupt>
      4e:	00 00       	nop
      50:	e4 c3       	rjmp	.+1992   	; 0x81a <__bad_interrupt>
      52:	00 00       	nop
      54:	e2 c3       	rjmp	.+1988   	; 0x81a <__bad_interrupt>
      56:	00 00       	nop
      58:	e0 c3       	rjmp	.+1984   	; 0x81a <__bad_interrupt>
      5a:	00 00       	nop
      5c:	de c3       	rjmp	.+1980   	; 0x81a <__bad_interrupt>
      5e:	00 00       	nop
      60:	dc c3       	rjmp	.+1976   	; 0x81a <__bad_interrupt>
      62:	00 00       	nop
      64:	0c 94 31 0e 	jmp	0x1c62	; 0x1c62 <__vector_25>
      68:	d8 c3       	rjmp	.+1968   	; 0x81a <__bad_interrupt>
      6a:	00 00       	nop
      6c:	d6 c3       	rjmp	.+1964   	; 0x81a <__bad_interrupt>
      6e:	00 00       	nop
      70:	d4 c3       	rjmp	.+1960   	; 0x81a <__bad_interrupt>
      72:	00 00       	nop
      74:	0c 94 83 0c 	jmp	0x1906	; 0x1906 <__vector_29>
      78:	d0 c3       	rjmp	.+1952   	; 0x81a <__bad_interrupt>
      7a:	00 00       	nop
      7c:	ce c3       	rjmp	.+1948   	; 0x81a <__bad_interrupt>
      7e:	00 00       	nop
      80:	0c 94 50 0c 	jmp	0x18a0	; 0x18a0 <__vector_32>
      84:	ca c3       	rjmp	.+1940   	; 0x81a <__bad_interrupt>
      86:	00 00       	nop
      88:	c8 c3       	rjmp	.+1936   	; 0x81a <__bad_interrupt>
      8a:	00 00       	nop
      8c:	c6 c3       	rjmp	.+1932   	; 0x81a <__bad_interrupt>
      8e:	00 00       	nop
      90:	0c 94 6a 0e 	jmp	0x1cd4	; 0x1cd4 <__vector_36>
      94:	c2 c3       	rjmp	.+1924   	; 0x81a <__bad_interrupt>
      96:	00 00       	nop
      98:	c0 c3       	rjmp	.+1920   	; 0x81a <__bad_interrupt>
      9a:	00 00       	nop
      9c:	be c3       	rjmp	.+1916   	; 0x81a <__bad_interrupt>
      9e:	00 00       	nop
      a0:	bc c3       	rjmp	.+1912   	; 0x81a <__bad_interrupt>
      a2:	00 00       	nop
      a4:	ba c3       	rjmp	.+1908   	; 0x81a <__bad_interrupt>
      a6:	00 00       	nop
      a8:	b8 c3       	rjmp	.+1904   	; 0x81a <__bad_interrupt>
      aa:	00 00       	nop
      ac:	b6 c3       	rjmp	.+1900   	; 0x81a <__bad_interrupt>
      ae:	00 00       	nop
      b0:	b4 c3       	rjmp	.+1896   	; 0x81a <__bad_interrupt>
      b2:	00 00       	nop
      b4:	b2 c3       	rjmp	.+1892   	; 0x81a <__bad_interrupt>
      b6:	00 00       	nop
      b8:	b0 c3       	rjmp	.+1888   	; 0x81a <__bad_interrupt>
      ba:	00 00       	nop
      bc:	ae c3       	rjmp	.+1884   	; 0x81a <__bad_interrupt>
      be:	00 00       	nop
      c0:	ac c3       	rjmp	.+1880   	; 0x81a <__bad_interrupt>
      c2:	00 00       	nop
      c4:	aa c3       	rjmp	.+1876   	; 0x81a <__bad_interrupt>
      c6:	00 00       	nop
      c8:	a8 c3       	rjmp	.+1872   	; 0x81a <__bad_interrupt>
      ca:	00 00       	nop
      cc:	a6 c3       	rjmp	.+1868   	; 0x81a <__bad_interrupt>
      ce:	00 00       	nop
      d0:	a4 c3       	rjmp	.+1864   	; 0x81a <__bad_interrupt>
      d2:	00 00       	nop
      d4:	a2 c3       	rjmp	.+1860   	; 0x81a <__bad_interrupt>
      d6:	00 00       	nop
      d8:	a0 c3       	rjmp	.+1856   	; 0x81a <__bad_interrupt>
      da:	00 00       	nop
      dc:	9e c3       	rjmp	.+1852   	; 0x81a <__bad_interrupt>
      de:	00 00       	nop
      e0:	9c c3       	rjmp	.+1848   	; 0x81a <__bad_interrupt>
      e2:	00 00       	nop
      e4:	7b 05       	cpc	r23, r11
      e6:	77 05       	cpc	r23, r7
      e8:	73 05       	cpc	r23, r3
      ea:	6f 05       	cpc	r22, r15
      ec:	6b 05       	cpc	r22, r11
      ee:	67 05       	cpc	r22, r7
      f0:	63 05       	cpc	r22, r3
      f2:	86 05       	cpc	r24, r6
      f4:	7b 05       	cpc	r23, r11
      f6:	77 05       	cpc	r23, r7
      f8:	73 05       	cpc	r23, r3
      fa:	6f 05       	cpc	r22, r15
      fc:	6b 05       	cpc	r22, r11
      fe:	67 05       	cpc	r22, r7
     100:	63 05       	cpc	r22, r3
     102:	7f 05       	cpc	r23, r15

00000104 <__trampolines_end>:
     104:	ea ff       	.word	0xffea	; ????
     106:	ea ff       	.word	0xffea	; ????
     108:	ea ff       	.word	0xffea	; ????
     10a:	eb ff       	.word	0xffeb	; ????
     10c:	eb ff       	.word	0xffeb	; ????
     10e:	eb ff       	.word	0xffeb	; ????
     110:	ec ff       	.word	0xffec	; ????
     112:	ec ff       	.word	0xffec	; ????
     114:	ec ff       	.word	0xffec	; ????
     116:	ed ff       	.word	0xffed	; ????
     118:	ed ff       	.word	0xffed	; ????
     11a:	ed ff       	.word	0xffed	; ????
     11c:	ee ff       	.word	0xffee	; ????
     11e:	ee ff       	.word	0xffee	; ????
     120:	ee ff       	.word	0xffee	; ????
     122:	ef ff       	.word	0xffef	; ????
     124:	ef ff       	.word	0xffef	; ????
     126:	ef ff       	.word	0xffef	; ????
     128:	f0 ff       	sbrs	r31, 0
     12a:	f0 ff       	sbrs	r31, 0
     12c:	f0 ff       	sbrs	r31, 0
     12e:	f1 ff       	sbrs	r31, 1
     130:	f1 ff       	sbrs	r31, 1
     132:	f1 ff       	sbrs	r31, 1
     134:	f2 ff       	sbrs	r31, 2
     136:	f2 ff       	sbrs	r31, 2
     138:	f2 ff       	sbrs	r31, 2
     13a:	f3 ff       	sbrs	r31, 3
     13c:	f3 ff       	sbrs	r31, 3
     13e:	f4 ff       	sbrs	r31, 4
     140:	f4 ff       	sbrs	r31, 4
     142:	f4 ff       	sbrs	r31, 4
     144:	f5 ff       	sbrs	r31, 5
     146:	f5 ff       	sbrs	r31, 5
     148:	f5 ff       	sbrs	r31, 5
     14a:	f6 ff       	sbrs	r31, 6
     14c:	f6 ff       	sbrs	r31, 6
     14e:	f6 ff       	sbrs	r31, 6
     150:	f7 ff       	sbrs	r31, 7
     152:	f7 ff       	sbrs	r31, 7
     154:	f7 ff       	sbrs	r31, 7
     156:	f8 ff       	.word	0xfff8	; ????
     158:	f8 ff       	.word	0xfff8	; ????
     15a:	f8 ff       	.word	0xfff8	; ????
     15c:	f9 ff       	.word	0xfff9	; ????
     15e:	f9 ff       	.word	0xfff9	; ????
     160:	f9 ff       	.word	0xfff9	; ????
     162:	fa ff       	.word	0xfffa	; ????
     164:	fa ff       	.word	0xfffa	; ????
     166:	fb ff       	.word	0xfffb	; ????
     168:	fb ff       	.word	0xfffb	; ????
     16a:	fb ff       	.word	0xfffb	; ????
     16c:	fc ff       	.word	0xfffc	; ????
     16e:	fc ff       	.word	0xfffc	; ????
     170:	fc ff       	.word	0xfffc	; ????
     172:	fd ff       	.word	0xfffd	; ????
     174:	fd ff       	.word	0xfffd	; ????
     176:	fd ff       	.word	0xfffd	; ????
     178:	fe ff       	.word	0xfffe	; ????
     17a:	fe ff       	.word	0xfffe	; ????
     17c:	ff ff       	.word	0xffff	; ????
     17e:	ff ff       	.word	0xffff	; ????
     180:	ff ff       	.word	0xffff	; ????
     182:	00 00       	nop
     184:	00 00       	nop
     186:	00 00       	nop
     188:	01 00       	.word	0x0001	; ????
     18a:	01 00       	.word	0x0001	; ????
     18c:	01 00       	.word	0x0001	; ????
     18e:	02 00       	.word	0x0002	; ????
     190:	02 00       	.word	0x0002	; ????
     192:	03 00       	.word	0x0003	; ????
     194:	03 00       	.word	0x0003	; ????
     196:	03 00       	.word	0x0003	; ????
     198:	04 00       	.word	0x0004	; ????
     19a:	04 00       	.word	0x0004	; ????
     19c:	04 00       	.word	0x0004	; ????
     19e:	05 00       	.word	0x0005	; ????
     1a0:	05 00       	.word	0x0005	; ????
     1a2:	05 00       	.word	0x0005	; ????
     1a4:	06 00       	.word	0x0006	; ????
     1a6:	06 00       	.word	0x0006	; ????
     1a8:	07 00       	.word	0x0007	; ????
     1aa:	07 00       	.word	0x0007	; ????
     1ac:	07 00       	.word	0x0007	; ????
     1ae:	08 00       	.word	0x0008	; ????
     1b0:	08 00       	.word	0x0008	; ????
     1b2:	08 00       	.word	0x0008	; ????
     1b4:	09 00       	.word	0x0009	; ????
     1b6:	09 00       	.word	0x0009	; ????
     1b8:	0a 00       	.word	0x000a	; ????
     1ba:	0a 00       	.word	0x000a	; ????
     1bc:	0a 00       	.word	0x000a	; ????
     1be:	0b 00       	.word	0x000b	; ????
     1c0:	0b 00       	.word	0x000b	; ????
     1c2:	0b 00       	.word	0x000b	; ????
     1c4:	0c 00       	.word	0x000c	; ????
     1c6:	0c 00       	.word	0x000c	; ????
     1c8:	0d 00       	.word	0x000d	; ????
     1ca:	0d 00       	.word	0x000d	; ????
     1cc:	0d 00       	.word	0x000d	; ????
     1ce:	0e 00       	.word	0x000e	; ????
     1d0:	0e 00       	.word	0x000e	; ????
     1d2:	0f 00       	.word	0x000f	; ????
     1d4:	0f 00       	.word	0x000f	; ????
     1d6:	0f 00       	.word	0x000f	; ????
     1d8:	10 00       	.word	0x0010	; ????
     1da:	10 00       	.word	0x0010	; ????
     1dc:	10 00       	.word	0x0010	; ????
     1de:	11 00       	.word	0x0011	; ????
     1e0:	11 00       	.word	0x0011	; ????
     1e2:	12 00       	.word	0x0012	; ????
     1e4:	12 00       	.word	0x0012	; ????
     1e6:	12 00       	.word	0x0012	; ????
     1e8:	13 00       	.word	0x0013	; ????
     1ea:	13 00       	.word	0x0013	; ????
     1ec:	14 00       	.word	0x0014	; ????
     1ee:	14 00       	.word	0x0014	; ????
     1f0:	14 00       	.word	0x0014	; ????
     1f2:	15 00       	.word	0x0015	; ????
     1f4:	15 00       	.word	0x0015	; ????
     1f6:	15 00       	.word	0x0015	; ????
     1f8:	16 00       	.word	0x0016	; ????
     1fa:	16 00       	.word	0x0016	; ????
     1fc:	17 00       	.word	0x0017	; ????
     1fe:	17 00       	.word	0x0017	; ????
     200:	17 00       	.word	0x0017	; ????
     202:	18 00       	.word	0x0018	; ????
     204:	18 00       	.word	0x0018	; ????
     206:	19 00       	.word	0x0019	; ????
     208:	19 00       	.word	0x0019	; ????
     20a:	19 00       	.word	0x0019	; ????
     20c:	1a 00       	.word	0x001a	; ????
     20e:	1a 00       	.word	0x001a	; ????
     210:	1b 00       	.word	0x001b	; ????
     212:	1b 00       	.word	0x001b	; ????
     214:	1b 00       	.word	0x001b	; ????
     216:	1c 00       	.word	0x001c	; ????
     218:	1c 00       	.word	0x001c	; ????
     21a:	1d 00       	.word	0x001d	; ????
     21c:	1d 00       	.word	0x001d	; ????
     21e:	1d 00       	.word	0x001d	; ????
     220:	1e 00       	.word	0x001e	; ????
     222:	1e 00       	.word	0x001e	; ????
     224:	1f 00       	.word	0x001f	; ????
     226:	1f 00       	.word	0x001f	; ????
     228:	1f 00       	.word	0x001f	; ????
     22a:	20 00       	.word	0x0020	; ????
     22c:	20 00       	.word	0x0020	; ????
     22e:	21 00       	.word	0x0021	; ????
     230:	21 00       	.word	0x0021	; ????
     232:	22 00       	.word	0x0022	; ????
     234:	22 00       	.word	0x0022	; ????
     236:	22 00       	.word	0x0022	; ????
     238:	23 00       	.word	0x0023	; ????
     23a:	23 00       	.word	0x0023	; ????
     23c:	24 00       	.word	0x0024	; ????
     23e:	24 00       	.word	0x0024	; ????
     240:	24 00       	.word	0x0024	; ????
     242:	25 00       	.word	0x0025	; ????
     244:	25 00       	.word	0x0025	; ????
     246:	26 00       	.word	0x0026	; ????
     248:	26 00       	.word	0x0026	; ????
     24a:	26 00       	.word	0x0026	; ????
     24c:	27 00       	.word	0x0027	; ????
     24e:	27 00       	.word	0x0027	; ????
     250:	28 00       	.word	0x0028	; ????
     252:	28 00       	.word	0x0028	; ????
     254:	29 00       	.word	0x0029	; ????
     256:	29 00       	.word	0x0029	; ????
     258:	29 00       	.word	0x0029	; ????
     25a:	2a 00       	.word	0x002a	; ????
     25c:	2a 00       	.word	0x002a	; ????
     25e:	2b 00       	.word	0x002b	; ????
     260:	2b 00       	.word	0x002b	; ????
     262:	2b 00       	.word	0x002b	; ????
     264:	2c 00       	.word	0x002c	; ????
     266:	2c 00       	.word	0x002c	; ????
     268:	2d 00       	.word	0x002d	; ????
     26a:	2d 00       	.word	0x002d	; ????
     26c:	2e 00       	.word	0x002e	; ????
     26e:	2e 00       	.word	0x002e	; ????
     270:	2e 00       	.word	0x002e	; ????
     272:	2f 00       	.word	0x002f	; ????
     274:	2f 00       	.word	0x002f	; ????
     276:	30 00       	.word	0x0030	; ????
     278:	30 00       	.word	0x0030	; ????
     27a:	31 00       	.word	0x0031	; ????
     27c:	31 00       	.word	0x0031	; ????
     27e:	31 00       	.word	0x0031	; ????
     280:	32 00       	.word	0x0032	; ????
     282:	32 00       	.word	0x0032	; ????
     284:	33 00       	.word	0x0033	; ????
     286:	33 00       	.word	0x0033	; ????
     288:	34 00       	.word	0x0034	; ????
     28a:	34 00       	.word	0x0034	; ????
     28c:	34 00       	.word	0x0034	; ????
     28e:	35 00       	.word	0x0035	; ????
     290:	35 00       	.word	0x0035	; ????
     292:	36 00       	.word	0x0036	; ????
     294:	36 00       	.word	0x0036	; ????
     296:	37 00       	.word	0x0037	; ????
     298:	37 00       	.word	0x0037	; ????
     29a:	38 00       	.word	0x0038	; ????
     29c:	38 00       	.word	0x0038	; ????
     29e:	38 00       	.word	0x0038	; ????
     2a0:	39 00       	.word	0x0039	; ????
     2a2:	39 00       	.word	0x0039	; ????
     2a4:	3a 00       	.word	0x003a	; ????
     2a6:	3a 00       	.word	0x003a	; ????
     2a8:	3b 00       	.word	0x003b	; ????
     2aa:	3b 00       	.word	0x003b	; ????
     2ac:	3c 00       	.word	0x003c	; ????
     2ae:	3c 00       	.word	0x003c	; ????
     2b0:	3c 00       	.word	0x003c	; ????
     2b2:	3d 00       	.word	0x003d	; ????
     2b4:	3d 00       	.word	0x003d	; ????
     2b6:	3e 00       	.word	0x003e	; ????
     2b8:	3e 00       	.word	0x003e	; ????
     2ba:	3f 00       	.word	0x003f	; ????
     2bc:	3f 00       	.word	0x003f	; ????
     2be:	40 00       	.word	0x0040	; ????
     2c0:	40 00       	.word	0x0040	; ????
     2c2:	40 00       	.word	0x0040	; ????
     2c4:	41 00       	.word	0x0041	; ????
     2c6:	41 00       	.word	0x0041	; ????
     2c8:	42 00       	.word	0x0042	; ????
     2ca:	42 00       	.word	0x0042	; ????
     2cc:	43 00       	.word	0x0043	; ????
     2ce:	43 00       	.word	0x0043	; ????
     2d0:	44 00       	.word	0x0044	; ????
     2d2:	44 00       	.word	0x0044	; ????
     2d4:	45 00       	.word	0x0045	; ????
     2d6:	45 00       	.word	0x0045	; ????
     2d8:	46 00       	.word	0x0046	; ????
     2da:	46 00       	.word	0x0046	; ????
     2dc:	46 00       	.word	0x0046	; ????
     2de:	47 00       	.word	0x0047	; ????
     2e0:	47 00       	.word	0x0047	; ????
     2e2:	48 00       	.word	0x0048	; ????
     2e4:	48 00       	.word	0x0048	; ????
     2e6:	49 00       	.word	0x0049	; ????
     2e8:	49 00       	.word	0x0049	; ????
     2ea:	4a 00       	.word	0x004a	; ????
     2ec:	4a 00       	.word	0x004a	; ????
     2ee:	4b 00       	.word	0x004b	; ????
     2f0:	4b 00       	.word	0x004b	; ????
     2f2:	4c 00       	.word	0x004c	; ????
     2f4:	4c 00       	.word	0x004c	; ????
     2f6:	4c 00       	.word	0x004c	; ????
     2f8:	4d 00       	.word	0x004d	; ????
     2fa:	4d 00       	.word	0x004d	; ????
     2fc:	4e 00       	.word	0x004e	; ????
     2fe:	4e 00       	.word	0x004e	; ????
     300:	4f 00       	.word	0x004f	; ????
     302:	4f 00       	.word	0x004f	; ????
     304:	50 00       	.word	0x0050	; ????
     306:	50 00       	.word	0x0050	; ????
     308:	51 00       	.word	0x0051	; ????
     30a:	51 00       	.word	0x0051	; ????
     30c:	52 00       	.word	0x0052	; ????
     30e:	52 00       	.word	0x0052	; ????
     310:	53 00       	.word	0x0053	; ????
     312:	53 00       	.word	0x0053	; ????
     314:	54 00       	.word	0x0054	; ????
     316:	54 00       	.word	0x0054	; ????
     318:	55 00       	.word	0x0055	; ????
     31a:	55 00       	.word	0x0055	; ????
     31c:	56 00       	.word	0x0056	; ????
     31e:	56 00       	.word	0x0056	; ????
     320:	57 00       	.word	0x0057	; ????
     322:	57 00       	.word	0x0057	; ????
     324:	57 00       	.word	0x0057	; ????
     326:	58 00       	.word	0x0058	; ????
     328:	58 00       	.word	0x0058	; ????
     32a:	59 00       	.word	0x0059	; ????
     32c:	59 00       	.word	0x0059	; ????
     32e:	5a 00       	.word	0x005a	; ????
     330:	5a 00       	.word	0x005a	; ????
     332:	5b 00       	.word	0x005b	; ????
     334:	5b 00       	.word	0x005b	; ????
     336:	5c 00       	.word	0x005c	; ????
     338:	5c 00       	.word	0x005c	; ????
     33a:	5d 00       	.word	0x005d	; ????
     33c:	5d 00       	.word	0x005d	; ????
     33e:	5e 00       	.word	0x005e	; ????
     340:	5e 00       	.word	0x005e	; ????
     342:	5f 00       	.word	0x005f	; ????
     344:	5f 00       	.word	0x005f	; ????
     346:	60 00       	.word	0x0060	; ????
     348:	60 00       	.word	0x0060	; ????
     34a:	61 00       	.word	0x0061	; ????
     34c:	61 00       	.word	0x0061	; ????
     34e:	62 00       	.word	0x0062	; ????
     350:	62 00       	.word	0x0062	; ????
     352:	63 00       	.word	0x0063	; ????
     354:	63 00       	.word	0x0063	; ????
     356:	64 00       	.word	0x0064	; ????
     358:	64 00       	.word	0x0064	; ????
     35a:	65 00       	.word	0x0065	; ????
     35c:	65 00       	.word	0x0065	; ????
     35e:	66 00       	.word	0x0066	; ????
     360:	66 00       	.word	0x0066	; ????
     362:	67 00       	.word	0x0067	; ????
     364:	67 00       	.word	0x0067	; ????
     366:	68 00       	.word	0x0068	; ????
     368:	68 00       	.word	0x0068	; ????
     36a:	69 00       	.word	0x0069	; ????
     36c:	69 00       	.word	0x0069	; ????
     36e:	6a 00       	.word	0x006a	; ????
     370:	6b 00       	.word	0x006b	; ????
     372:	6b 00       	.word	0x006b	; ????
     374:	6c 00       	.word	0x006c	; ????
     376:	6c 00       	.word	0x006c	; ????
     378:	6d 00       	.word	0x006d	; ????
     37a:	6d 00       	.word	0x006d	; ????
     37c:	6e 00       	.word	0x006e	; ????
     37e:	6e 00       	.word	0x006e	; ????
     380:	6f 00       	.word	0x006f	; ????
     382:	6f 00       	.word	0x006f	; ????
     384:	70 00       	.word	0x0070	; ????
     386:	70 00       	.word	0x0070	; ????
     388:	71 00       	.word	0x0071	; ????
     38a:	71 00       	.word	0x0071	; ????
     38c:	72 00       	.word	0x0072	; ????
     38e:	72 00       	.word	0x0072	; ????
     390:	73 00       	.word	0x0073	; ????
     392:	73 00       	.word	0x0073	; ????
     394:	74 00       	.word	0x0074	; ????
     396:	74 00       	.word	0x0074	; ????
     398:	75 00       	.word	0x0075	; ????
     39a:	76 00       	.word	0x0076	; ????
     39c:	76 00       	.word	0x0076	; ????
     39e:	77 00       	.word	0x0077	; ????
     3a0:	77 00       	.word	0x0077	; ????
     3a2:	78 00       	.word	0x0078	; ????
     3a4:	78 00       	.word	0x0078	; ????
     3a6:	79 00       	.word	0x0079	; ????
     3a8:	79 00       	.word	0x0079	; ????
     3aa:	7a 00       	.word	0x007a	; ????
     3ac:	7a 00       	.word	0x007a	; ????
     3ae:	7b 00       	.word	0x007b	; ????
     3b0:	7b 00       	.word	0x007b	; ????
     3b2:	7c 00       	.word	0x007c	; ????
     3b4:	7d 00       	.word	0x007d	; ????
     3b6:	7d 00       	.word	0x007d	; ????
     3b8:	7e 00       	.word	0x007e	; ????
     3ba:	7e 00       	.word	0x007e	; ????
     3bc:	7f 00       	.word	0x007f	; ????
     3be:	7f 00       	.word	0x007f	; ????
     3c0:	80 00       	.word	0x0080	; ????
     3c2:	80 00       	.word	0x0080	; ????
     3c4:	81 00       	.word	0x0081	; ????
     3c6:	81 00       	.word	0x0081	; ????
     3c8:	82 00       	.word	0x0082	; ????
     3ca:	83 00       	.word	0x0083	; ????
     3cc:	83 00       	.word	0x0083	; ????
     3ce:	84 00       	.word	0x0084	; ????
     3d0:	84 00       	.word	0x0084	; ????
     3d2:	85 00       	.word	0x0085	; ????
     3d4:	85 00       	.word	0x0085	; ????
     3d6:	86 00       	.word	0x0086	; ????
     3d8:	86 00       	.word	0x0086	; ????
     3da:	87 00       	.word	0x0087	; ????
     3dc:	88 00       	.word	0x0088	; ????
     3de:	88 00       	.word	0x0088	; ????
     3e0:	89 00       	.word	0x0089	; ????
     3e2:	89 00       	.word	0x0089	; ????
     3e4:	8a 00       	.word	0x008a	; ????
     3e6:	8a 00       	.word	0x008a	; ????
     3e8:	8b 00       	.word	0x008b	; ????
     3ea:	8c 00       	.word	0x008c	; ????
     3ec:	8c 00       	.word	0x008c	; ????
     3ee:	8d 00       	.word	0x008d	; ????
     3f0:	8d 00       	.word	0x008d	; ????
     3f2:	8e 00       	.word	0x008e	; ????
     3f4:	8e 00       	.word	0x008e	; ????
     3f6:	8f 00       	.word	0x008f	; ????
     3f8:	90 00       	.word	0x0090	; ????
     3fa:	90 00       	.word	0x0090	; ????
     3fc:	91 00       	.word	0x0091	; ????
     3fe:	91 00       	.word	0x0091	; ????
     400:	92 00       	.word	0x0092	; ????
     402:	92 00       	.word	0x0092	; ????
     404:	93 00       	.word	0x0093	; ????
     406:	94 00       	.word	0x0094	; ????
     408:	94 00       	.word	0x0094	; ????
     40a:	95 00       	.word	0x0095	; ????
     40c:	95 00       	.word	0x0095	; ????
     40e:	96 00       	.word	0x0096	; ????
     410:	97 00       	.word	0x0097	; ????
     412:	97 00       	.word	0x0097	; ????
     414:	98 00       	.word	0x0098	; ????
     416:	98 00       	.word	0x0098	; ????
     418:	99 00       	.word	0x0099	; ????
     41a:	99 00       	.word	0x0099	; ????
     41c:	9a 00       	.word	0x009a	; ????
     41e:	9b 00       	.word	0x009b	; ????
     420:	9b 00       	.word	0x009b	; ????
     422:	9c 00       	.word	0x009c	; ????
     424:	9c 00       	.word	0x009c	; ????
     426:	9d 00       	.word	0x009d	; ????
     428:	9e 00       	.word	0x009e	; ????
     42a:	9e 00       	.word	0x009e	; ????
     42c:	9f 00       	.word	0x009f	; ????
     42e:	9f 00       	.word	0x009f	; ????
     430:	a0 00       	.word	0x00a0	; ????
     432:	a1 00       	.word	0x00a1	; ????
     434:	a1 00       	.word	0x00a1	; ????
     436:	a2 00       	.word	0x00a2	; ????
     438:	a2 00       	.word	0x00a2	; ????
     43a:	a3 00       	.word	0x00a3	; ????
     43c:	a4 00       	.word	0x00a4	; ????
     43e:	a4 00       	.word	0x00a4	; ????
     440:	a5 00       	.word	0x00a5	; ????
     442:	a5 00       	.word	0x00a5	; ????
     444:	a6 00       	.word	0x00a6	; ????
     446:	a7 00       	.word	0x00a7	; ????
     448:	a7 00       	.word	0x00a7	; ????
     44a:	a8 00       	.word	0x00a8	; ????
     44c:	a9 00       	.word	0x00a9	; ????
     44e:	a9 00       	.word	0x00a9	; ????
     450:	aa 00       	.word	0x00aa	; ????
     452:	aa 00       	.word	0x00aa	; ????
     454:	ab 00       	.word	0x00ab	; ????
     456:	ac 00       	.word	0x00ac	; ????
     458:	ac 00       	.word	0x00ac	; ????
     45a:	ad 00       	.word	0x00ad	; ????
     45c:	ae 00       	.word	0x00ae	; ????
     45e:	ae 00       	.word	0x00ae	; ????
     460:	af 00       	.word	0x00af	; ????

00000462 <_ZL7_pt2000>:
     462:	fb ff fb ff fb ff fb ff fb ff fb ff fb ff fb ff     ................
     472:	fb ff fc ff fc ff fc ff fc ff fc ff fc ff fc ff     ................
     482:	fc ff fc ff fd ff fd ff fd ff fd ff fd ff fd ff     ................
     492:	fd ff fd ff fe ff fe ff fe ff fe ff fe ff fe ff     ................
     4a2:	fe ff fe ff ff ff ff ff ff ff ff ff ff ff ff ff     ................
     4b2:	ff ff ff ff 00 00 00 00 00 00 00 00 00 00 00 00     ................
     4c2:	00 00 01 00 01 00 01 00 01 00 01 00 01 00 01 00     ................
     4d2:	02 00 02 00 02 00 02 00 02 00 02 00 02 00 03 00     ................
     4e2:	03 00 03 00 03 00 03 00 03 00 03 00 04 00 04 00     ................
     4f2:	04 00 04 00 04 00 04 00 05 00 05 00 05 00 05 00     ................
     502:	05 00 05 00 06 00 06 00 06 00 06 00 06 00 06 00     ................
     512:	07 00 07 00 07 00 07 00 07 00 07 00 08 00 08 00     ................
     522:	08 00 08 00 08 00 09 00 09 00 09 00 09 00 09 00     ................
     532:	09 00 0a 00 0a 00 0a 00 0a 00 0a 00 0b 00 0b 00     ................
     542:	0b 00 0b 00 0b 00 0c 00 0c 00 0c 00 0c 00 0c 00     ................
     552:	0d 00 0d 00 0d 00 0d 00 0d 00 0e 00 0e 00 0e 00     ................
     562:	0e 00 0e 00 0f 00 0f 00 0f 00 0f 00 0f 00 10 00     ................
     572:	10 00 10 00 10 00 11 00 11 00 11 00 11 00 11 00     ................
     582:	12 00 12 00 12 00 12 00 12 00 13 00 13 00 13 00     ................
     592:	13 00 14 00 14 00 14 00 14 00 15 00 15 00 15 00     ................
     5a2:	15 00 15 00 16 00 16 00 16 00 16 00 17 00 17 00     ................
     5b2:	17 00 17 00 18 00 18 00 18 00 18 00 19 00 19 00     ................
     5c2:	19 00 19 00 1a 00 1a 00 1a 00 1a 00 1b 00 1b 00     ................
     5d2:	1b 00 1b 00 1c 00 1c 00 1c 00 1c 00 1d 00 1d 00     ................
     5e2:	1d 00 1d 00 1e 00 1e 00 1e 00 1e 00 1f 00 1f 00     ................
     5f2:	1f 00 20 00 20 00 20 00 20 00 21 00 21 00 21 00     .. . . . .!.!.!.
     602:	21 00 22 00 22 00 22 00 23 00 23 00 23 00 23 00     !.".".".#.#.#.#.
     612:	24 00 24 00 24 00 24 00 25 00 25 00 25 00 26 00     $.$.$.$.%.%.%.&.
     622:	26 00 26 00 26 00 27 00 27 00 27 00 28 00 28 00     &.&.&.'.'.'.(.(.
     632:	28 00 29 00 29 00 29 00 29 00 2a 00 2a 00 2a 00     (.).).).).*.*.*.
     642:	2b 00 2b 00 2b 00 2b 00 2c 00 2c 00 2c 00 2d 00     +.+.+.+.,.,.,.-.
     652:	2d 00 2d 00 2e 00 2e 00 2e 00 2f 00 2f 00 2f 00     -.-......./././.
     662:	30 00 30 00 30 00 30 00 31 00 31 00 31 00 32 00     0.0.0.0.1.1.1.2.
     672:	32 00 32 00 33 00 33 00 33 00 34 00 34 00 34 00     2.2.3.3.3.4.4.4.
     682:	35 00 35 00 35 00 36 00 36 00 36 00 37 00 37 00     5.5.5.6.6.6.7.7.
     692:	37 00 38 00 38 00 38 00 39 00 39 00 39 00 3a 00     7.8.8.8.9.9.9.:.
     6a2:	3a 00 3a 00 3b 00 3b 00 3b 00 3c 00 3c 00 3c 00     :.:.;.;.;.<.<.<.
     6b2:	3d 00 3d 00 3d 00 3e 00 3e 00 3e 00 3f 00 3f 00     =.=.=.>.>.>.?.?.
     6c2:	40 00 40 00 40 00 41 00 41 00 41 00 42 00 42 00     @.@.@.A.A.A.B.B.
     6d2:	42 00 43 00 43 00 44 00 44 00 44 00 45 00 45 00     B.C.C.D.D.D.E.E.
     6e2:	45 00 46 00 46 00 46 00 47 00 47 00 48 00 48 00     E.F.F.F.G.G.H.H.
     6f2:	48 00 49 00 49 00 49 00 4a 00 4a 00 4b 00 4b 00     H.I.I.I.J.J.K.K.
     702:	4b 00 4c 00 4c 00 4c 00 4d 00 4d 00 4e 00 4e 00     K.L.L.L.M.M.N.N.
     712:	4e 00 4f 00 4f 00 50 00 50 00 50 00 51 00 51 00     N.O.O.P.P.P.Q.Q.
     722:	52 00 52 00 52 00 53 00 53 00 54 00 54 00 54 00     R.R.R.S.S.T.T.T.
     732:	55 00 55 00 56 00 56 00 56 00 57 00 57 00 58 00     U.U.V.V.V.W.W.X.
     742:	58 00 58 00 59 00 59 00 5a 00 5a 00 5a 00 5b 00     X.X.Y.Y.Z.Z.Z.[.
     752:	5b 00 5c 00 5c 00 5d 00 5d 00 5d 00 5e 00 5e 00     [.\.\.].].].^.^.
     762:	5f 00 5f 00 5f 00 60 00 60 00 61 00 61 00 62 00     _._._.`.`.a.a.b.
     772:	62 00 62 00 63 00 63 00 64 00 64 00 65 00 65 00     b.b.c.c.d.d.e.e.
     782:	65 00 66 00 66 00 67 00 67 00 68 00 68 00 69 00     e.f.f.g.g.h.h.i.
     792:	69 00 69 00 6a 00 6a 00 6b 00 6b 00 6c 00 6c 00     i.i.j.j.k.k.l.l.
     7a2:	6d 00 6d 00 6d 00 6e 00 6e 00 6f 00 6f 00 70 00     m.m.m.n.n.o.o.p.

000007b2 <__ctors_start>:
     7b2:	c5 0c       	add	r12, r5
     7b4:	9e 0e       	add	r9, r30

000007b6 <__ctors_end>:
     7b6:	cc 0c       	add	r12, r12

000007b8 <__dtors_end>:
     7b8:	11 24       	eor	r1, r1
     7ba:	1f be       	out	0x3f, r1	; 63
     7bc:	cf ef       	ldi	r28, 0xFF	; 255
     7be:	d1 e2       	ldi	r29, 0x21	; 33
     7c0:	de bf       	out	0x3e, r29	; 62
     7c2:	cd bf       	out	0x3d, r28	; 61
     7c4:	00 e0       	ldi	r16, 0x00	; 0
     7c6:	0c bf       	out	0x3c, r16	; 60

000007c8 <__do_clear_bss>:
     7c8:	25 e0       	ldi	r18, 0x05	; 5
     7ca:	a6 e0       	ldi	r26, 0x06	; 6
     7cc:	b2 e0       	ldi	r27, 0x02	; 2
     7ce:	01 c0       	rjmp	.+2      	; 0x7d2 <.do_clear_bss_start>

000007d0 <.do_clear_bss_loop>:
     7d0:	1d 92       	st	X+, r1

000007d2 <.do_clear_bss_start>:
     7d2:	af 32       	cpi	r26, 0x2F	; 47
     7d4:	b2 07       	cpc	r27, r18
     7d6:	e1 f7       	brne	.-8      	; 0x7d0 <.do_clear_bss_loop>

000007d8 <__do_copy_data>:
     7d8:	12 e0       	ldi	r17, 0x02	; 2
     7da:	a0 e0       	ldi	r26, 0x00	; 0
     7dc:	b2 e0       	ldi	r27, 0x02	; 2
     7de:	ec ee       	ldi	r30, 0xEC	; 236
     7e0:	ff e1       	ldi	r31, 0x1F	; 31
     7e2:	00 e0       	ldi	r16, 0x00	; 0
     7e4:	0b bf       	out	0x3b, r16	; 59
     7e6:	02 c0       	rjmp	.+4      	; 0x7ec <__do_copy_data+0x14>
     7e8:	07 90       	elpm	r0, Z+
     7ea:	0d 92       	st	X+, r0
     7ec:	a6 30       	cpi	r26, 0x06	; 6
     7ee:	b1 07       	cpc	r27, r17
     7f0:	d9 f7       	brne	.-10     	; 0x7e8 <__do_copy_data+0x10>

000007f2 <__do_global_ctors>:
     7f2:	13 e0       	ldi	r17, 0x03	; 3
     7f4:	cb ed       	ldi	r28, 0xDB	; 219
     7f6:	d3 e0       	ldi	r29, 0x03	; 3
     7f8:	00 e0       	ldi	r16, 0x00	; 0
     7fa:	06 c0       	rjmp	.+12     	; 0x808 <__do_global_ctors+0x16>
     7fc:	21 97       	sbiw	r28, 0x01	; 1
     7fe:	01 09       	sbc	r16, r1
     800:	80 2f       	mov	r24, r16
     802:	fe 01       	movw	r30, r28
     804:	0e 94 a1 0e 	call	0x1d42	; 0x1d42 <__tablejump2__>
     808:	c9 3d       	cpi	r28, 0xD9	; 217
     80a:	d1 07       	cpc	r29, r17
     80c:	80 e0       	ldi	r24, 0x00	; 0
     80e:	08 07       	cpc	r16, r24
     810:	a9 f7       	brne	.-22     	; 0x7fc <__do_global_ctors+0xa>
     812:	0e 94 21 0c 	call	0x1842	; 0x1842 <main>
     816:	0c 94 e5 0f 	jmp	0x1fca	; 0x1fca <__do_global_dtors>

0000081a <__bad_interrupt>:
     81a:	f2 cb       	rjmp	.-2076   	; 0x0 <__vectors>

0000081c <_ZN22AnalogDigitalConverterC1Ev>:
     81c:	ef 92       	push	r14
     81e:	ff 92       	push	r15
     820:	0f 93       	push	r16
     822:	1f 93       	push	r17
     824:	cf 93       	push	r28
     826:	df 93       	push	r29
     828:	8c 01       	movw	r16, r24
     82a:	ec 01       	movw	r28, r24
     82c:	7c 01       	movw	r14, r24
     82e:	80 e8       	ldi	r24, 0x80	; 128
     830:	e8 1a       	sub	r14, r24
     832:	8e ef       	ldi	r24, 0xFE	; 254
     834:	f8 0a       	sbc	r15, r24
     836:	ce 01       	movw	r24, r28
     838:	0e 94 e8 0d 	call	0x1bd0	; 0x1bd0 <_ZN10iirlowpassC1Ev>
     83c:	68 96       	adiw	r28, 0x18	; 24
     83e:	ce 15       	cp	r28, r14
     840:	df 05       	cpc	r29, r15
     842:	c9 f7       	brne	.-14     	; 0x836 <_ZN22AnalogDigitalConverterC1Ev+0x1a>
     844:	f8 01       	movw	r30, r16
     846:	e0 57       	subi	r30, 0x70	; 112
     848:	fe 4f       	sbci	r31, 0xFE	; 254
     84a:	81 e0       	ldi	r24, 0x01	; 1
     84c:	80 83       	st	Z, r24
     84e:	70 96       	adiw	r30, 0x10	; 16
     850:	80 83       	st	Z, r24
     852:	88 83       	st	Y, r24
     854:	3f 97       	sbiw	r30, 0x0f	; 15
     856:	80 83       	st	Z, r24
     858:	70 96       	adiw	r30, 0x10	; 16
     85a:	80 83       	st	Z, r24
     85c:	b0 97       	sbiw	r30, 0x20	; 32
     85e:	80 83       	st	Z, r24
     860:	71 96       	adiw	r30, 0x11	; 17
     862:	80 83       	st	Z, r24
     864:	70 96       	adiw	r30, 0x10	; 16
     866:	80 83       	st	Z, r24
     868:	b0 97       	sbiw	r30, 0x20	; 32
     86a:	80 83       	st	Z, r24
     86c:	71 96       	adiw	r30, 0x11	; 17
     86e:	80 83       	st	Z, r24
     870:	70 96       	adiw	r30, 0x10	; 16
     872:	80 83       	st	Z, r24
     874:	b0 97       	sbiw	r30, 0x20	; 32
     876:	80 83       	st	Z, r24
     878:	71 96       	adiw	r30, 0x11	; 17
     87a:	80 83       	st	Z, r24
     87c:	70 96       	adiw	r30, 0x10	; 16
     87e:	80 83       	st	Z, r24
     880:	b0 97       	sbiw	r30, 0x20	; 32
     882:	80 83       	st	Z, r24
     884:	71 96       	adiw	r30, 0x11	; 17
     886:	80 83       	st	Z, r24
     888:	70 96       	adiw	r30, 0x10	; 16
     88a:	80 83       	st	Z, r24
     88c:	b0 97       	sbiw	r30, 0x20	; 32
     88e:	80 83       	st	Z, r24
     890:	71 96       	adiw	r30, 0x11	; 17
     892:	80 83       	st	Z, r24
     894:	70 96       	adiw	r30, 0x10	; 16
     896:	80 83       	st	Z, r24
     898:	b0 97       	sbiw	r30, 0x20	; 32
     89a:	80 83       	st	Z, r24
     89c:	71 96       	adiw	r30, 0x11	; 17
     89e:	80 83       	st	Z, r24
     8a0:	70 96       	adiw	r30, 0x10	; 16
     8a2:	80 83       	st	Z, r24
     8a4:	b0 97       	sbiw	r30, 0x20	; 32
     8a6:	80 83       	st	Z, r24
     8a8:	71 96       	adiw	r30, 0x11	; 17
     8aa:	80 83       	st	Z, r24
     8ac:	70 96       	adiw	r30, 0x10	; 16
     8ae:	80 83       	st	Z, r24
     8b0:	b0 97       	sbiw	r30, 0x20	; 32
     8b2:	80 83       	st	Z, r24
     8b4:	71 96       	adiw	r30, 0x11	; 17
     8b6:	80 83       	st	Z, r24
     8b8:	70 96       	adiw	r30, 0x10	; 16
     8ba:	80 83       	st	Z, r24
     8bc:	b0 97       	sbiw	r30, 0x20	; 32
     8be:	80 83       	st	Z, r24
     8c0:	71 96       	adiw	r30, 0x11	; 17
     8c2:	80 83       	st	Z, r24
     8c4:	70 96       	adiw	r30, 0x10	; 16
     8c6:	80 83       	st	Z, r24
     8c8:	b0 97       	sbiw	r30, 0x20	; 32
     8ca:	80 83       	st	Z, r24
     8cc:	71 96       	adiw	r30, 0x11	; 17
     8ce:	80 83       	st	Z, r24
     8d0:	70 96       	adiw	r30, 0x10	; 16
     8d2:	80 83       	st	Z, r24
     8d4:	b0 97       	sbiw	r30, 0x20	; 32
     8d6:	80 83       	st	Z, r24
     8d8:	71 96       	adiw	r30, 0x11	; 17
     8da:	80 83       	st	Z, r24
     8dc:	70 96       	adiw	r30, 0x10	; 16
     8de:	80 83       	st	Z, r24
     8e0:	b0 97       	sbiw	r30, 0x20	; 32
     8e2:	80 83       	st	Z, r24
     8e4:	71 96       	adiw	r30, 0x11	; 17
     8e6:	80 83       	st	Z, r24
     8e8:	70 96       	adiw	r30, 0x10	; 16
     8ea:	80 83       	st	Z, r24
     8ec:	b0 97       	sbiw	r30, 0x20	; 32
     8ee:	80 83       	st	Z, r24
     8f0:	71 96       	adiw	r30, 0x11	; 17
     8f2:	80 83       	st	Z, r24
     8f4:	70 96       	adiw	r30, 0x10	; 16
     8f6:	80 83       	st	Z, r24
     8f8:	b0 97       	sbiw	r30, 0x20	; 32
     8fa:	80 83       	st	Z, r24
     8fc:	71 96       	adiw	r30, 0x11	; 17
     8fe:	80 83       	st	Z, r24
     900:	70 96       	adiw	r30, 0x10	; 16
     902:	80 83       	st	Z, r24
     904:	b0 97       	sbiw	r30, 0x20	; 32
     906:	80 83       	st	Z, r24
     908:	80 ec       	ldi	r24, 0xC0	; 192
     90a:	80 93 7c 00 	sts	0x007C, r24	; 0x80007c <__TEXT_REGION_LENGTH__+0x70007c>
     90e:	8d ea       	ldi	r24, 0xAD	; 173
     910:	80 93 7a 00 	sts	0x007A, r24	; 0x80007a <__TEXT_REGION_LENGTH__+0x70007a>
     914:	85 e0       	ldi	r24, 0x05	; 5
     916:	80 93 7b 00 	sts	0x007B, r24	; 0x80007b <__TEXT_REGION_LENGTH__+0x70007b>
     91a:	b1 96       	adiw	r30, 0x21	; 33
     91c:	10 82       	st	Z, r1
     91e:	89 e0       	ldi	r24, 0x09	; 9
     920:	80 93 81 00 	sts	0x0081, r24	; 0x800081 <__TEXT_REGION_LENGTH__+0x700081>
     924:	84 e0       	ldi	r24, 0x04	; 4
     926:	80 93 6f 00 	sts	0x006F, r24	; 0x80006f <__TEXT_REGION_LENGTH__+0x70006f>
     92a:	81 e3       	ldi	r24, 0x31	; 49
     92c:	93 e2       	ldi	r25, 0x23	; 35
     92e:	90 93 89 00 	sts	0x0089, r25	; 0x800089 <__TEXT_REGION_LENGTH__+0x700089>
     932:	80 93 88 00 	sts	0x0088, r24	; 0x800088 <__TEXT_REGION_LENGTH__+0x700088>
     936:	8f ef       	ldi	r24, 0xFF	; 255
     938:	80 93 7e 00 	sts	0x007E, r24	; 0x80007e <__TEXT_REGION_LENGTH__+0x70007e>
     93c:	80 93 7d 00 	sts	0x007D, r24	; 0x80007d <__TEXT_REGION_LENGTH__+0x70007d>
     940:	df 91       	pop	r29
     942:	cf 91       	pop	r28
     944:	1f 91       	pop	r17
     946:	0f 91       	pop	r16
     948:	ff 90       	pop	r15
     94a:	ef 90       	pop	r14
     94c:	08 95       	ret

0000094e <_ZNV22AnalogDigitalConverter6sampleEv>:
     94e:	cf 92       	push	r12
     950:	df 92       	push	r13
     952:	ef 92       	push	r14
     954:	ff 92       	push	r15
     956:	0f 93       	push	r16
     958:	1f 93       	push	r17
     95a:	cf 93       	push	r28
     95c:	df 93       	push	r29
     95e:	9c 01       	movw	r18, r24
     960:	ec 01       	movw	r28, r24
     962:	c0 55       	subi	r28, 0x50	; 80
     964:	de 4f       	sbci	r29, 0xFE	; 254
     966:	88 81       	ld	r24, Y
     968:	90 e0       	ldi	r25, 0x00	; 0
     96a:	80 31       	cpi	r24, 0x10	; 16
     96c:	91 05       	cpc	r25, r1
     96e:	c0 f1       	brcs	.+112    	; 0x9e0 <_ZNV22AnalogDigitalConverter6sampleEv+0x92>
     970:	00 e0       	ldi	r16, 0x00	; 0
     972:	10 e0       	ldi	r17, 0x00	; 0
     974:	88 81       	ld	r24, Y
     976:	f9 01       	movw	r30, r18
     978:	e8 0f       	add	r30, r24
     97a:	f1 1d       	adc	r31, r1
     97c:	e0 56       	subi	r30, 0x60	; 96
     97e:	fe 4f       	sbci	r31, 0xFE	; 254
     980:	80 81       	ld	r24, Z
     982:	88 23       	and	r24, r24
     984:	c1 f1       	breq	.+112    	; 0x9f6 <_ZNV22AnalogDigitalConverter6sampleEv+0xa8>
     986:	79 01       	movw	r14, r18
     988:	88 81       	ld	r24, Y
     98a:	f9 01       	movw	r30, r18
     98c:	e8 0f       	add	r30, r24
     98e:	f1 1d       	adc	r31, r1
     990:	e0 57       	subi	r30, 0x70	; 112
     992:	fe 4f       	sbci	r31, 0xFE	; 254
     994:	80 81       	ld	r24, Z
     996:	88 23       	and	r24, r24
     998:	09 f4       	brne	.+2      	; 0x99c <_ZNV22AnalogDigitalConverter6sampleEv+0x4e>
     99a:	bf c0       	rjmp	.+382    	; 0xb1a <_ZNV22AnalogDigitalConverter6sampleEv+0x1cc>
     99c:	88 81       	ld	r24, Y
     99e:	f9 01       	movw	r30, r18
     9a0:	e8 0f       	add	r30, r24
     9a2:	f1 1d       	adc	r31, r1
     9a4:	e0 58       	subi	r30, 0x80	; 128
     9a6:	fe 4f       	sbci	r31, 0xFE	; 254
     9a8:	80 81       	ld	r24, Z
     9aa:	88 23       	and	r24, r24
     9ac:	09 f4       	brne	.+2      	; 0x9b0 <_ZNV22AnalogDigitalConverter6sampleEv+0x62>
     9ae:	d3 c0       	rjmp	.+422    	; 0xb56 <_ZNV22AnalogDigitalConverter6sampleEv+0x208>
     9b0:	88 81       	ld	r24, Y
     9b2:	f7 01       	movw	r30, r14
     9b4:	e8 0f       	add	r30, r24
     9b6:	f1 1d       	adc	r31, r1
     9b8:	e0 58       	subi	r30, 0x80	; 128
     9ba:	fe 4f       	sbci	r31, 0xFE	; 254
     9bc:	80 81       	ld	r24, Z
     9be:	81 30       	cpi	r24, 0x01	; 1
     9c0:	09 f4       	brne	.+2      	; 0x9c4 <_ZNV22AnalogDigitalConverter6sampleEv+0x76>
     9c2:	00 c1       	rjmp	.+512    	; 0xbc4 <_ZNV22AnalogDigitalConverter6sampleEv+0x276>
     9c4:	88 81       	ld	r24, Y
     9c6:	8f 30       	cpi	r24, 0x0F	; 15
     9c8:	08 f4       	brcc	.+2      	; 0x9cc <_ZNV22AnalogDigitalConverter6sampleEv+0x7e>
     9ca:	6d c0       	rjmp	.+218    	; 0xaa6 <_ZNV22AnalogDigitalConverter6sampleEv+0x158>
     9cc:	18 82       	st	Y, r1
     9ce:	df 91       	pop	r29
     9d0:	cf 91       	pop	r28
     9d2:	1f 91       	pop	r17
     9d4:	0f 91       	pop	r16
     9d6:	ff 90       	pop	r15
     9d8:	ef 90       	pop	r14
     9da:	df 90       	pop	r13
     9dc:	cf 90       	pop	r12
     9de:	08 95       	ret
     9e0:	fc 01       	movw	r30, r24
     9e2:	00 91 78 00 	lds	r16, 0x0078	; 0x800078 <__TEXT_REGION_LENGTH__+0x700078>
     9e6:	10 91 79 00 	lds	r17, 0x0079	; 0x800079 <__TEXT_REGION_LENGTH__+0x700079>
     9ea:	88 27       	eor	r24, r24
     9ec:	ee 58       	subi	r30, 0x8E	; 142
     9ee:	ff 4f       	sbci	r31, 0xFF	; 255
     9f0:	8f 4f       	sbci	r24, 0xFF	; 255
     9f2:	0c 94 a1 0e 	jmp	0x1d42	; 0x1d42 <__tablejump2__>
     9f6:	88 81       	ld	r24, Y
     9f8:	f9 01       	movw	r30, r18
     9fa:	e8 0f       	add	r30, r24
     9fc:	f1 1d       	adc	r31, r1
     9fe:	e0 57       	subi	r30, 0x70	; 112
     a00:	fe 4f       	sbci	r31, 0xFE	; 254
     a02:	80 81       	ld	r24, Z
     a04:	88 23       	and	r24, r24
     a06:	09 f4       	brne	.+2      	; 0xa0a <_ZNV22AnalogDigitalConverter6sampleEv+0xbc>
     a08:	52 c0       	rjmp	.+164    	; 0xaae <_ZNV22AnalogDigitalConverter6sampleEv+0x160>
     a0a:	88 81       	ld	r24, Y
     a0c:	f9 01       	movw	r30, r18
     a0e:	e8 0f       	add	r30, r24
     a10:	f1 1d       	adc	r31, r1
     a12:	e0 58       	subi	r30, 0x80	; 128
     a14:	fe 4f       	sbci	r31, 0xFE	; 254
     a16:	80 81       	ld	r24, Z
     a18:	81 11       	cpse	r24, r1
     a1a:	1d c0       	rjmp	.+58     	; 0xa56 <_ZNV22AnalogDigitalConverter6sampleEv+0x108>
     a1c:	88 81       	ld	r24, Y
     a1e:	90 e0       	ldi	r25, 0x00	; 0
     a20:	00 39       	cpi	r16, 0x90	; 144
     a22:	41 e0       	ldi	r20, 0x01	; 1
     a24:	14 07       	cpc	r17, r20
     a26:	0c f4       	brge	.+2      	; 0xa2a <_ZNV22AnalogDigitalConverter6sampleEv+0xdc>
     a28:	c4 c0       	rjmp	.+392    	; 0xbb2 <_ZNV22AnalogDigitalConverter6sampleEv+0x264>
     a2a:	0f 33       	cpi	r16, 0x3F	; 63
     a2c:	43 e0       	ldi	r20, 0x03	; 3
     a2e:	14 07       	cpc	r17, r20
     a30:	0c f4       	brge	.+2      	; 0xa34 <_ZNV22AnalogDigitalConverter6sampleEv+0xe6>
     a32:	ef c0       	rjmp	.+478    	; 0xc12 <_ZNV22AnalogDigitalConverter6sampleEv+0x2c4>
     a34:	ee ea       	ldi	r30, 0xAE	; 174
     a36:	f1 e0       	ldi	r31, 0x01	; 1
     a38:	ee 0f       	add	r30, r30
     a3a:	ff 1f       	adc	r31, r31
     a3c:	ec 5f       	subi	r30, 0xFC	; 252
     a3e:	fe 4f       	sbci	r31, 0xFE	; 254
     a40:	45 91       	lpm	r20, Z+
     a42:	54 91       	lpm	r21, Z
     a44:	fc 01       	movw	r30, r24
     a46:	ee 0f       	add	r30, r30
     a48:	ff 1f       	adc	r31, r31
     a4a:	e2 0f       	add	r30, r18
     a4c:	f3 1f       	adc	r31, r19
     a4e:	ef 54       	subi	r30, 0x4F	; 79
     a50:	fe 4f       	sbci	r31, 0xFE	; 254
     a52:	51 83       	std	Z+1, r21	; 0x01
     a54:	40 83       	st	Z, r20
     a56:	88 81       	ld	r24, Y
     a58:	f9 01       	movw	r30, r18
     a5a:	e8 0f       	add	r30, r24
     a5c:	f1 1d       	adc	r31, r1
     a5e:	e0 58       	subi	r30, 0x80	; 128
     a60:	fe 4f       	sbci	r31, 0xFE	; 254
     a62:	80 81       	ld	r24, Z
     a64:	81 30       	cpi	r24, 0x01	; 1
     a66:	09 f0       	breq	.+2      	; 0xa6a <_ZNV22AnalogDigitalConverter6sampleEv+0x11c>
     a68:	ad cf       	rjmp	.-166    	; 0x9c4 <_ZNV22AnalogDigitalConverter6sampleEv+0x76>
     a6a:	88 81       	ld	r24, Y
     a6c:	90 e0       	ldi	r25, 0x00	; 0
     a6e:	08 35       	cpi	r16, 0x58	; 88
     a70:	42 e0       	ldi	r20, 0x02	; 2
     a72:	14 07       	cpc	r17, r20
     a74:	0c f4       	brge	.+2      	; 0xa78 <_ZNV22AnalogDigitalConverter6sampleEv+0x12a>
     a76:	a3 c0       	rjmp	.+326    	; 0xbbe <_ZNV22AnalogDigitalConverter6sampleEv+0x270>
     a78:	01 15       	cp	r16, r1
     a7a:	44 e0       	ldi	r20, 0x04	; 4
     a7c:	14 07       	cpc	r17, r20
     a7e:	0c f4       	brge	.+2      	; 0xa82 <_ZNV22AnalogDigitalConverter6sampleEv+0x134>
     a80:	cc c0       	rjmp	.+408    	; 0xc1a <_ZNV22AnalogDigitalConverter6sampleEv+0x2cc>
     a82:	e7 ea       	ldi	r30, 0xA7	; 167
     a84:	f1 e0       	ldi	r31, 0x01	; 1
     a86:	ee 0f       	add	r30, r30
     a88:	ff 1f       	adc	r31, r31
     a8a:	ee 59       	subi	r30, 0x9E	; 158
     a8c:	fb 4f       	sbci	r31, 0xFB	; 251
     a8e:	45 91       	lpm	r20, Z+
     a90:	54 91       	lpm	r21, Z
     a92:	88 0f       	add	r24, r24
     a94:	99 1f       	adc	r25, r25
     a96:	28 0f       	add	r18, r24
     a98:	39 1f       	adc	r19, r25
     a9a:	f9 01       	movw	r30, r18
     a9c:	ef 54       	subi	r30, 0x4F	; 79
     a9e:	fe 4f       	sbci	r31, 0xFE	; 254
     aa0:	51 83       	std	Z+1, r21	; 0x01
     aa2:	40 83       	st	Z, r20
     aa4:	8f cf       	rjmp	.-226    	; 0x9c4 <_ZNV22AnalogDigitalConverter6sampleEv+0x76>
     aa6:	88 81       	ld	r24, Y
     aa8:	8f 5f       	subi	r24, 0xFF	; 255
     aaa:	88 83       	st	Y, r24
     aac:	90 cf       	rjmp	.-224    	; 0x9ce <_ZNV22AnalogDigitalConverter6sampleEv+0x80>
     aae:	e8 81       	ld	r30, Y
     ab0:	f0 e0       	ldi	r31, 0x00	; 0
     ab2:	ee 0f       	add	r30, r30
     ab4:	ff 1f       	adc	r31, r31
     ab6:	2e 0f       	add	r18, r30
     ab8:	3f 1f       	adc	r19, r31
     aba:	f9 01       	movw	r30, r18
     abc:	ef 54       	subi	r30, 0x4F	; 79
     abe:	fe 4f       	sbci	r31, 0xFE	; 254
     ac0:	11 83       	std	Z+1, r17	; 0x01
     ac2:	00 83       	st	Z, r16
     ac4:	7f cf       	rjmp	.-258    	; 0x9c4 <_ZNV22AnalogDigitalConverter6sampleEv+0x76>
     ac6:	87 ec       	ldi	r24, 0xC7	; 199
     ac8:	80 93 7c 00 	sts	0x007C, r24	; 0x80007c <__TEXT_REGION_LENGTH__+0x70007c>
     acc:	53 cf       	rjmp	.-346    	; 0x974 <_ZNV22AnalogDigitalConverter6sampleEv+0x26>
     ace:	86 ec       	ldi	r24, 0xC6	; 198
     ad0:	80 93 7c 00 	sts	0x007C, r24	; 0x80007c <__TEXT_REGION_LENGTH__+0x70007c>
     ad4:	4f cf       	rjmp	.-354    	; 0x974 <_ZNV22AnalogDigitalConverter6sampleEv+0x26>
     ad6:	85 ec       	ldi	r24, 0xC5	; 197
     ad8:	80 93 7c 00 	sts	0x007C, r24	; 0x80007c <__TEXT_REGION_LENGTH__+0x70007c>
     adc:	4b cf       	rjmp	.-362    	; 0x974 <_ZNV22AnalogDigitalConverter6sampleEv+0x26>
     ade:	84 ec       	ldi	r24, 0xC4	; 196
     ae0:	80 93 7c 00 	sts	0x007C, r24	; 0x80007c <__TEXT_REGION_LENGTH__+0x70007c>
     ae4:	47 cf       	rjmp	.-370    	; 0x974 <_ZNV22AnalogDigitalConverter6sampleEv+0x26>
     ae6:	83 ec       	ldi	r24, 0xC3	; 195
     ae8:	80 93 7c 00 	sts	0x007C, r24	; 0x80007c <__TEXT_REGION_LENGTH__+0x70007c>
     aec:	43 cf       	rjmp	.-378    	; 0x974 <_ZNV22AnalogDigitalConverter6sampleEv+0x26>
     aee:	82 ec       	ldi	r24, 0xC2	; 194
     af0:	80 93 7c 00 	sts	0x007C, r24	; 0x80007c <__TEXT_REGION_LENGTH__+0x70007c>
     af4:	3f cf       	rjmp	.-386    	; 0x974 <_ZNV22AnalogDigitalConverter6sampleEv+0x26>
     af6:	81 ec       	ldi	r24, 0xC1	; 193
     af8:	80 93 7c 00 	sts	0x007C, r24	; 0x80007c <__TEXT_REGION_LENGTH__+0x70007c>
     afc:	3b cf       	rjmp	.-394    	; 0x974 <_ZNV22AnalogDigitalConverter6sampleEv+0x26>
     afe:	80 ec       	ldi	r24, 0xC0	; 192
     b00:	80 93 7c 00 	sts	0x007C, r24	; 0x80007c <__TEXT_REGION_LENGTH__+0x70007c>
     b04:	85 e0       	ldi	r24, 0x05	; 5
     b06:	80 93 7b 00 	sts	0x007B, r24	; 0x80007b <__TEXT_REGION_LENGTH__+0x70007b>
     b0a:	34 cf       	rjmp	.-408    	; 0x974 <_ZNV22AnalogDigitalConverter6sampleEv+0x26>
     b0c:	8d e0       	ldi	r24, 0x0D	; 13
     b0e:	80 93 7b 00 	sts	0x007B, r24	; 0x80007b <__TEXT_REGION_LENGTH__+0x70007b>
     b12:	80 ec       	ldi	r24, 0xC0	; 192
     b14:	80 93 7c 00 	sts	0x007C, r24	; 0x80007c <__TEXT_REGION_LENGTH__+0x70007c>
     b18:	2d cf       	rjmp	.-422    	; 0x974 <_ZNV22AnalogDigitalConverter6sampleEv+0x26>
     b1a:	c8 80       	ld	r12, Y
     b1c:	d1 2c       	mov	r13, r1
     b1e:	88 81       	ld	r24, Y
     b20:	90 e0       	ldi	r25, 0x00	; 0
     b22:	9c 01       	movw	r18, r24
     b24:	22 0f       	add	r18, r18
     b26:	33 1f       	adc	r19, r19
     b28:	82 0f       	add	r24, r18
     b2a:	93 1f       	adc	r25, r19
     b2c:	88 0f       	add	r24, r24
     b2e:	99 1f       	adc	r25, r25
     b30:	88 0f       	add	r24, r24
     b32:	99 1f       	adc	r25, r25
     b34:	88 0f       	add	r24, r24
     b36:	99 1f       	adc	r25, r25
     b38:	b8 01       	movw	r22, r16
     b3a:	8e 0d       	add	r24, r14
     b3c:	9f 1d       	adc	r25, r15
     b3e:	3b d7       	rcall	.+3702   	; 0x19b6 <_ZNV10iirlowpass6sampleEi>
     b40:	96 01       	movw	r18, r12
     b42:	22 0f       	add	r18, r18
     b44:	33 1f       	adc	r19, r19
     b46:	2e 0d       	add	r18, r14
     b48:	3f 1d       	adc	r19, r15
     b4a:	f9 01       	movw	r30, r18
     b4c:	ef 54       	subi	r30, 0x4F	; 79
     b4e:	fe 4f       	sbci	r31, 0xFE	; 254
     b50:	91 83       	std	Z+1, r25	; 0x01
     b52:	80 83       	st	Z, r24
     b54:	37 cf       	rjmp	.-402    	; 0x9c4 <_ZNV22AnalogDigitalConverter6sampleEv+0x76>
     b56:	c8 80       	ld	r12, Y
     b58:	d1 2c       	mov	r13, r1
     b5a:	88 81       	ld	r24, Y
     b5c:	90 e0       	ldi	r25, 0x00	; 0
     b5e:	9c 01       	movw	r18, r24
     b60:	22 0f       	add	r18, r18
     b62:	33 1f       	adc	r19, r19
     b64:	82 0f       	add	r24, r18
     b66:	93 1f       	adc	r25, r19
     b68:	88 0f       	add	r24, r24
     b6a:	99 1f       	adc	r25, r25
     b6c:	88 0f       	add	r24, r24
     b6e:	99 1f       	adc	r25, r25
     b70:	88 0f       	add	r24, r24
     b72:	99 1f       	adc	r25, r25
     b74:	b8 01       	movw	r22, r16
     b76:	8e 0d       	add	r24, r14
     b78:	9f 1d       	adc	r25, r15
     b7a:	1d d7       	rcall	.+3642   	; 0x19b6 <_ZNV10iirlowpass6sampleEi>
     b7c:	80 39       	cpi	r24, 0x90	; 144
     b7e:	21 e0       	ldi	r18, 0x01	; 1
     b80:	92 07       	cpc	r25, r18
     b82:	d4 f0       	brlt	.+52     	; 0xbb8 <_ZNV22AnalogDigitalConverter6sampleEv+0x26a>
     b84:	8f 33       	cpi	r24, 0x3F	; 63
     b86:	43 e0       	ldi	r20, 0x03	; 3
     b88:	94 07       	cpc	r25, r20
     b8a:	0c f4       	brge	.+2      	; 0xb8e <_ZNV22AnalogDigitalConverter6sampleEv+0x240>
     b8c:	4a c0       	rjmp	.+148    	; 0xc22 <_ZNV22AnalogDigitalConverter6sampleEv+0x2d4>
     b8e:	ee ea       	ldi	r30, 0xAE	; 174
     b90:	f1 e0       	ldi	r31, 0x01	; 1
     b92:	ee 0f       	add	r30, r30
     b94:	ff 1f       	adc	r31, r31
     b96:	ec 5f       	subi	r30, 0xFC	; 252
     b98:	fe 4f       	sbci	r31, 0xFE	; 254
     b9a:	85 91       	lpm	r24, Z+
     b9c:	94 91       	lpm	r25, Z
     b9e:	f6 01       	movw	r30, r12
     ba0:	ee 0f       	add	r30, r30
     ba2:	ff 1f       	adc	r31, r31
     ba4:	ee 0d       	add	r30, r14
     ba6:	ff 1d       	adc	r31, r15
     ba8:	ef 54       	subi	r30, 0x4F	; 79
     baa:	fe 4f       	sbci	r31, 0xFE	; 254
     bac:	91 83       	std	Z+1, r25	; 0x01
     bae:	80 83       	st	Z, r24
     bb0:	ff ce       	rjmp	.-514    	; 0x9b0 <_ZNV22AnalogDigitalConverter6sampleEv+0x62>
     bb2:	e0 e0       	ldi	r30, 0x00	; 0
     bb4:	f0 e0       	ldi	r31, 0x00	; 0
     bb6:	40 cf       	rjmp	.-384    	; 0xa38 <_ZNV22AnalogDigitalConverter6sampleEv+0xea>
     bb8:	e0 e0       	ldi	r30, 0x00	; 0
     bba:	f0 e0       	ldi	r31, 0x00	; 0
     bbc:	ea cf       	rjmp	.-44     	; 0xb92 <_ZNV22AnalogDigitalConverter6sampleEv+0x244>
     bbe:	e0 e0       	ldi	r30, 0x00	; 0
     bc0:	f0 e0       	ldi	r31, 0x00	; 0
     bc2:	61 cf       	rjmp	.-318    	; 0xa86 <_ZNV22AnalogDigitalConverter6sampleEv+0x138>
     bc4:	c8 80       	ld	r12, Y
     bc6:	d1 2c       	mov	r13, r1
     bc8:	88 81       	ld	r24, Y
     bca:	90 e0       	ldi	r25, 0x00	; 0
     bcc:	9c 01       	movw	r18, r24
     bce:	22 0f       	add	r18, r18
     bd0:	33 1f       	adc	r19, r19
     bd2:	82 0f       	add	r24, r18
     bd4:	93 1f       	adc	r25, r19
     bd6:	88 0f       	add	r24, r24
     bd8:	99 1f       	adc	r25, r25
     bda:	88 0f       	add	r24, r24
     bdc:	99 1f       	adc	r25, r25
     bde:	88 0f       	add	r24, r24
     be0:	99 1f       	adc	r25, r25
     be2:	b8 01       	movw	r22, r16
     be4:	8e 0d       	add	r24, r14
     be6:	9f 1d       	adc	r25, r15
     be8:	e6 d6       	rcall	.+3532   	; 0x19b6 <_ZNV10iirlowpass6sampleEi>
     bea:	88 35       	cpi	r24, 0x58	; 88
     bec:	22 e0       	ldi	r18, 0x02	; 2
     bee:	92 07       	cpc	r25, r18
     bf0:	6c f0       	brlt	.+26     	; 0xc0c <_ZNV22AnalogDigitalConverter6sampleEv+0x2be>
     bf2:	81 15       	cp	r24, r1
     bf4:	44 e0       	ldi	r20, 0x04	; 4
     bf6:	94 07       	cpc	r25, r20
     bf8:	c4 f0       	brlt	.+48     	; 0xc2a <_ZNV22AnalogDigitalConverter6sampleEv+0x2dc>
     bfa:	e7 ea       	ldi	r30, 0xA7	; 167
     bfc:	f1 e0       	ldi	r31, 0x01	; 1
     bfe:	ee 0f       	add	r30, r30
     c00:	ff 1f       	adc	r31, r31
     c02:	ee 59       	subi	r30, 0x9E	; 158
     c04:	fb 4f       	sbci	r31, 0xFB	; 251
     c06:	85 91       	lpm	r24, Z+
     c08:	94 91       	lpm	r25, Z
     c0a:	9a cf       	rjmp	.-204    	; 0xb40 <_ZNV22AnalogDigitalConverter6sampleEv+0x1f2>
     c0c:	e0 e0       	ldi	r30, 0x00	; 0
     c0e:	f0 e0       	ldi	r31, 0x00	; 0
     c10:	f6 cf       	rjmp	.-20     	; 0xbfe <_ZNV22AnalogDigitalConverter6sampleEv+0x2b0>
     c12:	f8 01       	movw	r30, r16
     c14:	e0 59       	subi	r30, 0x90	; 144
     c16:	f1 40       	sbci	r31, 0x01	; 1
     c18:	0f cf       	rjmp	.-482    	; 0xa38 <_ZNV22AnalogDigitalConverter6sampleEv+0xea>
     c1a:	f8 01       	movw	r30, r16
     c1c:	e8 55       	subi	r30, 0x58	; 88
     c1e:	f2 40       	sbci	r31, 0x02	; 2
     c20:	32 cf       	rjmp	.-412    	; 0xa86 <_ZNV22AnalogDigitalConverter6sampleEv+0x138>
     c22:	fc 01       	movw	r30, r24
     c24:	e0 59       	subi	r30, 0x90	; 144
     c26:	f1 40       	sbci	r31, 0x01	; 1
     c28:	b4 cf       	rjmp	.-152    	; 0xb92 <_ZNV22AnalogDigitalConverter6sampleEv+0x244>
     c2a:	fc 01       	movw	r30, r24
     c2c:	e8 55       	subi	r30, 0x58	; 88
     c2e:	f2 40       	sbci	r31, 0x02	; 2
     c30:	e6 cf       	rjmp	.-52     	; 0xbfe <_ZNV22AnalogDigitalConverter6sampleEv+0x2b0>

00000c32 <_ZNV22AnalogDigitalConverter9getoutputEh>:
     c32:	60 31       	cpi	r22, 0x10	; 16
     c34:	58 f4       	brcc	.+22     	; 0xc4c <_ZNV22AnalogDigitalConverter9getoutputEh+0x1a>
     c36:	70 e0       	ldi	r23, 0x00	; 0
     c38:	66 0f       	add	r22, r22
     c3a:	77 1f       	adc	r23, r23
     c3c:	fc 01       	movw	r30, r24
     c3e:	e6 0f       	add	r30, r22
     c40:	f7 1f       	adc	r31, r23
     c42:	ef 54       	subi	r30, 0x4F	; 79
     c44:	fe 4f       	sbci	r31, 0xFE	; 254
     c46:	80 81       	ld	r24, Z
     c48:	91 81       	ldd	r25, Z+1	; 0x01
     c4a:	08 95       	ret
     c4c:	8f ef       	ldi	r24, 0xFF	; 255
     c4e:	9f ef       	ldi	r25, 0xFF	; 255
     c50:	08 95       	ret

00000c52 <_ZNV22AnalogDigitalConverter9getconfigEh>:
     c52:	60 31       	cpi	r22, 0x10	; 16
     c54:	90 f4       	brcc	.+36     	; 0xc7a <_ZNV22AnalogDigitalConverter9getconfigEh+0x28>
     c56:	86 0f       	add	r24, r22
     c58:	91 1d       	adc	r25, r1
     c5a:	fc 01       	movw	r30, r24
     c5c:	e0 56       	subi	r30, 0x60	; 96
     c5e:	fe 4f       	sbci	r31, 0xFE	; 254
     c60:	20 81       	ld	r18, Z
     c62:	70 97       	sbiw	r30, 0x10	; 16
     c64:	30 81       	ld	r19, Z
     c66:	31 11       	cpse	r19, r1
     c68:	22 60       	ori	r18, 0x02	; 2
     c6a:	fc 01       	movw	r30, r24
     c6c:	e0 58       	subi	r30, 0x80	; 128
     c6e:	fe 4f       	sbci	r31, 0xFE	; 254
     c70:	80 81       	ld	r24, Z
     c72:	88 0f       	add	r24, r24
     c74:	88 0f       	add	r24, r24
     c76:	82 2b       	or	r24, r18
     c78:	08 95       	ret
     c7a:	80 e0       	ldi	r24, 0x00	; 0
     c7c:	08 95       	ret

00000c7e <_ZNV22AnalogDigitalConverter9setconfigEhh>:
     c7e:	60 31       	cpi	r22, 0x10	; 16
     c80:	20 f5       	brcc	.+72     	; 0xcca <_ZNV22AnalogDigitalConverter9setconfigEhh+0x4c>
     c82:	86 0f       	add	r24, r22
     c84:	91 1d       	adc	r25, r1
     c86:	fc 01       	movw	r30, r24
     c88:	e0 56       	subi	r30, 0x60	; 96
     c8a:	fe 4f       	sbci	r31, 0xFE	; 254
     c8c:	40 fd       	sbrc	r20, 0
     c8e:	14 c0       	rjmp	.+40     	; 0xcb8 <_ZNV22AnalogDigitalConverter9setconfigEhh+0x3a>
     c90:	10 82       	st	Z, r1
     c92:	41 ff       	sbrs	r20, 1
     c94:	15 c0       	rjmp	.+42     	; 0xcc0 <_ZNV22AnalogDigitalConverter9setconfigEhh+0x42>
     c96:	21 e0       	ldi	r18, 0x01	; 1
     c98:	fc 01       	movw	r30, r24
     c9a:	e0 57       	subi	r30, 0x70	; 112
     c9c:	fe 4f       	sbci	r31, 0xFE	; 254
     c9e:	20 83       	st	Z, r18
     ca0:	4c 70       	andi	r20, 0x0C	; 12
     ca2:	50 e0       	ldi	r21, 0x00	; 0
     ca4:	55 95       	asr	r21
     ca6:	47 95       	ror	r20
     ca8:	55 95       	asr	r21
     caa:	47 95       	ror	r20
     cac:	fc 01       	movw	r30, r24
     cae:	e0 58       	subi	r30, 0x80	; 128
     cb0:	fe 4f       	sbci	r31, 0xFE	; 254
     cb2:	40 83       	st	Z, r20
     cb4:	80 e0       	ldi	r24, 0x00	; 0
     cb6:	08 95       	ret
     cb8:	21 e0       	ldi	r18, 0x01	; 1
     cba:	20 83       	st	Z, r18
     cbc:	41 fd       	sbrc	r20, 1
     cbe:	eb cf       	rjmp	.-42     	; 0xc96 <_ZNV22AnalogDigitalConverter9setconfigEhh+0x18>
     cc0:	fc 01       	movw	r30, r24
     cc2:	e0 57       	subi	r30, 0x70	; 112
     cc4:	fe 4f       	sbci	r31, 0xFE	; 254
     cc6:	10 82       	st	Z, r1
     cc8:	eb cf       	rjmp	.-42     	; 0xca0 <_ZNV22AnalogDigitalConverter9setconfigEhh+0x22>
     cca:	81 e0       	ldi	r24, 0x01	; 1
     ccc:	08 95       	ret

00000cce <__vector_18>:
     cce:	1f 92       	push	r1
     cd0:	0f 92       	push	r0
     cd2:	0f b6       	in	r0, 0x3f	; 63
     cd4:	0f 92       	push	r0
     cd6:	11 24       	eor	r1, r1
     cd8:	00 00       	nop
     cda:	0f 90       	pop	r0
     cdc:	0f be       	out	0x3f, r0	; 63
     cde:	0f 90       	pop	r0
     ce0:	1f 90       	pop	r1
     ce2:	18 95       	reti

00000ce4 <_Z19cmdHandler_resetMCUv>:
     ce4:	98 e0       	ldi	r25, 0x08	; 8
     ce6:	88 e1       	ldi	r24, 0x18	; 24
     ce8:	0f b6       	in	r0, 0x3f	; 63
     cea:	f8 94       	cli
     cec:	a8 95       	wdr
     cee:	80 93 60 00 	sts	0x0060, r24	; 0x800060 <__TEXT_REGION_LENGTH__+0x700060>
     cf2:	0f be       	out	0x3f, r0	; 63
     cf4:	90 93 60 00 	sts	0x0060, r25	; 0x800060 <__TEXT_REGION_LENGTH__+0x700060>
     cf8:	08 95       	ret

00000cfa <_Z18cmdHandler_freeMemv>:
     cfa:	cf 93       	push	r28
     cfc:	df 93       	push	r29
     cfe:	00 d0       	rcall	.+0      	; 0xd00 <_Z18cmdHandler_freeMemv+0x6>
     d00:	00 d0       	rcall	.+0      	; 0xd02 <_Z18cmdHandler_freeMemv+0x8>
     d02:	cd b7       	in	r28, 0x3d	; 61
     d04:	de b7       	in	r29, 0x3e	; 62
     d06:	83 ef       	ldi	r24, 0xF3	; 243
     d08:	89 83       	std	Y+1, r24	; 0x01
     d0a:	26 d6       	rcall	.+3148   	; 0x1958 <_Z7freeRamv>
     d0c:	be 01       	movw	r22, r28
     d0e:	6e 5f       	subi	r22, 0xFE	; 254
     d10:	7f 4f       	sbci	r23, 0xFF	; 255
     d12:	a4 d1       	rcall	.+840    	; 0x105c <_Z10plotNumberiPh>
     d14:	82 e1       	ldi	r24, 0x12	; 18
     d16:	8e 83       	std	Y+6, r24	; 0x06
     d18:	66 e0       	ldi	r22, 0x06	; 6
     d1a:	ce 01       	movw	r24, r28
     d1c:	01 96       	adiw	r24, 0x01	; 1
     d1e:	e8 d7       	rcall	.+4048   	; 0x1cf0 <_Z11serial_out0Phh>
     d20:	26 96       	adiw	r28, 0x06	; 6
     d22:	0f b6       	in	r0, 0x3f	; 63
     d24:	f8 94       	cli
     d26:	de bf       	out	0x3e, r29	; 62
     d28:	0f be       	out	0x3f, r0	; 63
     d2a:	cd bf       	out	0x3d, r28	; 61
     d2c:	df 91       	pop	r29
     d2e:	cf 91       	pop	r28
     d30:	08 95       	ret

00000d32 <_Z23cmdHandler_get_value_ioh>:
     d32:	cf 93       	push	r28
     d34:	df 93       	push	r29
     d36:	00 d0       	rcall	.+0      	; 0xd38 <_Z23cmdHandler_get_value_ioh+0x6>
     d38:	1f 92       	push	r1
     d3a:	cd b7       	in	r28, 0x3d	; 61
     d3c:	de b7       	in	r29, 0x3e	; 62
     d3e:	88 32       	cpi	r24, 0x28	; 40
     d40:	b0 f4       	brcc	.+44     	; 0xd6e <_Z23cmdHandler_get_value_ioh+0x3c>
     d42:	93 e5       	ldi	r25, 0x53	; 83
     d44:	98 0f       	add	r25, r24
     d46:	99 83       	std	Y+1, r25	; 0x01
     d48:	e8 2f       	mov	r30, r24
     d4a:	f0 e0       	ldi	r31, 0x00	; 0
     d4c:	ee 0f       	add	r30, r30
     d4e:	ff 1f       	adc	r31, r31
     d50:	ea 5f       	subi	r30, 0xFA	; 250
     d52:	fd 4f       	sbci	r31, 0xFD	; 253
     d54:	80 81       	ld	r24, Z
     d56:	91 81       	ldd	r25, Z+1	; 0x01
     d58:	04 d2       	rcall	.+1032   	; 0x1162 <_ZNV6io_pin3getEv>
     d5a:	be 01       	movw	r22, r28
     d5c:	6e 5f       	subi	r22, 0xFE	; 254
     d5e:	7f 4f       	sbci	r23, 0xFF	; 255
     d60:	75 d1       	rcall	.+746    	; 0x104c <_Z10plotNumberhPh>
     d62:	82 e1       	ldi	r24, 0x12	; 18
     d64:	8c 83       	std	Y+4, r24	; 0x04
     d66:	64 e0       	ldi	r22, 0x04	; 4
     d68:	ce 01       	movw	r24, r28
     d6a:	01 96       	adiw	r24, 0x01	; 1
     d6c:	c1 d7       	rcall	.+3970   	; 0x1cf0 <_Z11serial_out0Phh>
     d6e:	0f 90       	pop	r0
     d70:	0f 90       	pop	r0
     d72:	0f 90       	pop	r0
     d74:	0f 90       	pop	r0
     d76:	df 91       	pop	r29
     d78:	cf 91       	pop	r28
     d7a:	08 95       	ret

00000d7c <_Z24cmdHandler_get_value_adch>:
     d7c:	cf 93       	push	r28
     d7e:	df 93       	push	r29
     d80:	00 d0       	rcall	.+0      	; 0xd82 <_Z24cmdHandler_get_value_adch+0x6>
     d82:	00 d0       	rcall	.+0      	; 0xd84 <_Z24cmdHandler_get_value_adch+0x8>
     d84:	cd b7       	in	r28, 0x3d	; 61
     d86:	de b7       	in	r29, 0x3e	; 62
     d88:	80 31       	cpi	r24, 0x10	; 16
     d8a:	88 f4       	brcc	.+34     	; 0xdae <_Z24cmdHandler_get_value_adch+0x32>
     d8c:	68 2f       	mov	r22, r24
     d8e:	83 e1       	ldi	r24, 0x13	; 19
     d90:	86 0f       	add	r24, r22
     d92:	89 83       	std	Y+1, r24	; 0x01
     d94:	88 e5       	ldi	r24, 0x58	; 88
     d96:	92 e0       	ldi	r25, 0x02	; 2
     d98:	4c df       	rcall	.-360    	; 0xc32 <_ZNV22AnalogDigitalConverter9getoutputEh>
     d9a:	be 01       	movw	r22, r28
     d9c:	6e 5f       	subi	r22, 0xFE	; 254
     d9e:	7f 4f       	sbci	r23, 0xFF	; 255
     da0:	5d d1       	rcall	.+698    	; 0x105c <_Z10plotNumberiPh>
     da2:	82 e1       	ldi	r24, 0x12	; 18
     da4:	8e 83       	std	Y+6, r24	; 0x06
     da6:	66 e0       	ldi	r22, 0x06	; 6
     da8:	ce 01       	movw	r24, r28
     daa:	01 96       	adiw	r24, 0x01	; 1
     dac:	a1 d7       	rcall	.+3906   	; 0x1cf0 <_Z11serial_out0Phh>
     dae:	26 96       	adiw	r28, 0x06	; 6
     db0:	0f b6       	in	r0, 0x3f	; 63
     db2:	f8 94       	cli
     db4:	de bf       	out	0x3e, r29	; 62
     db6:	0f be       	out	0x3f, r0	; 63
     db8:	cd bf       	out	0x3d, r28	; 61
     dba:	df 91       	pop	r29
     dbc:	cf 91       	pop	r28
     dbe:	08 95       	ret

00000dc0 <_Z24cmdHandler_get_config_ioh>:
     dc0:	cf 93       	push	r28
     dc2:	df 93       	push	r29
     dc4:	00 d0       	rcall	.+0      	; 0xdc6 <_Z24cmdHandler_get_config_ioh+0x6>
     dc6:	1f 92       	push	r1
     dc8:	cd b7       	in	r28, 0x3d	; 61
     dca:	de b7       	in	r29, 0x3e	; 62
     dcc:	88 32       	cpi	r24, 0x28	; 40
     dce:	b0 f4       	brcc	.+44     	; 0xdfc <_Z24cmdHandler_get_config_ioh+0x3c>
     dd0:	93 ea       	ldi	r25, 0xA3	; 163
     dd2:	98 0f       	add	r25, r24
     dd4:	99 83       	std	Y+1, r25	; 0x01
     dd6:	e8 2f       	mov	r30, r24
     dd8:	f0 e0       	ldi	r31, 0x00	; 0
     dda:	ee 0f       	add	r30, r30
     ddc:	ff 1f       	adc	r31, r31
     dde:	ea 5f       	subi	r30, 0xFA	; 250
     de0:	fd 4f       	sbci	r31, 0xFD	; 253
     de2:	80 81       	ld	r24, Z
     de4:	91 81       	ldd	r25, Z+1	; 0x01
     de6:	88 d2       	rcall	.+1296   	; 0x12f8 <_ZNV6io_pin9getconfigEv>
     de8:	be 01       	movw	r22, r28
     dea:	6e 5f       	subi	r22, 0xFE	; 254
     dec:	7f 4f       	sbci	r23, 0xFF	; 255
     dee:	2e d1       	rcall	.+604    	; 0x104c <_Z10plotNumberhPh>
     df0:	82 e1       	ldi	r24, 0x12	; 18
     df2:	8c 83       	std	Y+4, r24	; 0x04
     df4:	64 e0       	ldi	r22, 0x04	; 4
     df6:	ce 01       	movw	r24, r28
     df8:	01 96       	adiw	r24, 0x01	; 1
     dfa:	7a d7       	rcall	.+3828   	; 0x1cf0 <_Z11serial_out0Phh>
     dfc:	0f 90       	pop	r0
     dfe:	0f 90       	pop	r0
     e00:	0f 90       	pop	r0
     e02:	0f 90       	pop	r0
     e04:	df 91       	pop	r29
     e06:	cf 91       	pop	r28
     e08:	08 95       	ret

00000e0a <_Z25cmdHandler_get_config_adch>:
     e0a:	cf 93       	push	r28
     e0c:	df 93       	push	r29
     e0e:	00 d0       	rcall	.+0      	; 0xe10 <_Z25cmdHandler_get_config_adch+0x6>
     e10:	1f 92       	push	r1
     e12:	cd b7       	in	r28, 0x3d	; 61
     e14:	de b7       	in	r29, 0x3e	; 62
     e16:	80 31       	cpi	r24, 0x10	; 16
     e18:	88 f4       	brcc	.+34     	; 0xe3c <_Z25cmdHandler_get_config_adch+0x32>
     e1a:	68 2f       	mov	r22, r24
     e1c:	83 e3       	ldi	r24, 0x33	; 51
     e1e:	86 0f       	add	r24, r22
     e20:	89 83       	std	Y+1, r24	; 0x01
     e22:	88 e5       	ldi	r24, 0x58	; 88
     e24:	92 e0       	ldi	r25, 0x02	; 2
     e26:	15 df       	rcall	.-470    	; 0xc52 <_ZNV22AnalogDigitalConverter9getconfigEh>
     e28:	be 01       	movw	r22, r28
     e2a:	6e 5f       	subi	r22, 0xFE	; 254
     e2c:	7f 4f       	sbci	r23, 0xFF	; 255
     e2e:	0e d1       	rcall	.+540    	; 0x104c <_Z10plotNumberhPh>
     e30:	82 e1       	ldi	r24, 0x12	; 18
     e32:	8c 83       	std	Y+4, r24	; 0x04
     e34:	64 e0       	ldi	r22, 0x04	; 4
     e36:	ce 01       	movw	r24, r28
     e38:	01 96       	adiw	r24, 0x01	; 1
     e3a:	5a d7       	rcall	.+3764   	; 0x1cf0 <_Z11serial_out0Phh>
     e3c:	0f 90       	pop	r0
     e3e:	0f 90       	pop	r0
     e40:	0f 90       	pop	r0
     e42:	0f 90       	pop	r0
     e44:	df 91       	pop	r29
     e46:	cf 91       	pop	r28
     e48:	08 95       	ret

00000e4a <_Z23cmdHandler_set_value_iohh>:
     e4a:	ef 92       	push	r14
     e4c:	ff 92       	push	r15
     e4e:	1f 93       	push	r17
     e50:	cf 93       	push	r28
     e52:	df 93       	push	r29
     e54:	00 d0       	rcall	.+0      	; 0xe56 <_Z23cmdHandler_set_value_iohh+0xc>
     e56:	1f 92       	push	r1
     e58:	cd b7       	in	r28, 0x3d	; 61
     e5a:	de b7       	in	r29, 0x3e	; 62
     e5c:	88 32       	cpi	r24, 0x28	; 40
     e5e:	f8 f4       	brcc	.+62     	; 0xe9e <_Z23cmdHandler_set_value_iohh+0x54>
     e60:	18 2f       	mov	r17, r24
     e62:	e8 2e       	mov	r14, r24
     e64:	f1 2c       	mov	r15, r1
     e66:	c7 01       	movw	r24, r14
     e68:	88 0f       	add	r24, r24
     e6a:	99 1f       	adc	r25, r25
     e6c:	9c 01       	movw	r18, r24
     e6e:	2a 5f       	subi	r18, 0xFA	; 250
     e70:	3d 4f       	sbci	r19, 0xFD	; 253
     e72:	79 01       	movw	r14, r18
     e74:	f9 01       	movw	r30, r18
     e76:	80 81       	ld	r24, Z
     e78:	91 81       	ldd	r25, Z+1	; 0x01
     e7a:	a9 d1       	rcall	.+850    	; 0x11ce <_ZNV6io_pin3setEh>
     e7c:	83 e5       	ldi	r24, 0x53	; 83
     e7e:	81 0f       	add	r24, r17
     e80:	89 83       	std	Y+1, r24	; 0x01
     e82:	f7 01       	movw	r30, r14
     e84:	80 81       	ld	r24, Z
     e86:	91 81       	ldd	r25, Z+1	; 0x01
     e88:	6c d1       	rcall	.+728    	; 0x1162 <_ZNV6io_pin3getEv>
     e8a:	be 01       	movw	r22, r28
     e8c:	6e 5f       	subi	r22, 0xFE	; 254
     e8e:	7f 4f       	sbci	r23, 0xFF	; 255
     e90:	dd d0       	rcall	.+442    	; 0x104c <_Z10plotNumberhPh>
     e92:	82 e1       	ldi	r24, 0x12	; 18
     e94:	8c 83       	std	Y+4, r24	; 0x04
     e96:	64 e0       	ldi	r22, 0x04	; 4
     e98:	ce 01       	movw	r24, r28
     e9a:	01 96       	adiw	r24, 0x01	; 1
     e9c:	29 d7       	rcall	.+3666   	; 0x1cf0 <_Z11serial_out0Phh>
     e9e:	0f 90       	pop	r0
     ea0:	0f 90       	pop	r0
     ea2:	0f 90       	pop	r0
     ea4:	0f 90       	pop	r0
     ea6:	df 91       	pop	r29
     ea8:	cf 91       	pop	r28
     eaa:	1f 91       	pop	r17
     eac:	ff 90       	pop	r15
     eae:	ef 90       	pop	r14
     eb0:	08 95       	ret

00000eb2 <_Z24cmdHandler_set_config_iohh>:
     eb2:	ef 92       	push	r14
     eb4:	ff 92       	push	r15
     eb6:	1f 93       	push	r17
     eb8:	cf 93       	push	r28
     eba:	df 93       	push	r29
     ebc:	00 d0       	rcall	.+0      	; 0xebe <_Z24cmdHandler_set_config_iohh+0xc>
     ebe:	1f 92       	push	r1
     ec0:	cd b7       	in	r28, 0x3d	; 61
     ec2:	de b7       	in	r29, 0x3e	; 62
     ec4:	88 32       	cpi	r24, 0x28	; 40
     ec6:	f8 f4       	brcc	.+62     	; 0xf06 <_Z24cmdHandler_set_config_iohh+0x54>
     ec8:	18 2f       	mov	r17, r24
     eca:	e8 2e       	mov	r14, r24
     ecc:	f1 2c       	mov	r15, r1
     ece:	c7 01       	movw	r24, r14
     ed0:	88 0f       	add	r24, r24
     ed2:	99 1f       	adc	r25, r25
     ed4:	9c 01       	movw	r18, r24
     ed6:	2a 5f       	subi	r18, 0xFA	; 250
     ed8:	3d 4f       	sbci	r19, 0xFD	; 253
     eda:	79 01       	movw	r14, r18
     edc:	f9 01       	movw	r30, r18
     ede:	80 81       	ld	r24, Z
     ee0:	91 81       	ldd	r25, Z+1	; 0x01
     ee2:	a8 d1       	rcall	.+848    	; 0x1234 <_ZNV6io_pin9setconfigEh>
     ee4:	83 ea       	ldi	r24, 0xA3	; 163
     ee6:	81 0f       	add	r24, r17
     ee8:	89 83       	std	Y+1, r24	; 0x01
     eea:	f7 01       	movw	r30, r14
     eec:	80 81       	ld	r24, Z
     eee:	91 81       	ldd	r25, Z+1	; 0x01
     ef0:	03 d2       	rcall	.+1030   	; 0x12f8 <_ZNV6io_pin9getconfigEv>
     ef2:	be 01       	movw	r22, r28
     ef4:	6e 5f       	subi	r22, 0xFE	; 254
     ef6:	7f 4f       	sbci	r23, 0xFF	; 255
     ef8:	a9 d0       	rcall	.+338    	; 0x104c <_Z10plotNumberhPh>
     efa:	82 e1       	ldi	r24, 0x12	; 18
     efc:	8c 83       	std	Y+4, r24	; 0x04
     efe:	64 e0       	ldi	r22, 0x04	; 4
     f00:	ce 01       	movw	r24, r28
     f02:	01 96       	adiw	r24, 0x01	; 1
     f04:	f5 d6       	rcall	.+3562   	; 0x1cf0 <_Z11serial_out0Phh>
     f06:	0f 90       	pop	r0
     f08:	0f 90       	pop	r0
     f0a:	0f 90       	pop	r0
     f0c:	0f 90       	pop	r0
     f0e:	df 91       	pop	r29
     f10:	cf 91       	pop	r28
     f12:	1f 91       	pop	r17
     f14:	ff 90       	pop	r15
     f16:	ef 90       	pop	r14
     f18:	08 95       	ret

00000f1a <_Z25cmdHandler_set_config_adchh>:
     f1a:	1f 93       	push	r17
     f1c:	cf 93       	push	r28
     f1e:	df 93       	push	r29
     f20:	00 d0       	rcall	.+0      	; 0xf22 <_Z25cmdHandler_set_config_adchh+0x8>
     f22:	1f 92       	push	r1
     f24:	cd b7       	in	r28, 0x3d	; 61
     f26:	de b7       	in	r29, 0x3e	; 62
     f28:	80 31       	cpi	r24, 0x10	; 16
     f2a:	b8 f4       	brcc	.+46     	; 0xf5a <_Z25cmdHandler_set_config_adchh+0x40>
     f2c:	46 2f       	mov	r20, r22
     f2e:	18 2f       	mov	r17, r24
     f30:	68 2f       	mov	r22, r24
     f32:	88 e5       	ldi	r24, 0x58	; 88
     f34:	92 e0       	ldi	r25, 0x02	; 2
     f36:	a3 de       	rcall	.-698    	; 0xc7e <_ZNV22AnalogDigitalConverter9setconfigEhh>
     f38:	83 e3       	ldi	r24, 0x33	; 51
     f3a:	81 0f       	add	r24, r17
     f3c:	89 83       	std	Y+1, r24	; 0x01
     f3e:	61 2f       	mov	r22, r17
     f40:	88 e5       	ldi	r24, 0x58	; 88
     f42:	92 e0       	ldi	r25, 0x02	; 2
     f44:	86 de       	rcall	.-756    	; 0xc52 <_ZNV22AnalogDigitalConverter9getconfigEh>
     f46:	be 01       	movw	r22, r28
     f48:	6e 5f       	subi	r22, 0xFE	; 254
     f4a:	7f 4f       	sbci	r23, 0xFF	; 255
     f4c:	7f d0       	rcall	.+254    	; 0x104c <_Z10plotNumberhPh>
     f4e:	82 e1       	ldi	r24, 0x12	; 18
     f50:	8c 83       	std	Y+4, r24	; 0x04
     f52:	64 e0       	ldi	r22, 0x04	; 4
     f54:	ce 01       	movw	r24, r28
     f56:	01 96       	adiw	r24, 0x01	; 1
     f58:	cb d6       	rcall	.+3478   	; 0x1cf0 <_Z11serial_out0Phh>
     f5a:	0f 90       	pop	r0
     f5c:	0f 90       	pop	r0
     f5e:	0f 90       	pop	r0
     f60:	0f 90       	pop	r0
     f62:	df 91       	pop	r29
     f64:	cf 91       	pop	r28
     f66:	1f 91       	pop	r17
     f68:	08 95       	ret

00000f6a <_ZN9cmdParserC1Ev>:
     f6a:	fc 01       	movw	r30, r24
     f6c:	10 82       	st	Z, r1
     f6e:	11 82       	std	Z+1, r1	; 0x01
     f70:	08 95       	ret

00000f72 <_ZNV9cmdParser11checkparserEv>:
     f72:	cf 93       	push	r28
     f74:	df 93       	push	r29
     f76:	fc 01       	movw	r30, r24
     f78:	21 81       	ldd	r18, Z+1	; 0x01
     f7a:	21 11       	cpse	r18, r1
     f7c:	03 c0       	rjmp	.+6      	; 0xf84 <_ZNV9cmdParser11checkparserEv+0x12>
     f7e:	df 91       	pop	r29
     f80:	cf 91       	pop	r28
     f82:	08 95       	ret
     f84:	ec 01       	movw	r28, r24
     f86:	e0 81       	ld	r30, Z
     f88:	f0 e0       	ldi	r31, 0x00	; 0
     f8a:	e5 5d       	subi	r30, 0xD5	; 213
     f8c:	fb 4f       	sbci	r31, 0xFB	; 251
     f8e:	80 81       	ld	r24, Z
     f90:	98 81       	ld	r25, Y
     f92:	9f 5f       	subi	r25, 0xFF	; 255
     f94:	98 83       	st	Y, r25
     f96:	83 31       	cpi	r24, 0x13	; 19
     f98:	38 f1       	brcs	.+78     	; 0xfe8 <_ZNV9cmdParser11checkparserEv+0x76>
     f9a:	e8 81       	ld	r30, Y
     f9c:	f0 e0       	ldi	r31, 0x00	; 0
     f9e:	e5 5d       	subi	r30, 0xD5	; 213
     fa0:	fb 4f       	sbci	r31, 0xFB	; 251
     fa2:	60 81       	ld	r22, Z
     fa4:	62 31       	cpi	r22, 0x12	; 18
     fa6:	b1 f0       	breq	.+44     	; 0xfd4 <_ZNV9cmdParser11checkparserEv+0x62>
     fa8:	e8 81       	ld	r30, Y
     faa:	ef 5f       	subi	r30, 0xFF	; 255
     fac:	e8 83       	st	Y, r30
     fae:	f0 e0       	ldi	r31, 0x00	; 0
     fb0:	e5 5d       	subi	r30, 0xD5	; 213
     fb2:	fb 4f       	sbci	r31, 0xFB	; 251
     fb4:	90 81       	ld	r25, Z
     fb6:	92 31       	cpi	r25, 0x12	; 18
     fb8:	71 f0       	breq	.+28     	; 0xfd6 <_ZNV9cmdParser11checkparserEv+0x64>
     fba:	f0 e1       	ldi	r31, 0x10	; 16
     fbc:	9f 9f       	mul	r25, r31
     fbe:	60 0d       	add	r22, r0
     fc0:	11 24       	eor	r1, r1
     fc2:	e8 81       	ld	r30, Y
     fc4:	ef 5f       	subi	r30, 0xFF	; 255
     fc6:	e8 83       	st	Y, r30
     fc8:	f0 e0       	ldi	r31, 0x00	; 0
     fca:	e5 5d       	subi	r30, 0xD5	; 213
     fcc:	fb 4f       	sbci	r31, 0xFB	; 251
     fce:	90 81       	ld	r25, Z
     fd0:	92 31       	cpi	r25, 0x12	; 18
     fd2:	09 f0       	breq	.+2      	; 0xfd6 <_ZNV9cmdParser11checkparserEv+0x64>
     fd4:	60 e0       	ldi	r22, 0x00	; 0
     fd6:	98 81       	ld	r25, Y
     fd8:	9f 5f       	subi	r25, 0xFF	; 255
     fda:	98 83       	st	Y, r25
     fdc:	83 35       	cpi	r24, 0x53	; 83
     fde:	50 f4       	brcc	.+20     	; 0xff4 <_ZNV9cmdParser11checkparserEv+0x82>
     fe0:	83 33       	cpi	r24, 0x33	; 51
     fe2:	c8 f4       	brcc	.+50     	; 0x1016 <_ZNV9cmdParser11checkparserEv+0xa4>
     fe4:	83 32       	cpi	r24, 0x23	; 35
     fe6:	10 f5       	brcc	.+68     	; 0x102c <_ZNV9cmdParser11checkparserEv+0xba>
     fe8:	89 81       	ldd	r24, Y+1	; 0x01
     fea:	81 50       	subi	r24, 0x01	; 1
     fec:	89 83       	std	Y+1, r24	; 0x01
     fee:	df 91       	pop	r29
     ff0:	cf 91       	pop	r28
     ff2:	08 95       	ret
     ff4:	83 3a       	cpi	r24, 0xA3	; 163
     ff6:	28 f4       	brcc	.+10     	; 0x1002 <_ZNV9cmdParser11checkparserEv+0x90>
     ff8:	8b 37       	cpi	r24, 0x7B	; 123
     ffa:	90 f4       	brcc	.+36     	; 0x1020 <_ZNV9cmdParser11checkparserEv+0xae>
     ffc:	83 55       	subi	r24, 0x53	; 83
     ffe:	25 df       	rcall	.-438    	; 0xe4a <_Z23cmdHandler_set_value_iohh>
    1000:	f3 cf       	rjmp	.-26     	; 0xfe8 <_ZNV9cmdParser11checkparserEv+0x76>
    1002:	8b 3c       	cpi	r24, 0xCB	; 203
    1004:	b0 f0       	brcs	.+44     	; 0x1032 <_ZNV9cmdParser11checkparserEv+0xc0>
    1006:	83 3f       	cpi	r24, 0xF3	; 243
    1008:	b8 f0       	brcs	.+46     	; 0x1038 <_ZNV9cmdParser11checkparserEv+0xc6>
    100a:	83 3f       	cpi	r24, 0xF3	; 243
    100c:	c1 f0       	breq	.+48     	; 0x103e <_ZNV9cmdParser11checkparserEv+0xcc>
    100e:	87 3f       	cpi	r24, 0xF7	; 247
    1010:	59 f7       	brne	.-42     	; 0xfe8 <_ZNV9cmdParser11checkparserEv+0x76>
    1012:	68 de       	rcall	.-816    	; 0xce4 <_Z19cmdHandler_resetMCUv>
    1014:	e9 cf       	rjmp	.-46     	; 0xfe8 <_ZNV9cmdParser11checkparserEv+0x76>
    1016:	83 34       	cpi	r24, 0x43	; 67
    1018:	30 f4       	brcc	.+12     	; 0x1026 <_ZNV9cmdParser11checkparserEv+0xb4>
    101a:	83 53       	subi	r24, 0x33	; 51
    101c:	7e df       	rcall	.-260    	; 0xf1a <_Z25cmdHandler_set_config_adchh>
    101e:	e4 cf       	rjmp	.-56     	; 0xfe8 <_ZNV9cmdParser11checkparserEv+0x76>
    1020:	8b 57       	subi	r24, 0x7B	; 123
    1022:	87 de       	rcall	.-754    	; 0xd32 <_Z23cmdHandler_get_value_ioh>
    1024:	e1 cf       	rjmp	.-62     	; 0xfe8 <_ZNV9cmdParser11checkparserEv+0x76>
    1026:	83 54       	subi	r24, 0x43	; 67
    1028:	f0 de       	rcall	.-544    	; 0xe0a <_Z25cmdHandler_get_config_adch>
    102a:	de cf       	rjmp	.-68     	; 0xfe8 <_ZNV9cmdParser11checkparserEv+0x76>
    102c:	83 52       	subi	r24, 0x23	; 35
    102e:	a6 de       	rcall	.-692    	; 0xd7c <_Z24cmdHandler_get_value_adch>
    1030:	db cf       	rjmp	.-74     	; 0xfe8 <_ZNV9cmdParser11checkparserEv+0x76>
    1032:	83 5a       	subi	r24, 0xA3	; 163
    1034:	3e df       	rcall	.-388    	; 0xeb2 <_Z24cmdHandler_set_config_iohh>
    1036:	d8 cf       	rjmp	.-80     	; 0xfe8 <_ZNV9cmdParser11checkparserEv+0x76>
    1038:	8b 5c       	subi	r24, 0xCB	; 203
    103a:	c2 de       	rcall	.-636    	; 0xdc0 <_Z24cmdHandler_get_config_ioh>
    103c:	d5 cf       	rjmp	.-86     	; 0xfe8 <_ZNV9cmdParser11checkparserEv+0x76>
    103e:	5d de       	rcall	.-838    	; 0xcfa <_Z18cmdHandler_freeMemv>
    1040:	d3 cf       	rjmp	.-90     	; 0xfe8 <_ZNV9cmdParser11checkparserEv+0x76>

00001042 <_ZNV9cmdParser14inc_parser_cntEv>:
    1042:	fc 01       	movw	r30, r24
    1044:	91 81       	ldd	r25, Z+1	; 0x01
    1046:	9f 5f       	subi	r25, 0xFF	; 255
    1048:	91 83       	std	Z+1, r25	; 0x01
    104a:	08 95       	ret

0000104c <_Z10plotNumberhPh>:
    104c:	98 2f       	mov	r25, r24
    104e:	9f 70       	andi	r25, 0x0F	; 15
    1050:	fb 01       	movw	r30, r22
    1052:	90 83       	st	Z, r25
    1054:	82 95       	swap	r24
    1056:	8f 70       	andi	r24, 0x0F	; 15
    1058:	81 83       	std	Z+1, r24	; 0x01
    105a:	08 95       	ret

0000105c <_Z10plotNumberiPh>:
    105c:	fb 01       	movw	r30, r22
    105e:	28 2f       	mov	r18, r24
    1060:	2f 70       	andi	r18, 0x0F	; 15
    1062:	20 83       	st	Z, r18
    1064:	9c 01       	movw	r18, r24
    1066:	35 95       	asr	r19
    1068:	27 95       	ror	r18
    106a:	35 95       	asr	r19
    106c:	27 95       	ror	r18
    106e:	35 95       	asr	r19
    1070:	27 95       	ror	r18
    1072:	35 95       	asr	r19
    1074:	27 95       	ror	r18
    1076:	2f 70       	andi	r18, 0x0F	; 15
    1078:	21 83       	std	Z+1, r18	; 0x01
    107a:	89 2f       	mov	r24, r25
    107c:	8f 70       	andi	r24, 0x0F	; 15
    107e:	82 83       	std	Z+2, r24	; 0x02
    1080:	89 2f       	mov	r24, r25
    1082:	82 95       	swap	r24
    1084:	8f 70       	andi	r24, 0x0F	; 15
    1086:	83 83       	std	Z+3, r24	; 0x03
    1088:	08 95       	ret

0000108a <_ZN6io_pinC1EPVhS1_S1_h9io_config>:
    108a:	ef 92       	push	r14
    108c:	0f 93       	push	r16
    108e:	fc 01       	movw	r30, r24
    1090:	8e 2d       	mov	r24, r14
    1092:	76 83       	std	Z+6, r23	; 0x06
    1094:	65 83       	std	Z+5, r22	; 0x05
    1096:	54 83       	std	Z+4, r21	; 0x04
    1098:	43 83       	std	Z+3, r20	; 0x03
    109a:	32 83       	std	Z+2, r19	; 0x02
    109c:	21 83       	std	Z+1, r18	; 0x01
    109e:	07 83       	std	Z+7, r16	; 0x07
    10a0:	90 81       	ld	r25, Z
    10a2:	e9 16       	cp	r14, r25
    10a4:	c9 f1       	breq	.+114    	; 0x1118 <_ZN6io_pinC1EPVhS1_S1_h9io_config+0x8e>
    10a6:	82 30       	cpi	r24, 0x02	; 2
    10a8:	f1 f1       	breq	.+124    	; 0x1126 <_ZN6io_pinC1EPVhS1_S1_h9io_config+0x9c>
    10aa:	b0 f0       	brcs	.+44     	; 0x10d8 <_ZN6io_pinC1EPVhS1_S1_h9io_config+0x4e>
    10ac:	84 30       	cpi	r24, 0x04	; 4
    10ae:	c9 f1       	breq	.+114    	; 0x1122 <_ZN6io_pinC1EPVhS1_S1_h9io_config+0x98>
    10b0:	20 f0       	brcs	.+8      	; 0x10ba <_ZN6io_pinC1EPVhS1_S1_h9io_config+0x30>
    10b2:	85 30       	cpi	r24, 0x05	; 5
    10b4:	81 f5       	brne	.+96     	; 0x1116 <_ZN6io_pinC1EPVhS1_S1_h9io_config+0x8c>
    10b6:	11 86       	std	Z+9, r1	; 0x09
    10b8:	10 86       	std	Z+8, r1	; 0x08
    10ba:	47 81       	ldd	r20, Z+7	; 0x07
    10bc:	a5 81       	ldd	r26, Z+5	; 0x05
    10be:	b6 81       	ldd	r27, Z+6	; 0x06
    10c0:	9c 91       	ld	r25, X
    10c2:	21 e0       	ldi	r18, 0x01	; 1
    10c4:	30 e0       	ldi	r19, 0x00	; 0
    10c6:	b9 01       	movw	r22, r18
    10c8:	02 c0       	rjmp	.+4      	; 0x10ce <_ZN6io_pinC1EPVhS1_S1_h9io_config+0x44>
    10ca:	66 0f       	add	r22, r22
    10cc:	77 1f       	adc	r23, r23
    10ce:	4a 95       	dec	r20
    10d0:	e2 f7       	brpl	.-8      	; 0x10ca <_ZN6io_pinC1EPVhS1_S1_h9io_config+0x40>
    10d2:	ab 01       	movw	r20, r22
    10d4:	49 2b       	or	r20, r25
    10d6:	14 c0       	rjmp	.+40     	; 0x1100 <_ZN6io_pinC1EPVhS1_S1_h9io_config+0x76>
    10d8:	ee 20       	and	r14, r14
    10da:	11 f0       	breq	.+4      	; 0x10e0 <_ZN6io_pinC1EPVhS1_S1_h9io_config+0x56>
    10dc:	81 30       	cpi	r24, 0x01	; 1
    10de:	d9 f4       	brne	.+54     	; 0x1116 <_ZN6io_pinC1EPVhS1_S1_h9io_config+0x8c>
    10e0:	47 81       	ldd	r20, Z+7	; 0x07
    10e2:	a5 81       	ldd	r26, Z+5	; 0x05
    10e4:	b6 81       	ldd	r27, Z+6	; 0x06
    10e6:	9c 91       	ld	r25, X
    10e8:	21 e0       	ldi	r18, 0x01	; 1
    10ea:	30 e0       	ldi	r19, 0x00	; 0
    10ec:	b9 01       	movw	r22, r18
    10ee:	02 c0       	rjmp	.+4      	; 0x10f4 <_ZN6io_pinC1EPVhS1_S1_h9io_config+0x6a>
    10f0:	66 0f       	add	r22, r22
    10f2:	77 1f       	adc	r23, r23
    10f4:	4a 95       	dec	r20
    10f6:	e2 f7       	brpl	.-8      	; 0x10f0 <_ZN6io_pinC1EPVhS1_S1_h9io_config+0x66>
    10f8:	ab 01       	movw	r20, r22
    10fa:	40 95       	com	r20
    10fc:	50 95       	com	r21
    10fe:	49 23       	and	r20, r25
    1100:	4c 93       	st	X, r20
    1102:	47 81       	ldd	r20, Z+7	; 0x07
    1104:	a3 81       	ldd	r26, Z+3	; 0x03
    1106:	b4 81       	ldd	r27, Z+4	; 0x04
    1108:	9c 91       	ld	r25, X
    110a:	01 c0       	rjmp	.+2      	; 0x110e <_ZN6io_pinC1EPVhS1_S1_h9io_config+0x84>
    110c:	22 0f       	add	r18, r18
    110e:	4a 95       	dec	r20
    1110:	ea f7       	brpl	.-6      	; 0x110c <_ZN6io_pinC1EPVhS1_S1_h9io_config+0x82>
    1112:	29 2b       	or	r18, r25
    1114:	2c 93       	st	X, r18
    1116:	80 83       	st	Z, r24
    1118:	10 86       	std	Z+8, r1	; 0x08
    111a:	11 86       	std	Z+9, r1	; 0x09
    111c:	0f 91       	pop	r16
    111e:	ef 90       	pop	r14
    1120:	08 95       	ret
    1122:	11 86       	std	Z+9, r1	; 0x09
    1124:	10 86       	std	Z+8, r1	; 0x08
    1126:	47 81       	ldd	r20, Z+7	; 0x07
    1128:	a5 81       	ldd	r26, Z+5	; 0x05
    112a:	b6 81       	ldd	r27, Z+6	; 0x06
    112c:	9c 91       	ld	r25, X
    112e:	21 e0       	ldi	r18, 0x01	; 1
    1130:	30 e0       	ldi	r19, 0x00	; 0
    1132:	b9 01       	movw	r22, r18
    1134:	02 c0       	rjmp	.+4      	; 0x113a <_ZN6io_pinC1EPVhS1_S1_h9io_config+0xb0>
    1136:	66 0f       	add	r22, r22
    1138:	77 1f       	adc	r23, r23
    113a:	4a 95       	dec	r20
    113c:	e2 f7       	brpl	.-8      	; 0x1136 <_ZN6io_pinC1EPVhS1_S1_h9io_config+0xac>
    113e:	ab 01       	movw	r20, r22
    1140:	49 2b       	or	r20, r25
    1142:	4c 93       	st	X, r20
    1144:	47 81       	ldd	r20, Z+7	; 0x07
    1146:	a3 81       	ldd	r26, Z+3	; 0x03
    1148:	b4 81       	ldd	r27, Z+4	; 0x04
    114a:	9c 91       	ld	r25, X
    114c:	02 c0       	rjmp	.+4      	; 0x1152 <_ZN6io_pinC1EPVhS1_S1_h9io_config+0xc8>
    114e:	22 0f       	add	r18, r18
    1150:	33 1f       	adc	r19, r19
    1152:	4a 95       	dec	r20
    1154:	e2 f7       	brpl	.-8      	; 0x114e <_ZN6io_pinC1EPVhS1_S1_h9io_config+0xc4>
    1156:	20 95       	com	r18
    1158:	30 95       	com	r19
    115a:	29 23       	and	r18, r25
    115c:	2c 93       	st	X, r18
    115e:	80 83       	st	Z, r24
    1160:	db cf       	rjmp	.-74     	; 0x1118 <_ZN6io_pinC1EPVhS1_S1_h9io_config+0x8e>

00001162 <_ZNV6io_pin3getEv>:
    1162:	fc 01       	movw	r30, r24
    1164:	90 81       	ld	r25, Z
    1166:	92 30       	cpi	r25, 0x02	; 2
    1168:	79 f1       	breq	.+94     	; 0x11c8 <_ZNV6io_pin3getEv+0x66>
    116a:	38 f0       	brcs	.+14     	; 0x117a <_ZNV6io_pin3getEv+0x18>
    116c:	94 30       	cpi	r25, 0x04	; 4
    116e:	19 f0       	breq	.+6      	; 0x1176 <_ZNV6io_pin3getEv+0x14>
    1170:	40 f1       	brcs	.+80     	; 0x11c2 <_ZNV6io_pin3getEv+0x60>
    1172:	95 30       	cpi	r25, 0x05	; 5
    1174:	b9 f4       	brne	.+46     	; 0x11a4 <_ZNV6io_pin3getEv+0x42>
    1176:	80 85       	ldd	r24, Z+8	; 0x08
    1178:	08 95       	ret
    117a:	99 23       	and	r25, r25
    117c:	a9 f0       	breq	.+42     	; 0x11a8 <_ZNV6io_pin3getEv+0x46>
    117e:	91 30       	cpi	r25, 0x01	; 1
    1180:	89 f4       	brne	.+34     	; 0x11a4 <_ZNV6io_pin3getEv+0x42>
    1182:	a1 81       	ldd	r26, Z+1	; 0x01
    1184:	b2 81       	ldd	r27, Z+2	; 0x02
    1186:	9c 91       	ld	r25, X
    1188:	27 81       	ldd	r18, Z+7	; 0x07
    118a:	89 2f       	mov	r24, r25
    118c:	90 e0       	ldi	r25, 0x00	; 0
    118e:	02 c0       	rjmp	.+4      	; 0x1194 <_ZNV6io_pin3getEv+0x32>
    1190:	95 95       	asr	r25
    1192:	87 95       	ror	r24
    1194:	2a 95       	dec	r18
    1196:	e2 f7       	brpl	.-8      	; 0x1190 <_ZNV6io_pin3getEv+0x2e>
    1198:	81 70       	andi	r24, 0x01	; 1
    119a:	99 27       	eor	r25, r25
    119c:	21 e0       	ldi	r18, 0x01	; 1
    119e:	82 27       	eor	r24, r18
    11a0:	81 70       	andi	r24, 0x01	; 1
    11a2:	08 95       	ret
    11a4:	80 e0       	ldi	r24, 0x00	; 0
    11a6:	08 95       	ret
    11a8:	a1 81       	ldd	r26, Z+1	; 0x01
    11aa:	b2 81       	ldd	r27, Z+2	; 0x02
    11ac:	9c 91       	ld	r25, X
    11ae:	27 81       	ldd	r18, Z+7	; 0x07
    11b0:	89 2f       	mov	r24, r25
    11b2:	90 e0       	ldi	r25, 0x00	; 0
    11b4:	02 c0       	rjmp	.+4      	; 0x11ba <_ZNV6io_pin3getEv+0x58>
    11b6:	95 95       	asr	r25
    11b8:	87 95       	ror	r24
    11ba:	2a 95       	dec	r18
    11bc:	e2 f7       	brpl	.-8      	; 0x11b6 <_ZNV6io_pin3getEv+0x54>
    11be:	81 70       	andi	r24, 0x01	; 1
    11c0:	08 95       	ret
    11c2:	a3 81       	ldd	r26, Z+3	; 0x03
    11c4:	b4 81       	ldd	r27, Z+4	; 0x04
    11c6:	df cf       	rjmp	.-66     	; 0x1186 <_ZNV6io_pin3getEv+0x24>
    11c8:	a3 81       	ldd	r26, Z+3	; 0x03
    11ca:	b4 81       	ldd	r27, Z+4	; 0x04
    11cc:	ef cf       	rjmp	.-34     	; 0x11ac <_ZNV6io_pin3getEv+0x4a>

000011ce <_ZNV6io_pin3setEh>:
    11ce:	fc 01       	movw	r30, r24
    11d0:	90 81       	ld	r25, Z
    11d2:	93 30       	cpi	r25, 0x03	; 3
    11d4:	d1 f0       	breq	.+52     	; 0x120a <_ZNV6io_pin3setEh+0x3c>
    11d6:	30 f0       	brcs	.+12     	; 0x11e4 <_ZNV6io_pin3setEh+0x16>
    11d8:	94 30       	cpi	r25, 0x04	; 4
    11da:	11 f0       	breq	.+4      	; 0x11e0 <_ZNV6io_pin3setEh+0x12>
    11dc:	95 30       	cpi	r25, 0x05	; 5
    11de:	41 f5       	brne	.+80     	; 0x1230 <_ZNV6io_pin3setEh+0x62>
    11e0:	60 87       	std	Z+8, r22	; 0x08
    11e2:	08 95       	ret
    11e4:	92 30       	cpi	r25, 0x02	; 2
    11e6:	29 f5       	brne	.+74     	; 0x1232 <_ZNV6io_pin3setEh+0x64>
    11e8:	37 81       	ldd	r19, Z+7	; 0x07
    11ea:	03 80       	ldd	r0, Z+3	; 0x03
    11ec:	f4 81       	ldd	r31, Z+4	; 0x04
    11ee:	e0 2d       	mov	r30, r0
    11f0:	20 81       	ld	r18, Z
    11f2:	81 e0       	ldi	r24, 0x01	; 1
    11f4:	90 e0       	ldi	r25, 0x00	; 0
    11f6:	02 c0       	rjmp	.+4      	; 0x11fc <_ZNV6io_pin3setEh+0x2e>
    11f8:	88 0f       	add	r24, r24
    11fa:	99 1f       	adc	r25, r25
    11fc:	3a 95       	dec	r19
    11fe:	e2 f7       	brpl	.-8      	; 0x11f8 <_ZNV6io_pin3setEh+0x2a>
    1200:	66 23       	and	r22, r22
    1202:	89 f0       	breq	.+34     	; 0x1226 <_ZNV6io_pin3setEh+0x58>
    1204:	82 2b       	or	r24, r18
    1206:	80 83       	st	Z, r24
    1208:	08 95       	ret
    120a:	37 81       	ldd	r19, Z+7	; 0x07
    120c:	03 80       	ldd	r0, Z+3	; 0x03
    120e:	f4 81       	ldd	r31, Z+4	; 0x04
    1210:	e0 2d       	mov	r30, r0
    1212:	20 81       	ld	r18, Z
    1214:	81 e0       	ldi	r24, 0x01	; 1
    1216:	90 e0       	ldi	r25, 0x00	; 0
    1218:	02 c0       	rjmp	.+4      	; 0x121e <_ZNV6io_pin3setEh+0x50>
    121a:	88 0f       	add	r24, r24
    121c:	99 1f       	adc	r25, r25
    121e:	3a 95       	dec	r19
    1220:	e2 f7       	brpl	.-8      	; 0x121a <_ZNV6io_pin3setEh+0x4c>
    1222:	66 23       	and	r22, r22
    1224:	79 f3       	breq	.-34     	; 0x1204 <_ZNV6io_pin3setEh+0x36>
    1226:	80 95       	com	r24
    1228:	90 95       	com	r25
    122a:	82 23       	and	r24, r18
    122c:	80 83       	st	Z, r24
    122e:	08 95       	ret
    1230:	08 95       	ret
    1232:	08 95       	ret

00001234 <_ZNV6io_pin9setconfigEh>:
    1234:	cf 93       	push	r28
    1236:	df 93       	push	r29
    1238:	fc 01       	movw	r30, r24
    123a:	80 81       	ld	r24, Z
    123c:	86 17       	cp	r24, r22
    123e:	c9 f1       	breq	.+114    	; 0x12b2 <_ZNV6io_pin9setconfigEh+0x7e>
    1240:	62 30       	cpi	r22, 0x02	; 2
    1242:	e1 f1       	breq	.+120    	; 0x12bc <_ZNV6io_pin9setconfigEh+0x88>
    1244:	b0 f0       	brcs	.+44     	; 0x1272 <_ZNV6io_pin9setconfigEh+0x3e>
    1246:	64 30       	cpi	r22, 0x04	; 4
    1248:	b9 f1       	breq	.+110    	; 0x12b8 <_ZNV6io_pin9setconfigEh+0x84>
    124a:	20 f0       	brcs	.+8      	; 0x1254 <_ZNV6io_pin9setconfigEh+0x20>
    124c:	65 30       	cpi	r22, 0x05	; 5
    124e:	81 f5       	brne	.+96     	; 0x12b0 <_ZNV6io_pin9setconfigEh+0x7c>
    1250:	11 86       	std	Z+9, r1	; 0x09
    1252:	10 86       	std	Z+8, r1	; 0x08
    1254:	27 81       	ldd	r18, Z+7	; 0x07
    1256:	a5 81       	ldd	r26, Z+5	; 0x05
    1258:	b6 81       	ldd	r27, Z+6	; 0x06
    125a:	4c 91       	ld	r20, X
    125c:	81 e0       	ldi	r24, 0x01	; 1
    125e:	90 e0       	ldi	r25, 0x00	; 0
    1260:	ec 01       	movw	r28, r24
    1262:	02 c0       	rjmp	.+4      	; 0x1268 <_ZNV6io_pin9setconfigEh+0x34>
    1264:	cc 0f       	add	r28, r28
    1266:	dd 1f       	adc	r29, r29
    1268:	2a 95       	dec	r18
    126a:	e2 f7       	brpl	.-8      	; 0x1264 <_ZNV6io_pin9setconfigEh+0x30>
    126c:	9e 01       	movw	r18, r28
    126e:	24 2b       	or	r18, r20
    1270:	14 c0       	rjmp	.+40     	; 0x129a <_ZNV6io_pin9setconfigEh+0x66>
    1272:	66 23       	and	r22, r22
    1274:	11 f0       	breq	.+4      	; 0x127a <_ZNV6io_pin9setconfigEh+0x46>
    1276:	61 30       	cpi	r22, 0x01	; 1
    1278:	d9 f4       	brne	.+54     	; 0x12b0 <_ZNV6io_pin9setconfigEh+0x7c>
    127a:	27 81       	ldd	r18, Z+7	; 0x07
    127c:	a5 81       	ldd	r26, Z+5	; 0x05
    127e:	b6 81       	ldd	r27, Z+6	; 0x06
    1280:	4c 91       	ld	r20, X
    1282:	81 e0       	ldi	r24, 0x01	; 1
    1284:	90 e0       	ldi	r25, 0x00	; 0
    1286:	ec 01       	movw	r28, r24
    1288:	02 c0       	rjmp	.+4      	; 0x128e <_ZNV6io_pin9setconfigEh+0x5a>
    128a:	cc 0f       	add	r28, r28
    128c:	dd 1f       	adc	r29, r29
    128e:	2a 95       	dec	r18
    1290:	e2 f7       	brpl	.-8      	; 0x128a <_ZNV6io_pin9setconfigEh+0x56>
    1292:	9e 01       	movw	r18, r28
    1294:	20 95       	com	r18
    1296:	30 95       	com	r19
    1298:	24 23       	and	r18, r20
    129a:	2c 93       	st	X, r18
    129c:	37 81       	ldd	r19, Z+7	; 0x07
    129e:	a3 81       	ldd	r26, Z+3	; 0x03
    12a0:	b4 81       	ldd	r27, Z+4	; 0x04
    12a2:	2c 91       	ld	r18, X
    12a4:	01 c0       	rjmp	.+2      	; 0x12a8 <_ZNV6io_pin9setconfigEh+0x74>
    12a6:	88 0f       	add	r24, r24
    12a8:	3a 95       	dec	r19
    12aa:	ea f7       	brpl	.-6      	; 0x12a6 <_ZNV6io_pin9setconfigEh+0x72>
    12ac:	82 2b       	or	r24, r18
    12ae:	8c 93       	st	X, r24
    12b0:	60 83       	st	Z, r22
    12b2:	df 91       	pop	r29
    12b4:	cf 91       	pop	r28
    12b6:	08 95       	ret
    12b8:	11 86       	std	Z+9, r1	; 0x09
    12ba:	10 86       	std	Z+8, r1	; 0x08
    12bc:	27 81       	ldd	r18, Z+7	; 0x07
    12be:	a5 81       	ldd	r26, Z+5	; 0x05
    12c0:	b6 81       	ldd	r27, Z+6	; 0x06
    12c2:	4c 91       	ld	r20, X
    12c4:	81 e0       	ldi	r24, 0x01	; 1
    12c6:	90 e0       	ldi	r25, 0x00	; 0
    12c8:	ec 01       	movw	r28, r24
    12ca:	02 c0       	rjmp	.+4      	; 0x12d0 <_ZNV6io_pin9setconfigEh+0x9c>
    12cc:	cc 0f       	add	r28, r28
    12ce:	dd 1f       	adc	r29, r29
    12d0:	2a 95       	dec	r18
    12d2:	e2 f7       	brpl	.-8      	; 0x12cc <_ZNV6io_pin9setconfigEh+0x98>
    12d4:	9e 01       	movw	r18, r28
    12d6:	24 2b       	or	r18, r20
    12d8:	2c 93       	st	X, r18
    12da:	37 81       	ldd	r19, Z+7	; 0x07
    12dc:	a3 81       	ldd	r26, Z+3	; 0x03
    12de:	b4 81       	ldd	r27, Z+4	; 0x04
    12e0:	2c 91       	ld	r18, X
    12e2:	02 c0       	rjmp	.+4      	; 0x12e8 <_ZNV6io_pin9setconfigEh+0xb4>
    12e4:	88 0f       	add	r24, r24
    12e6:	99 1f       	adc	r25, r25
    12e8:	3a 95       	dec	r19
    12ea:	e2 f7       	brpl	.-8      	; 0x12e4 <_ZNV6io_pin9setconfigEh+0xb0>
    12ec:	80 95       	com	r24
    12ee:	90 95       	com	r25
    12f0:	82 23       	and	r24, r18
    12f2:	8c 93       	st	X, r24
    12f4:	60 83       	st	Z, r22
    12f6:	dd cf       	rjmp	.-70     	; 0x12b2 <_ZNV6io_pin9setconfigEh+0x7e>

000012f8 <_ZNV6io_pin9getconfigEv>:
    12f8:	fc 01       	movw	r30, r24
    12fa:	80 81       	ld	r24, Z
    12fc:	08 95       	ret

000012fe <_ZNV6io_pin7triggerEv>:
    12fe:	fc 01       	movw	r30, r24
    1300:	80 81       	ld	r24, Z
    1302:	84 30       	cpi	r24, 0x04	; 4
    1304:	21 f1       	breq	.+72     	; 0x134e <_ZNV6io_pin7triggerEv+0x50>
    1306:	80 81       	ld	r24, Z
    1308:	85 30       	cpi	r24, 0x05	; 5
    130a:	21 f0       	breq	.+8      	; 0x1314 <_ZNV6io_pin7triggerEv+0x16>
    130c:	81 85       	ldd	r24, Z+9	; 0x09
    130e:	8f 5f       	subi	r24, 0xFF	; 255
    1310:	81 87       	std	Z+9, r24	; 0x09
    1312:	08 95       	ret
    1314:	91 85       	ldd	r25, Z+9	; 0x09
    1316:	80 85       	ldd	r24, Z+8	; 0x08
    1318:	89 17       	cp	r24, r25
    131a:	18 f1       	brcs	.+70     	; 0x1362 <_ZNV6io_pin7triggerEv+0x64>
    131c:	81 85       	ldd	r24, Z+9	; 0x09
    131e:	81 11       	cpse	r24, r1
    1320:	f5 cf       	rjmp	.-22     	; 0x130c <_ZNV6io_pin7triggerEv+0xe>
    1322:	80 85       	ldd	r24, Z+8	; 0x08
    1324:	88 23       	and	r24, r24
    1326:	91 f3       	breq	.-28     	; 0x130c <_ZNV6io_pin7triggerEv+0xe>
    1328:	37 81       	ldd	r19, Z+7	; 0x07
    132a:	a3 81       	ldd	r26, Z+3	; 0x03
    132c:	b4 81       	ldd	r27, Z+4	; 0x04
    132e:	2c 91       	ld	r18, X
    1330:	81 e0       	ldi	r24, 0x01	; 1
    1332:	90 e0       	ldi	r25, 0x00	; 0
    1334:	02 c0       	rjmp	.+4      	; 0x133a <_ZNV6io_pin7triggerEv+0x3c>
    1336:	88 0f       	add	r24, r24
    1338:	99 1f       	adc	r25, r25
    133a:	3a 95       	dec	r19
    133c:	e2 f7       	brpl	.-8      	; 0x1336 <_ZNV6io_pin7triggerEv+0x38>
    133e:	80 95       	com	r24
    1340:	90 95       	com	r25
    1342:	82 23       	and	r24, r18
    1344:	8c 93       	st	X, r24
    1346:	81 85       	ldd	r24, Z+9	; 0x09
    1348:	8f 5f       	subi	r24, 0xFF	; 255
    134a:	81 87       	std	Z+9, r24	; 0x09
    134c:	08 95       	ret
    134e:	91 85       	ldd	r25, Z+9	; 0x09
    1350:	80 85       	ldd	r24, Z+8	; 0x08
    1352:	89 17       	cp	r24, r25
    1354:	48 f3       	brcs	.-46     	; 0x1328 <_ZNV6io_pin7triggerEv+0x2a>
    1356:	81 85       	ldd	r24, Z+9	; 0x09
    1358:	81 11       	cpse	r24, r1
    135a:	d8 cf       	rjmp	.-80     	; 0x130c <_ZNV6io_pin7triggerEv+0xe>
    135c:	80 85       	ldd	r24, Z+8	; 0x08
    135e:	88 23       	and	r24, r24
    1360:	a9 f2       	breq	.-86     	; 0x130c <_ZNV6io_pin7triggerEv+0xe>
    1362:	37 81       	ldd	r19, Z+7	; 0x07
    1364:	a3 81       	ldd	r26, Z+3	; 0x03
    1366:	b4 81       	ldd	r27, Z+4	; 0x04
    1368:	2c 91       	ld	r18, X
    136a:	81 e0       	ldi	r24, 0x01	; 1
    136c:	90 e0       	ldi	r25, 0x00	; 0
    136e:	01 c0       	rjmp	.+2      	; 0x1372 <_ZNV6io_pin7triggerEv+0x74>
    1370:	88 0f       	add	r24, r24
    1372:	3a 95       	dec	r19
    1374:	ea f7       	brpl	.-6      	; 0x1370 <_ZNV6io_pin7triggerEv+0x72>
    1376:	82 2b       	or	r24, r18
    1378:	8c 93       	st	X, r24
    137a:	81 85       	ldd	r24, Z+9	; 0x09
    137c:	8f 5f       	subi	r24, 0xFF	; 255
    137e:	81 87       	std	Z+9, r24	; 0x09
    1380:	08 95       	ret

00001382 <_ZN4lockC1Ev>:
    1382:	fc 01       	movw	r30, r24
    1384:	10 82       	st	Z, r1
    1386:	08 95       	ret

00001388 <_ZNV4lock7tryLockEv>:
    1388:	fc 01       	movw	r30, r24
    138a:	80 81       	ld	r24, Z
    138c:	88 23       	and	r24, r24
    138e:	21 f0       	breq	.+8      	; 0x1398 <_ZNV4lock7tryLockEv+0x10>
    1390:	00 00       	nop
    1392:	90 81       	ld	r25, Z
    1394:	91 11       	cpse	r25, r1
    1396:	fc cf       	rjmp	.-8      	; 0x1390 <_ZNV4lock7tryLockEv+0x8>
    1398:	81 e0       	ldi	r24, 0x01	; 1
    139a:	80 83       	st	Z, r24
    139c:	08 95       	ret

0000139e <_ZNV4lock6unlockEv>:
    139e:	fc 01       	movw	r30, r24
    13a0:	10 82       	st	Z, r1
    13a2:	08 95       	ret

000013a4 <_Z7init_iov>:
    13a4:	cf 92       	push	r12
    13a6:	df 92       	push	r13
    13a8:	ef 92       	push	r14
    13aa:	0f 93       	push	r16
    13ac:	cf 93       	push	r28
    13ae:	df 93       	push	r29
    13b0:	8a e0       	ldi	r24, 0x0A	; 10
    13b2:	90 e0       	ldi	r25, 0x00	; 0
    13b4:	ff d2       	rcall	.+1534   	; 0x19b4 <_Znwj>
    13b6:	6c 01       	movw	r12, r24
    13b8:	83 e0       	ldi	r24, 0x03	; 3
    13ba:	e8 2e       	mov	r14, r24
    13bc:	01 e0       	ldi	r16, 0x01	; 1
    13be:	26 e2       	ldi	r18, 0x26	; 38
    13c0:	30 e0       	ldi	r19, 0x00	; 0
    13c2:	48 e2       	ldi	r20, 0x28	; 40
    13c4:	50 e0       	ldi	r21, 0x00	; 0
    13c6:	67 e2       	ldi	r22, 0x27	; 39
    13c8:	70 e0       	ldi	r23, 0x00	; 0
    13ca:	c6 01       	movw	r24, r12
    13cc:	5e de       	rcall	.-836    	; 0x108a <_ZN6io_pinC1EPVhS1_S1_h9io_config>
    13ce:	c6 e0       	ldi	r28, 0x06	; 6
    13d0:	d2 e0       	ldi	r29, 0x02	; 2
    13d2:	d9 82       	std	Y+1, r13	; 0x01
    13d4:	c8 82       	st	Y, r12
    13d6:	8a e0       	ldi	r24, 0x0A	; 10
    13d8:	90 e0       	ldi	r25, 0x00	; 0
    13da:	ec d2       	rcall	.+1496   	; 0x19b4 <_Znwj>
    13dc:	6c 01       	movw	r12, r24
    13de:	03 e0       	ldi	r16, 0x03	; 3
    13e0:	26 e2       	ldi	r18, 0x26	; 38
    13e2:	30 e0       	ldi	r19, 0x00	; 0
    13e4:	48 e2       	ldi	r20, 0x28	; 40
    13e6:	50 e0       	ldi	r21, 0x00	; 0
    13e8:	67 e2       	ldi	r22, 0x27	; 39
    13ea:	70 e0       	ldi	r23, 0x00	; 0
    13ec:	4e de       	rcall	.-868    	; 0x108a <_ZN6io_pinC1EPVhS1_S1_h9io_config>
    13ee:	db 82       	std	Y+3, r13	; 0x03
    13f0:	ca 82       	std	Y+2, r12	; 0x02
    13f2:	8a e0       	ldi	r24, 0x0A	; 10
    13f4:	90 e0       	ldi	r25, 0x00	; 0
    13f6:	de d2       	rcall	.+1468   	; 0x19b4 <_Znwj>
    13f8:	6c 01       	movw	r12, r24
    13fa:	05 e0       	ldi	r16, 0x05	; 5
    13fc:	26 e2       	ldi	r18, 0x26	; 38
    13fe:	30 e0       	ldi	r19, 0x00	; 0
    1400:	48 e2       	ldi	r20, 0x28	; 40
    1402:	50 e0       	ldi	r21, 0x00	; 0
    1404:	67 e2       	ldi	r22, 0x27	; 39
    1406:	70 e0       	ldi	r23, 0x00	; 0
    1408:	40 de       	rcall	.-896    	; 0x108a <_ZN6io_pinC1EPVhS1_S1_h9io_config>
    140a:	dd 82       	std	Y+5, r13	; 0x05
    140c:	cc 82       	std	Y+4, r12	; 0x04
    140e:	8a e0       	ldi	r24, 0x0A	; 10
    1410:	90 e0       	ldi	r25, 0x00	; 0
    1412:	d0 d2       	rcall	.+1440   	; 0x19b4 <_Znwj>
    1414:	6c 01       	movw	r12, r24
    1416:	07 e0       	ldi	r16, 0x07	; 7
    1418:	26 e2       	ldi	r18, 0x26	; 38
    141a:	30 e0       	ldi	r19, 0x00	; 0
    141c:	48 e2       	ldi	r20, 0x28	; 40
    141e:	50 e0       	ldi	r21, 0x00	; 0
    1420:	67 e2       	ldi	r22, 0x27	; 39
    1422:	70 e0       	ldi	r23, 0x00	; 0
    1424:	32 de       	rcall	.-924    	; 0x108a <_ZN6io_pinC1EPVhS1_S1_h9io_config>
    1426:	df 82       	std	Y+7, r13	; 0x07
    1428:	ce 82       	std	Y+6, r12	; 0x06
    142a:	8a e0       	ldi	r24, 0x0A	; 10
    142c:	90 e0       	ldi	r25, 0x00	; 0
    142e:	c2 d2       	rcall	.+1412   	; 0x19b4 <_Znwj>
    1430:	6c 01       	movw	r12, r24
    1432:	06 e0       	ldi	r16, 0x06	; 6
    1434:	20 e2       	ldi	r18, 0x20	; 32
    1436:	30 e0       	ldi	r19, 0x00	; 0
    1438:	42 e2       	ldi	r20, 0x22	; 34
    143a:	50 e0       	ldi	r21, 0x00	; 0
    143c:	61 e2       	ldi	r22, 0x21	; 33
    143e:	70 e0       	ldi	r23, 0x00	; 0
    1440:	24 de       	rcall	.-952    	; 0x108a <_ZN6io_pinC1EPVhS1_S1_h9io_config>
    1442:	d9 86       	std	Y+9, r13	; 0x09
    1444:	c8 86       	std	Y+8, r12	; 0x08
    1446:	8a e0       	ldi	r24, 0x0A	; 10
    1448:	90 e0       	ldi	r25, 0x00	; 0
    144a:	b4 d2       	rcall	.+1384   	; 0x19b4 <_Znwj>
    144c:	6c 01       	movw	r12, r24
    144e:	04 e0       	ldi	r16, 0x04	; 4
    1450:	20 e2       	ldi	r18, 0x20	; 32
    1452:	30 e0       	ldi	r19, 0x00	; 0
    1454:	42 e2       	ldi	r20, 0x22	; 34
    1456:	50 e0       	ldi	r21, 0x00	; 0
    1458:	61 e2       	ldi	r22, 0x21	; 33
    145a:	70 e0       	ldi	r23, 0x00	; 0
    145c:	16 de       	rcall	.-980    	; 0x108a <_ZN6io_pinC1EPVhS1_S1_h9io_config>
    145e:	db 86       	std	Y+11, r13	; 0x0b
    1460:	ca 86       	std	Y+10, r12	; 0x0a
    1462:	8a e0       	ldi	r24, 0x0A	; 10
    1464:	90 e0       	ldi	r25, 0x00	; 0
    1466:	a6 d2       	rcall	.+1356   	; 0x19b4 <_Znwj>
    1468:	6c 01       	movw	r12, r24
    146a:	02 e0       	ldi	r16, 0x02	; 2
    146c:	20 e2       	ldi	r18, 0x20	; 32
    146e:	30 e0       	ldi	r19, 0x00	; 0
    1470:	42 e2       	ldi	r20, 0x22	; 34
    1472:	50 e0       	ldi	r21, 0x00	; 0
    1474:	61 e2       	ldi	r22, 0x21	; 33
    1476:	70 e0       	ldi	r23, 0x00	; 0
    1478:	08 de       	rcall	.-1008   	; 0x108a <_ZN6io_pinC1EPVhS1_S1_h9io_config>
    147a:	dd 86       	std	Y+13, r13	; 0x0d
    147c:	cc 86       	std	Y+12, r12	; 0x0c
    147e:	8a e0       	ldi	r24, 0x0A	; 10
    1480:	90 e0       	ldi	r25, 0x00	; 0
    1482:	98 d2       	rcall	.+1328   	; 0x19b4 <_Znwj>
    1484:	6c 01       	movw	r12, r24
    1486:	00 e0       	ldi	r16, 0x00	; 0
    1488:	20 e2       	ldi	r18, 0x20	; 32
    148a:	30 e0       	ldi	r19, 0x00	; 0
    148c:	42 e2       	ldi	r20, 0x22	; 34
    148e:	50 e0       	ldi	r21, 0x00	; 0
    1490:	61 e2       	ldi	r22, 0x21	; 33
    1492:	70 e0       	ldi	r23, 0x00	; 0
    1494:	fa dd       	rcall	.-1036   	; 0x108a <_ZN6io_pinC1EPVhS1_S1_h9io_config>
    1496:	df 86       	std	Y+15, r13	; 0x0f
    1498:	ce 86       	std	Y+14, r12	; 0x0e
    149a:	8a e0       	ldi	r24, 0x0A	; 10
    149c:	90 e0       	ldi	r25, 0x00	; 0
    149e:	8a d2       	rcall	.+1300   	; 0x19b4 <_Znwj>
    14a0:	6c 01       	movw	r12, r24
    14a2:	26 e2       	ldi	r18, 0x26	; 38
    14a4:	30 e0       	ldi	r19, 0x00	; 0
    14a6:	48 e2       	ldi	r20, 0x28	; 40
    14a8:	50 e0       	ldi	r21, 0x00	; 0
    14aa:	67 e2       	ldi	r22, 0x27	; 39
    14ac:	70 e0       	ldi	r23, 0x00	; 0
    14ae:	ed dd       	rcall	.-1062   	; 0x108a <_ZN6io_pinC1EPVhS1_S1_h9io_config>
    14b0:	d9 8a       	std	Y+17, r13	; 0x11
    14b2:	c8 8a       	std	Y+16, r12	; 0x10
    14b4:	8a e0       	ldi	r24, 0x0A	; 10
    14b6:	90 e0       	ldi	r25, 0x00	; 0
    14b8:	7d d2       	rcall	.+1274   	; 0x19b4 <_Znwj>
    14ba:	6c 01       	movw	r12, r24
    14bc:	02 e0       	ldi	r16, 0x02	; 2
    14be:	26 e2       	ldi	r18, 0x26	; 38
    14c0:	30 e0       	ldi	r19, 0x00	; 0
    14c2:	48 e2       	ldi	r20, 0x28	; 40
    14c4:	50 e0       	ldi	r21, 0x00	; 0
    14c6:	67 e2       	ldi	r22, 0x27	; 39
    14c8:	70 e0       	ldi	r23, 0x00	; 0
    14ca:	df dd       	rcall	.-1090   	; 0x108a <_ZN6io_pinC1EPVhS1_S1_h9io_config>
    14cc:	db 8a       	std	Y+19, r13	; 0x13
    14ce:	ca 8a       	std	Y+18, r12	; 0x12
    14d0:	8a e0       	ldi	r24, 0x0A	; 10
    14d2:	90 e0       	ldi	r25, 0x00	; 0
    14d4:	6f d2       	rcall	.+1246   	; 0x19b4 <_Znwj>
    14d6:	6c 01       	movw	r12, r24
    14d8:	04 e0       	ldi	r16, 0x04	; 4
    14da:	26 e2       	ldi	r18, 0x26	; 38
    14dc:	30 e0       	ldi	r19, 0x00	; 0
    14de:	48 e2       	ldi	r20, 0x28	; 40
    14e0:	50 e0       	ldi	r21, 0x00	; 0
    14e2:	67 e2       	ldi	r22, 0x27	; 39
    14e4:	70 e0       	ldi	r23, 0x00	; 0
    14e6:	d1 dd       	rcall	.-1118   	; 0x108a <_ZN6io_pinC1EPVhS1_S1_h9io_config>
    14e8:	dd 8a       	std	Y+21, r13	; 0x15
    14ea:	cc 8a       	std	Y+20, r12	; 0x14
    14ec:	8a e0       	ldi	r24, 0x0A	; 10
    14ee:	90 e0       	ldi	r25, 0x00	; 0
    14f0:	61 d2       	rcall	.+1218   	; 0x19b4 <_Znwj>
    14f2:	6c 01       	movw	r12, r24
    14f4:	06 e0       	ldi	r16, 0x06	; 6
    14f6:	26 e2       	ldi	r18, 0x26	; 38
    14f8:	30 e0       	ldi	r19, 0x00	; 0
    14fa:	48 e2       	ldi	r20, 0x28	; 40
    14fc:	50 e0       	ldi	r21, 0x00	; 0
    14fe:	67 e2       	ldi	r22, 0x27	; 39
    1500:	70 e0       	ldi	r23, 0x00	; 0
    1502:	c3 dd       	rcall	.-1146   	; 0x108a <_ZN6io_pinC1EPVhS1_S1_h9io_config>
    1504:	df 8a       	std	Y+23, r13	; 0x17
    1506:	ce 8a       	std	Y+22, r12	; 0x16
    1508:	8a e0       	ldi	r24, 0x0A	; 10
    150a:	90 e0       	ldi	r25, 0x00	; 0
    150c:	53 d2       	rcall	.+1190   	; 0x19b4 <_Znwj>
    150e:	6c 01       	movw	r12, r24
    1510:	07 e0       	ldi	r16, 0x07	; 7
    1512:	20 e2       	ldi	r18, 0x20	; 32
    1514:	30 e0       	ldi	r19, 0x00	; 0
    1516:	42 e2       	ldi	r20, 0x22	; 34
    1518:	50 e0       	ldi	r21, 0x00	; 0
    151a:	61 e2       	ldi	r22, 0x21	; 33
    151c:	70 e0       	ldi	r23, 0x00	; 0
    151e:	b5 dd       	rcall	.-1174   	; 0x108a <_ZN6io_pinC1EPVhS1_S1_h9io_config>
    1520:	d9 8e       	std	Y+25, r13	; 0x19
    1522:	c8 8e       	std	Y+24, r12	; 0x18
    1524:	8a e0       	ldi	r24, 0x0A	; 10
    1526:	90 e0       	ldi	r25, 0x00	; 0
    1528:	45 d2       	rcall	.+1162   	; 0x19b4 <_Znwj>
    152a:	6c 01       	movw	r12, r24
    152c:	05 e0       	ldi	r16, 0x05	; 5
    152e:	20 e2       	ldi	r18, 0x20	; 32
    1530:	30 e0       	ldi	r19, 0x00	; 0
    1532:	42 e2       	ldi	r20, 0x22	; 34
    1534:	50 e0       	ldi	r21, 0x00	; 0
    1536:	61 e2       	ldi	r22, 0x21	; 33
    1538:	70 e0       	ldi	r23, 0x00	; 0
    153a:	a7 dd       	rcall	.-1202   	; 0x108a <_ZN6io_pinC1EPVhS1_S1_h9io_config>
    153c:	db 8e       	std	Y+27, r13	; 0x1b
    153e:	ca 8e       	std	Y+26, r12	; 0x1a
    1540:	8a e0       	ldi	r24, 0x0A	; 10
    1542:	90 e0       	ldi	r25, 0x00	; 0
    1544:	37 d2       	rcall	.+1134   	; 0x19b4 <_Znwj>
    1546:	6c 01       	movw	r12, r24
    1548:	03 e0       	ldi	r16, 0x03	; 3
    154a:	20 e2       	ldi	r18, 0x20	; 32
    154c:	30 e0       	ldi	r19, 0x00	; 0
    154e:	42 e2       	ldi	r20, 0x22	; 34
    1550:	50 e0       	ldi	r21, 0x00	; 0
    1552:	61 e2       	ldi	r22, 0x21	; 33
    1554:	70 e0       	ldi	r23, 0x00	; 0
    1556:	99 dd       	rcall	.-1230   	; 0x108a <_ZN6io_pinC1EPVhS1_S1_h9io_config>
    1558:	dd 8e       	std	Y+29, r13	; 0x1d
    155a:	cc 8e       	std	Y+28, r12	; 0x1c
    155c:	8a e0       	ldi	r24, 0x0A	; 10
    155e:	90 e0       	ldi	r25, 0x00	; 0
    1560:	29 d2       	rcall	.+1106   	; 0x19b4 <_Znwj>
    1562:	6c 01       	movw	r12, r24
    1564:	01 e0       	ldi	r16, 0x01	; 1
    1566:	20 e2       	ldi	r18, 0x20	; 32
    1568:	30 e0       	ldi	r19, 0x00	; 0
    156a:	42 e2       	ldi	r20, 0x22	; 34
    156c:	50 e0       	ldi	r21, 0x00	; 0
    156e:	61 e2       	ldi	r22, 0x21	; 33
    1570:	70 e0       	ldi	r23, 0x00	; 0
    1572:	8b dd       	rcall	.-1258   	; 0x108a <_ZN6io_pinC1EPVhS1_S1_h9io_config>
    1574:	df 8e       	std	Y+31, r13	; 0x1f
    1576:	ce 8e       	std	Y+30, r12	; 0x1e
    1578:	8a e0       	ldi	r24, 0x0A	; 10
    157a:	90 e0       	ldi	r25, 0x00	; 0
    157c:	1b d2       	rcall	.+1078   	; 0x19b4 <_Znwj>
    157e:	6c 01       	movw	r12, r24
    1580:	07 e0       	ldi	r16, 0x07	; 7
    1582:	29 e2       	ldi	r18, 0x29	; 41
    1584:	30 e0       	ldi	r19, 0x00	; 0
    1586:	4b e2       	ldi	r20, 0x2B	; 43
    1588:	50 e0       	ldi	r21, 0x00	; 0
    158a:	6a e2       	ldi	r22, 0x2A	; 42
    158c:	70 e0       	ldi	r23, 0x00	; 0
    158e:	7d dd       	rcall	.-1286   	; 0x108a <_ZN6io_pinC1EPVhS1_S1_h9io_config>
    1590:	d9 a2       	std	Y+33, r13	; 0x21
    1592:	c8 a2       	std	Y+32, r12	; 0x20
    1594:	8a e0       	ldi	r24, 0x0A	; 10
    1596:	90 e0       	ldi	r25, 0x00	; 0
    1598:	0d d2       	rcall	.+1050   	; 0x19b4 <_Znwj>
    159a:	6c 01       	movw	r12, r24
    159c:	01 e0       	ldi	r16, 0x01	; 1
    159e:	22 e3       	ldi	r18, 0x32	; 50
    15a0:	30 e0       	ldi	r19, 0x00	; 0
    15a2:	44 e3       	ldi	r20, 0x34	; 52
    15a4:	50 e0       	ldi	r21, 0x00	; 0
    15a6:	63 e3       	ldi	r22, 0x33	; 51
    15a8:	70 e0       	ldi	r23, 0x00	; 0
    15aa:	6f dd       	rcall	.-1314   	; 0x108a <_ZN6io_pinC1EPVhS1_S1_h9io_config>
    15ac:	db a2       	std	Y+35, r13	; 0x23
    15ae:	ca a2       	std	Y+34, r12	; 0x22
    15b0:	8a e0       	ldi	r24, 0x0A	; 10
    15b2:	90 e0       	ldi	r25, 0x00	; 0
    15b4:	ff d1       	rcall	.+1022   	; 0x19b4 <_Znwj>
    15b6:	6c 01       	movw	r12, r24
    15b8:	07 e0       	ldi	r16, 0x07	; 7
    15ba:	29 e0       	ldi	r18, 0x09	; 9
    15bc:	31 e0       	ldi	r19, 0x01	; 1
    15be:	4b e0       	ldi	r20, 0x0B	; 11
    15c0:	51 e0       	ldi	r21, 0x01	; 1
    15c2:	6a e0       	ldi	r22, 0x0A	; 10
    15c4:	71 e0       	ldi	r23, 0x01	; 1
    15c6:	61 dd       	rcall	.-1342   	; 0x108a <_ZN6io_pinC1EPVhS1_S1_h9io_config>
    15c8:	dd a2       	std	Y+37, r13	; 0x25
    15ca:	cc a2       	std	Y+36, r12	; 0x24
    15cc:	8a e0       	ldi	r24, 0x0A	; 10
    15ce:	90 e0       	ldi	r25, 0x00	; 0
    15d0:	f1 d1       	rcall	.+994    	; 0x19b4 <_Znwj>
    15d2:	6c 01       	movw	r12, r24
    15d4:	05 e0       	ldi	r16, 0x05	; 5
    15d6:	29 e0       	ldi	r18, 0x09	; 9
    15d8:	31 e0       	ldi	r19, 0x01	; 1
    15da:	4b e0       	ldi	r20, 0x0B	; 11
    15dc:	51 e0       	ldi	r21, 0x01	; 1
    15de:	6a e0       	ldi	r22, 0x0A	; 10
    15e0:	71 e0       	ldi	r23, 0x01	; 1
    15e2:	53 dd       	rcall	.-1370   	; 0x108a <_ZN6io_pinC1EPVhS1_S1_h9io_config>
    15e4:	df a2       	std	Y+39, r13	; 0x27
    15e6:	ce a2       	std	Y+38, r12	; 0x26
    15e8:	8a e0       	ldi	r24, 0x0A	; 10
    15ea:	90 e0       	ldi	r25, 0x00	; 0
    15ec:	e3 d1       	rcall	.+966    	; 0x19b4 <_Znwj>
    15ee:	6c 01       	movw	r12, r24
    15f0:	03 e0       	ldi	r16, 0x03	; 3
    15f2:	29 e0       	ldi	r18, 0x09	; 9
    15f4:	31 e0       	ldi	r19, 0x01	; 1
    15f6:	4b e0       	ldi	r20, 0x0B	; 11
    15f8:	51 e0       	ldi	r21, 0x01	; 1
    15fa:	6a e0       	ldi	r22, 0x0A	; 10
    15fc:	71 e0       	ldi	r23, 0x01	; 1
    15fe:	45 dd       	rcall	.-1398   	; 0x108a <_ZN6io_pinC1EPVhS1_S1_h9io_config>
    1600:	d9 a6       	std	Y+41, r13	; 0x29
    1602:	c8 a6       	std	Y+40, r12	; 0x28
    1604:	8a e0       	ldi	r24, 0x0A	; 10
    1606:	90 e0       	ldi	r25, 0x00	; 0
    1608:	d5 d1       	rcall	.+938    	; 0x19b4 <_Znwj>
    160a:	6c 01       	movw	r12, r24
    160c:	01 e0       	ldi	r16, 0x01	; 1
    160e:	29 e0       	ldi	r18, 0x09	; 9
    1610:	31 e0       	ldi	r19, 0x01	; 1
    1612:	4b e0       	ldi	r20, 0x0B	; 11
    1614:	51 e0       	ldi	r21, 0x01	; 1
    1616:	6a e0       	ldi	r22, 0x0A	; 10
    1618:	71 e0       	ldi	r23, 0x01	; 1
    161a:	37 dd       	rcall	.-1426   	; 0x108a <_ZN6io_pinC1EPVhS1_S1_h9io_config>
    161c:	db a6       	std	Y+43, r13	; 0x2b
    161e:	ca a6       	std	Y+42, r12	; 0x2a
    1620:	8a e0       	ldi	r24, 0x0A	; 10
    1622:	90 e0       	ldi	r25, 0x00	; 0
    1624:	c7 d1       	rcall	.+910    	; 0x19b4 <_Znwj>
    1626:	6c 01       	movw	r12, r24
    1628:	03 e0       	ldi	r16, 0x03	; 3
    162a:	23 e2       	ldi	r18, 0x23	; 35
    162c:	30 e0       	ldi	r19, 0x00	; 0
    162e:	45 e2       	ldi	r20, 0x25	; 37
    1630:	50 e0       	ldi	r21, 0x00	; 0
    1632:	64 e2       	ldi	r22, 0x24	; 36
    1634:	70 e0       	ldi	r23, 0x00	; 0
    1636:	29 dd       	rcall	.-1454   	; 0x108a <_ZN6io_pinC1EPVhS1_S1_h9io_config>
    1638:	dd a6       	std	Y+45, r13	; 0x2d
    163a:	cc a6       	std	Y+44, r12	; 0x2c
    163c:	8a e0       	ldi	r24, 0x0A	; 10
    163e:	90 e0       	ldi	r25, 0x00	; 0
    1640:	b9 d1       	rcall	.+882    	; 0x19b4 <_Znwj>
    1642:	6c 01       	movw	r12, r24
    1644:	01 e0       	ldi	r16, 0x01	; 1
    1646:	23 e2       	ldi	r18, 0x23	; 35
    1648:	30 e0       	ldi	r19, 0x00	; 0
    164a:	45 e2       	ldi	r20, 0x25	; 37
    164c:	50 e0       	ldi	r21, 0x00	; 0
    164e:	64 e2       	ldi	r22, 0x24	; 36
    1650:	70 e0       	ldi	r23, 0x00	; 0
    1652:	1b dd       	rcall	.-1482   	; 0x108a <_ZN6io_pinC1EPVhS1_S1_h9io_config>
    1654:	df a6       	std	Y+47, r13	; 0x2f
    1656:	ce a6       	std	Y+46, r12	; 0x2e
    1658:	8a e0       	ldi	r24, 0x0A	; 10
    165a:	90 e0       	ldi	r25, 0x00	; 0
    165c:	ab d1       	rcall	.+854    	; 0x19b4 <_Znwj>
    165e:	6c 01       	movw	r12, r24
    1660:	02 e0       	ldi	r16, 0x02	; 2
    1662:	22 e3       	ldi	r18, 0x32	; 50
    1664:	30 e0       	ldi	r19, 0x00	; 0
    1666:	44 e3       	ldi	r20, 0x34	; 52
    1668:	50 e0       	ldi	r21, 0x00	; 0
    166a:	63 e3       	ldi	r22, 0x33	; 51
    166c:	70 e0       	ldi	r23, 0x00	; 0
    166e:	0d dd       	rcall	.-1510   	; 0x108a <_ZN6io_pinC1EPVhS1_S1_h9io_config>
    1670:	d9 aa       	std	Y+49, r13	; 0x31
    1672:	c8 aa       	std	Y+48, r12	; 0x30
    1674:	8a e0       	ldi	r24, 0x0A	; 10
    1676:	90 e0       	ldi	r25, 0x00	; 0
    1678:	9d d1       	rcall	.+826    	; 0x19b4 <_Znwj>
    167a:	6c 01       	movw	r12, r24
    167c:	00 e0       	ldi	r16, 0x00	; 0
    167e:	22 e3       	ldi	r18, 0x32	; 50
    1680:	30 e0       	ldi	r19, 0x00	; 0
    1682:	44 e3       	ldi	r20, 0x34	; 52
    1684:	50 e0       	ldi	r21, 0x00	; 0
    1686:	63 e3       	ldi	r22, 0x33	; 51
    1688:	70 e0       	ldi	r23, 0x00	; 0
    168a:	ff dc       	rcall	.-1538   	; 0x108a <_ZN6io_pinC1EPVhS1_S1_h9io_config>
    168c:	db aa       	std	Y+51, r13	; 0x33
    168e:	ca aa       	std	Y+50, r12	; 0x32
    1690:	8a e0       	ldi	r24, 0x0A	; 10
    1692:	90 e0       	ldi	r25, 0x00	; 0
    1694:	8f d1       	rcall	.+798    	; 0x19b4 <_Znwj>
    1696:	6c 01       	movw	r12, r24
    1698:	06 e0       	ldi	r16, 0x06	; 6
    169a:	29 e0       	ldi	r18, 0x09	; 9
    169c:	31 e0       	ldi	r19, 0x01	; 1
    169e:	4b e0       	ldi	r20, 0x0B	; 11
    16a0:	51 e0       	ldi	r21, 0x01	; 1
    16a2:	6a e0       	ldi	r22, 0x0A	; 10
    16a4:	71 e0       	ldi	r23, 0x01	; 1
    16a6:	f1 dc       	rcall	.-1566   	; 0x108a <_ZN6io_pinC1EPVhS1_S1_h9io_config>
    16a8:	dd aa       	std	Y+53, r13	; 0x35
    16aa:	cc aa       	std	Y+52, r12	; 0x34
    16ac:	8a e0       	ldi	r24, 0x0A	; 10
    16ae:	90 e0       	ldi	r25, 0x00	; 0
    16b0:	81 d1       	rcall	.+770    	; 0x19b4 <_Znwj>
    16b2:	6c 01       	movw	r12, r24
    16b4:	04 e0       	ldi	r16, 0x04	; 4
    16b6:	29 e0       	ldi	r18, 0x09	; 9
    16b8:	31 e0       	ldi	r19, 0x01	; 1
    16ba:	4b e0       	ldi	r20, 0x0B	; 11
    16bc:	51 e0       	ldi	r21, 0x01	; 1
    16be:	6a e0       	ldi	r22, 0x0A	; 10
    16c0:	71 e0       	ldi	r23, 0x01	; 1
    16c2:	e3 dc       	rcall	.-1594   	; 0x108a <_ZN6io_pinC1EPVhS1_S1_h9io_config>
    16c4:	df aa       	std	Y+55, r13	; 0x37
    16c6:	ce aa       	std	Y+54, r12	; 0x36
    16c8:	8a e0       	ldi	r24, 0x0A	; 10
    16ca:	90 e0       	ldi	r25, 0x00	; 0
    16cc:	73 d1       	rcall	.+742    	; 0x19b4 <_Znwj>
    16ce:	6c 01       	movw	r12, r24
    16d0:	02 e0       	ldi	r16, 0x02	; 2
    16d2:	29 e0       	ldi	r18, 0x09	; 9
    16d4:	31 e0       	ldi	r19, 0x01	; 1
    16d6:	4b e0       	ldi	r20, 0x0B	; 11
    16d8:	51 e0       	ldi	r21, 0x01	; 1
    16da:	6a e0       	ldi	r22, 0x0A	; 10
    16dc:	71 e0       	ldi	r23, 0x01	; 1
    16de:	d5 dc       	rcall	.-1622   	; 0x108a <_ZN6io_pinC1EPVhS1_S1_h9io_config>
    16e0:	d9 ae       	std	Y+57, r13	; 0x39
    16e2:	c8 ae       	std	Y+56, r12	; 0x38
    16e4:	8a e0       	ldi	r24, 0x0A	; 10
    16e6:	90 e0       	ldi	r25, 0x00	; 0
    16e8:	65 d1       	rcall	.+714    	; 0x19b4 <_Znwj>
    16ea:	6c 01       	movw	r12, r24
    16ec:	00 e0       	ldi	r16, 0x00	; 0
    16ee:	29 e0       	ldi	r18, 0x09	; 9
    16f0:	31 e0       	ldi	r19, 0x01	; 1
    16f2:	4b e0       	ldi	r20, 0x0B	; 11
    16f4:	51 e0       	ldi	r21, 0x01	; 1
    16f6:	6a e0       	ldi	r22, 0x0A	; 10
    16f8:	71 e0       	ldi	r23, 0x01	; 1
    16fa:	c7 dc       	rcall	.-1650   	; 0x108a <_ZN6io_pinC1EPVhS1_S1_h9io_config>
    16fc:	db ae       	std	Y+59, r13	; 0x3b
    16fe:	ca ae       	std	Y+58, r12	; 0x3a
    1700:	8a e0       	ldi	r24, 0x0A	; 10
    1702:	90 e0       	ldi	r25, 0x00	; 0
    1704:	57 d1       	rcall	.+686    	; 0x19b4 <_Znwj>
    1706:	6c 01       	movw	r12, r24
    1708:	02 e0       	ldi	r16, 0x02	; 2
    170a:	23 e2       	ldi	r18, 0x23	; 35
    170c:	30 e0       	ldi	r19, 0x00	; 0
    170e:	45 e2       	ldi	r20, 0x25	; 37
    1710:	50 e0       	ldi	r21, 0x00	; 0
    1712:	64 e2       	ldi	r22, 0x24	; 36
    1714:	70 e0       	ldi	r23, 0x00	; 0
    1716:	b9 dc       	rcall	.-1678   	; 0x108a <_ZN6io_pinC1EPVhS1_S1_h9io_config>
    1718:	dd ae       	std	Y+61, r13	; 0x3d
    171a:	cc ae       	std	Y+60, r12	; 0x3c
    171c:	8a e0       	ldi	r24, 0x0A	; 10
    171e:	90 e0       	ldi	r25, 0x00	; 0
    1720:	49 d1       	rcall	.+658    	; 0x19b4 <_Znwj>
    1722:	6c 01       	movw	r12, r24
    1724:	00 e0       	ldi	r16, 0x00	; 0
    1726:	23 e2       	ldi	r18, 0x23	; 35
    1728:	30 e0       	ldi	r19, 0x00	; 0
    172a:	45 e2       	ldi	r20, 0x25	; 37
    172c:	50 e0       	ldi	r21, 0x00	; 0
    172e:	64 e2       	ldi	r22, 0x24	; 36
    1730:	70 e0       	ldi	r23, 0x00	; 0
    1732:	ab dc       	rcall	.-1706   	; 0x108a <_ZN6io_pinC1EPVhS1_S1_h9io_config>
    1734:	df ae       	std	Y+63, r13	; 0x3f
    1736:	ce ae       	std	Y+62, r12	; 0x3e
    1738:	8a e0       	ldi	r24, 0x0A	; 10
    173a:	90 e0       	ldi	r25, 0x00	; 0
    173c:	3b d1       	rcall	.+630    	; 0x19b4 <_Znwj>
    173e:	ec 01       	movw	r28, r24
    1740:	05 e0       	ldi	r16, 0x05	; 5
    1742:	20 e0       	ldi	r18, 0x00	; 0
    1744:	31 e0       	ldi	r19, 0x01	; 1
    1746:	42 e0       	ldi	r20, 0x02	; 2
    1748:	51 e0       	ldi	r21, 0x01	; 1
    174a:	61 e0       	ldi	r22, 0x01	; 1
    174c:	71 e0       	ldi	r23, 0x01	; 1
    174e:	9d dc       	rcall	.-1734   	; 0x108a <_ZN6io_pinC1EPVhS1_S1_h9io_config>
    1750:	d0 93 47 02 	sts	0x0247, r29	; 0x800247 <__data_end+0x41>
    1754:	c0 93 46 02 	sts	0x0246, r28	; 0x800246 <__data_end+0x40>
    1758:	8a e0       	ldi	r24, 0x0A	; 10
    175a:	90 e0       	ldi	r25, 0x00	; 0
    175c:	2b d1       	rcall	.+598    	; 0x19b4 <_Znwj>
    175e:	ec 01       	movw	r28, r24
    1760:	06 e0       	ldi	r16, 0x06	; 6
    1762:	20 e0       	ldi	r18, 0x00	; 0
    1764:	31 e0       	ldi	r19, 0x01	; 1
    1766:	42 e0       	ldi	r20, 0x02	; 2
    1768:	51 e0       	ldi	r21, 0x01	; 1
    176a:	61 e0       	ldi	r22, 0x01	; 1
    176c:	71 e0       	ldi	r23, 0x01	; 1
    176e:	8d dc       	rcall	.-1766   	; 0x108a <_ZN6io_pinC1EPVhS1_S1_h9io_config>
    1770:	d0 93 49 02 	sts	0x0249, r29	; 0x800249 <__data_end+0x43>
    1774:	c0 93 48 02 	sts	0x0248, r28	; 0x800248 <__data_end+0x42>
    1778:	8a e0       	ldi	r24, 0x0A	; 10
    177a:	90 e0       	ldi	r25, 0x00	; 0
    177c:	1b d1       	rcall	.+566    	; 0x19b4 <_Znwj>
    177e:	ec 01       	movw	r28, r24
    1780:	04 e0       	ldi	r16, 0x04	; 4
    1782:	2c e2       	ldi	r18, 0x2C	; 44
    1784:	30 e0       	ldi	r19, 0x00	; 0
    1786:	4e e2       	ldi	r20, 0x2E	; 46
    1788:	50 e0       	ldi	r21, 0x00	; 0
    178a:	6d e2       	ldi	r22, 0x2D	; 45
    178c:	70 e0       	ldi	r23, 0x00	; 0
    178e:	7d dc       	rcall	.-1798   	; 0x108a <_ZN6io_pinC1EPVhS1_S1_h9io_config>
    1790:	d0 93 4b 02 	sts	0x024B, r29	; 0x80024b <__data_end+0x45>
    1794:	c0 93 4a 02 	sts	0x024A, r28	; 0x80024a <__data_end+0x44>
    1798:	8a e0       	ldi	r24, 0x0A	; 10
    179a:	90 e0       	ldi	r25, 0x00	; 0
    179c:	0b d1       	rcall	.+534    	; 0x19b4 <_Znwj>
    179e:	ec 01       	movw	r28, r24
    17a0:	05 e0       	ldi	r16, 0x05	; 5
    17a2:	2c e2       	ldi	r18, 0x2C	; 44
    17a4:	30 e0       	ldi	r19, 0x00	; 0
    17a6:	4e e2       	ldi	r20, 0x2E	; 46
    17a8:	50 e0       	ldi	r21, 0x00	; 0
    17aa:	6d e2       	ldi	r22, 0x2D	; 45
    17ac:	70 e0       	ldi	r23, 0x00	; 0
    17ae:	6d dc       	rcall	.-1830   	; 0x108a <_ZN6io_pinC1EPVhS1_S1_h9io_config>
    17b0:	d0 93 4d 02 	sts	0x024D, r29	; 0x80024d <__data_end+0x47>
    17b4:	c0 93 4c 02 	sts	0x024C, r28	; 0x80024c <__data_end+0x46>
    17b8:	8a e0       	ldi	r24, 0x0A	; 10
    17ba:	90 e0       	ldi	r25, 0x00	; 0
    17bc:	fb d0       	rcall	.+502    	; 0x19b4 <_Znwj>
    17be:	ec 01       	movw	r28, r24
    17c0:	22 e3       	ldi	r18, 0x32	; 50
    17c2:	30 e0       	ldi	r19, 0x00	; 0
    17c4:	44 e3       	ldi	r20, 0x34	; 52
    17c6:	50 e0       	ldi	r21, 0x00	; 0
    17c8:	63 e3       	ldi	r22, 0x33	; 51
    17ca:	70 e0       	ldi	r23, 0x00	; 0
    17cc:	5e dc       	rcall	.-1860   	; 0x108a <_ZN6io_pinC1EPVhS1_S1_h9io_config>
    17ce:	d0 93 4f 02 	sts	0x024F, r29	; 0x80024f <__data_end+0x49>
    17d2:	c0 93 4e 02 	sts	0x024E, r28	; 0x80024e <__data_end+0x48>
    17d6:	8a e0       	ldi	r24, 0x0A	; 10
    17d8:	90 e0       	ldi	r25, 0x00	; 0
    17da:	ec d0       	rcall	.+472    	; 0x19b4 <_Znwj>
    17dc:	ec 01       	movw	r28, r24
    17de:	03 e0       	ldi	r16, 0x03	; 3
    17e0:	2c e2       	ldi	r18, 0x2C	; 44
    17e2:	30 e0       	ldi	r19, 0x00	; 0
    17e4:	4e e2       	ldi	r20, 0x2E	; 46
    17e6:	50 e0       	ldi	r21, 0x00	; 0
    17e8:	6d e2       	ldi	r22, 0x2D	; 45
    17ea:	70 e0       	ldi	r23, 0x00	; 0
    17ec:	4e dc       	rcall	.-1892   	; 0x108a <_ZN6io_pinC1EPVhS1_S1_h9io_config>
    17ee:	d0 93 51 02 	sts	0x0251, r29	; 0x800251 <__data_end+0x4b>
    17f2:	c0 93 50 02 	sts	0x0250, r28	; 0x800250 <__data_end+0x4a>
    17f6:	8a e0       	ldi	r24, 0x0A	; 10
    17f8:	90 e0       	ldi	r25, 0x00	; 0
    17fa:	dc d0       	rcall	.+440    	; 0x19b4 <_Znwj>
    17fc:	ec 01       	movw	r28, r24
    17fe:	20 e0       	ldi	r18, 0x00	; 0
    1800:	31 e0       	ldi	r19, 0x01	; 1
    1802:	42 e0       	ldi	r20, 0x02	; 2
    1804:	51 e0       	ldi	r21, 0x01	; 1
    1806:	61 e0       	ldi	r22, 0x01	; 1
    1808:	71 e0       	ldi	r23, 0x01	; 1
    180a:	3f dc       	rcall	.-1922   	; 0x108a <_ZN6io_pinC1EPVhS1_S1_h9io_config>
    180c:	d0 93 53 02 	sts	0x0253, r29	; 0x800253 <__data_end+0x4d>
    1810:	c0 93 52 02 	sts	0x0252, r28	; 0x800252 <__data_end+0x4c>
    1814:	8a e0       	ldi	r24, 0x0A	; 10
    1816:	90 e0       	ldi	r25, 0x00	; 0
    1818:	cd d0       	rcall	.+410    	; 0x19b4 <_Znwj>
    181a:	ec 01       	movw	r28, r24
    181c:	04 e0       	ldi	r16, 0x04	; 4
    181e:	20 e0       	ldi	r18, 0x00	; 0
    1820:	31 e0       	ldi	r19, 0x01	; 1
    1822:	42 e0       	ldi	r20, 0x02	; 2
    1824:	51 e0       	ldi	r21, 0x01	; 1
    1826:	61 e0       	ldi	r22, 0x01	; 1
    1828:	71 e0       	ldi	r23, 0x01	; 1
    182a:	2f dc       	rcall	.-1954   	; 0x108a <_ZN6io_pinC1EPVhS1_S1_h9io_config>
    182c:	d0 93 55 02 	sts	0x0255, r29	; 0x800255 <__data_end+0x4f>
    1830:	c0 93 54 02 	sts	0x0254, r28	; 0x800254 <__data_end+0x4e>
    1834:	df 91       	pop	r29
    1836:	cf 91       	pop	r28
    1838:	0f 91       	pop	r16
    183a:	ef 90       	pop	r14
    183c:	df 90       	pop	r13
    183e:	cf 90       	pop	r12
    1840:	08 95       	ret

00001842 <main>:
    1842:	cf 93       	push	r28
    1844:	df 93       	push	r29
    1846:	1f 92       	push	r1
    1848:	1f 92       	push	r1
    184a:	cd b7       	in	r28, 0x3d	; 61
    184c:	de b7       	in	r29, 0x3e	; 62
    184e:	14 be       	out	0x34, r1	; 52
    1850:	0f b6       	in	r0, 0x3f	; 63
    1852:	f8 94       	cli
    1854:	a8 95       	wdr
    1856:	80 91 60 00 	lds	r24, 0x0060	; 0x800060 <__TEXT_REGION_LENGTH__+0x700060>
    185a:	88 61       	ori	r24, 0x18	; 24
    185c:	80 93 60 00 	sts	0x0060, r24	; 0x800060 <__TEXT_REGION_LENGTH__+0x700060>
    1860:	10 92 60 00 	sts	0x0060, r1	; 0x800060 <__TEXT_REGION_LENGTH__+0x700060>
    1864:	0f be       	out	0x3f, r0	; 63
    1866:	27 9a       	sbi	0x04, 7	; 4
    1868:	9d dd       	rcall	.-1222   	; 0x13a4 <_Z7init_iov>
    186a:	84 e6       	ldi	r24, 0x64	; 100
    186c:	90 e0       	ldi	r25, 0x00	; 0
    186e:	90 93 99 00 	sts	0x0099, r25	; 0x800099 <__TEXT_REGION_LENGTH__+0x700099>
    1872:	80 93 98 00 	sts	0x0098, r24	; 0x800098 <__TEXT_REGION_LENGTH__+0x700098>
    1876:	82 e0       	ldi	r24, 0x02	; 2
    1878:	80 93 71 00 	sts	0x0071, r24	; 0x800071 <__TEXT_REGION_LENGTH__+0x700071>
    187c:	8c e0       	ldi	r24, 0x0C	; 12
    187e:	80 93 91 00 	sts	0x0091, r24	; 0x800091 <__TEXT_REGION_LENGTH__+0x700091>
    1882:	d7 d1       	rcall	.+942    	; 0x1c32 <_Z10init_UART0v>
    1884:	e2 d1       	rcall	.+964    	; 0x1c4a <_Z10init_UART1v>
    1886:	87 ef       	ldi	r24, 0xF7	; 247
    1888:	89 83       	std	Y+1, r24	; 0x01
    188a:	82 e1       	ldi	r24, 0x12	; 18
    188c:	8a 83       	std	Y+2, r24	; 0x02
    188e:	62 e0       	ldi	r22, 0x02	; 2
    1890:	ce 01       	movw	r24, r28
    1892:	01 96       	adiw	r24, 0x01	; 1
    1894:	2d d2       	rcall	.+1114   	; 0x1cf0 <_Z11serial_out0Phh>
    1896:	78 94       	sei
    1898:	86 e5       	ldi	r24, 0x56	; 86
    189a:	92 e0       	ldi	r25, 0x02	; 2
    189c:	6a db       	rcall	.-2348   	; 0xf72 <_ZNV9cmdParser11checkparserEv>
    189e:	fc cf       	rjmp	.-8      	; 0x1898 <main+0x56>

000018a0 <__vector_32>:
    18a0:	1f 92       	push	r1
    18a2:	0f 92       	push	r0
    18a4:	0f b6       	in	r0, 0x3f	; 63
    18a6:	0f 92       	push	r0
    18a8:	11 24       	eor	r1, r1
    18aa:	0b b6       	in	r0, 0x3b	; 59
    18ac:	0f 92       	push	r0
    18ae:	2f 93       	push	r18
    18b0:	3f 93       	push	r19
    18b2:	4f 93       	push	r20
    18b4:	5f 93       	push	r21
    18b6:	6f 93       	push	r22
    18b8:	7f 93       	push	r23
    18ba:	8f 93       	push	r24
    18bc:	9f 93       	push	r25
    18be:	af 93       	push	r26
    18c0:	bf 93       	push	r27
    18c2:	cf 93       	push	r28
    18c4:	df 93       	push	r29
    18c6:	ef 93       	push	r30
    18c8:	ff 93       	push	r31
    18ca:	c6 e0       	ldi	r28, 0x06	; 6
    18cc:	d2 e0       	ldi	r29, 0x02	; 2
    18ce:	89 91       	ld	r24, Y+
    18d0:	99 91       	ld	r25, Y+
    18d2:	15 dd       	rcall	.-1494   	; 0x12fe <_ZNV6io_pin7triggerEv>
    18d4:	82 e0       	ldi	r24, 0x02	; 2
    18d6:	c4 35       	cpi	r28, 0x54	; 84
    18d8:	d8 07       	cpc	r29, r24
    18da:	c9 f7       	brne	.-14     	; 0x18ce <__vector_32+0x2e>
    18dc:	ff 91       	pop	r31
    18de:	ef 91       	pop	r30
    18e0:	df 91       	pop	r29
    18e2:	cf 91       	pop	r28
    18e4:	bf 91       	pop	r27
    18e6:	af 91       	pop	r26
    18e8:	9f 91       	pop	r25
    18ea:	8f 91       	pop	r24
    18ec:	7f 91       	pop	r23
    18ee:	6f 91       	pop	r22
    18f0:	5f 91       	pop	r21
    18f2:	4f 91       	pop	r20
    18f4:	3f 91       	pop	r19
    18f6:	2f 91       	pop	r18
    18f8:	0f 90       	pop	r0
    18fa:	0b be       	out	0x3b, r0	; 59
    18fc:	0f 90       	pop	r0
    18fe:	0f be       	out	0x3f, r0	; 63
    1900:	0f 90       	pop	r0
    1902:	1f 90       	pop	r1
    1904:	18 95       	reti

00001906 <__vector_29>:
    1906:	1f 92       	push	r1
    1908:	0f 92       	push	r0
    190a:	0f b6       	in	r0, 0x3f	; 63
    190c:	0f 92       	push	r0
    190e:	11 24       	eor	r1, r1
    1910:	0b b6       	in	r0, 0x3b	; 59
    1912:	0f 92       	push	r0
    1914:	2f 93       	push	r18
    1916:	3f 93       	push	r19
    1918:	4f 93       	push	r20
    191a:	5f 93       	push	r21
    191c:	6f 93       	push	r22
    191e:	7f 93       	push	r23
    1920:	8f 93       	push	r24
    1922:	9f 93       	push	r25
    1924:	af 93       	push	r26
    1926:	bf 93       	push	r27
    1928:	ef 93       	push	r30
    192a:	ff 93       	push	r31
    192c:	88 e5       	ldi	r24, 0x58	; 88
    192e:	92 e0       	ldi	r25, 0x02	; 2
    1930:	0e d8       	rcall	.-4068   	; 0x94e <_ZNV22AnalogDigitalConverter6sampleEv>
    1932:	ff 91       	pop	r31
    1934:	ef 91       	pop	r30
    1936:	bf 91       	pop	r27
    1938:	af 91       	pop	r26
    193a:	9f 91       	pop	r25
    193c:	8f 91       	pop	r24
    193e:	7f 91       	pop	r23
    1940:	6f 91       	pop	r22
    1942:	5f 91       	pop	r21
    1944:	4f 91       	pop	r20
    1946:	3f 91       	pop	r19
    1948:	2f 91       	pop	r18
    194a:	0f 90       	pop	r0
    194c:	0b be       	out	0x3b, r0	; 59
    194e:	0f 90       	pop	r0
    1950:	0f be       	out	0x3f, r0	; 63
    1952:	0f 90       	pop	r0
    1954:	1f 90       	pop	r1
    1956:	18 95       	reti

00001958 <_Z7freeRamv>:
    1958:	cf 93       	push	r28
    195a:	df 93       	push	r29
    195c:	1f 92       	push	r1
    195e:	1f 92       	push	r1
    1960:	cd b7       	in	r28, 0x3d	; 61
    1962:	de b7       	in	r29, 0x3e	; 62
    1964:	80 91 2b 05 	lds	r24, 0x052B	; 0x80052b <__brkval>
    1968:	90 91 2c 05 	lds	r25, 0x052C	; 0x80052c <__brkval+0x1>
    196c:	00 97       	sbiw	r24, 0x00	; 0
    196e:	51 f0       	breq	.+20     	; 0x1984 <_Z7freeRamv+0x2c>
    1970:	9c 01       	movw	r18, r24
    1972:	ce 01       	movw	r24, r28
    1974:	01 96       	adiw	r24, 0x01	; 1
    1976:	82 1b       	sub	r24, r18
    1978:	93 0b       	sbc	r25, r19
    197a:	0f 90       	pop	r0
    197c:	0f 90       	pop	r0
    197e:	df 91       	pop	r29
    1980:	cf 91       	pop	r28
    1982:	08 95       	ret
    1984:	2f e2       	ldi	r18, 0x2F	; 47
    1986:	35 e0       	ldi	r19, 0x05	; 5
    1988:	f4 cf       	rjmp	.-24     	; 0x1972 <_Z7freeRamv+0x1a>

0000198a <_GLOBAL__sub_I_myADC>:
    198a:	88 e5       	ldi	r24, 0x58	; 88
    198c:	92 e0       	ldi	r25, 0x02	; 2
    198e:	0e 94 0e 04 	call	0x81c	; 0x81c <_ZN22AnalogDigitalConverterC1Ev>
    1992:	86 e5       	ldi	r24, 0x56	; 86
    1994:	92 e0       	ldi	r25, 0x02	; 2
    1996:	e9 ca       	rjmp	.-2606   	; 0xf6a <_ZN9cmdParserC1Ev>

00001998 <_GLOBAL__sub_D_myADC>:
    1998:	cf 93       	push	r28
    199a:	df 93       	push	r29
    199c:	c0 ec       	ldi	r28, 0xC0	; 192
    199e:	d3 e0       	ldi	r29, 0x03	; 3
    19a0:	ce 01       	movw	r24, r28
    19a2:	43 d1       	rcall	.+646    	; 0x1c2a <_ZN10iirlowpassD1Ev>
    19a4:	68 97       	sbiw	r28, 0x18	; 24
    19a6:	82 e0       	ldi	r24, 0x02	; 2
    19a8:	c0 34       	cpi	r28, 0x40	; 64
    19aa:	d8 07       	cpc	r29, r24
    19ac:	c9 f7       	brne	.-14     	; 0x19a0 <_GLOBAL__sub_D_myADC+0x8>
    19ae:	df 91       	pop	r29
    19b0:	cf 91       	pop	r28
    19b2:	08 95       	ret

000019b4 <_Znwj>:
    19b4:	e9 c1       	rjmp	.+978    	; 0x1d88 <malloc>

000019b6 <_ZNV10iirlowpass6sampleEi>:
    19b6:	cf 92       	push	r12
    19b8:	df 92       	push	r13
    19ba:	ef 92       	push	r14
    19bc:	ff 92       	push	r15
    19be:	cf 93       	push	r28
    19c0:	df 93       	push	r29
    19c2:	fc 01       	movw	r30, r24
    19c4:	a6 89       	ldd	r26, Z+22	; 0x16
    19c6:	b7 89       	ldd	r27, Z+23	; 0x17
    19c8:	c6 89       	ldd	r28, Z+22	; 0x16
    19ca:	d7 89       	ldd	r29, Z+23	; 0x17
    19cc:	8a 89       	ldd	r24, Y+18	; 0x12
    19ce:	9b 89       	ldd	r25, Y+19	; 0x13
    19d0:	55 96       	adiw	r26, 0x15	; 21
    19d2:	9c 93       	st	X, r25
    19d4:	8e 93       	st	-X, r24
    19d6:	54 97       	sbiw	r26, 0x14	; 20
    19d8:	a6 89       	ldd	r26, Z+22	; 0x16
    19da:	b7 89       	ldd	r27, Z+23	; 0x17
    19dc:	c6 89       	ldd	r28, Z+22	; 0x16
    19de:	d7 89       	ldd	r29, Z+23	; 0x17
    19e0:	88 89       	ldd	r24, Y+16	; 0x10
    19e2:	99 89       	ldd	r25, Y+17	; 0x11
    19e4:	53 96       	adiw	r26, 0x13	; 19
    19e6:	9c 93       	st	X, r25
    19e8:	8e 93       	st	-X, r24
    19ea:	52 97       	sbiw	r26, 0x12	; 18
    19ec:	a6 89       	ldd	r26, Z+22	; 0x16
    19ee:	b7 89       	ldd	r27, Z+23	; 0x17
    19f0:	c6 89       	ldd	r28, Z+22	; 0x16
    19f2:	d7 89       	ldd	r29, Z+23	; 0x17
    19f4:	8e 85       	ldd	r24, Y+14	; 0x0e
    19f6:	9f 85       	ldd	r25, Y+15	; 0x0f
    19f8:	51 96       	adiw	r26, 0x11	; 17
    19fa:	9c 93       	st	X, r25
    19fc:	8e 93       	st	-X, r24
    19fe:	50 97       	sbiw	r26, 0x10	; 16
    1a00:	a6 89       	ldd	r26, Z+22	; 0x16
    1a02:	b7 89       	ldd	r27, Z+23	; 0x17
    1a04:	c6 89       	ldd	r28, Z+22	; 0x16
    1a06:	d7 89       	ldd	r29, Z+23	; 0x17
    1a08:	8c 85       	ldd	r24, Y+12	; 0x0c
    1a0a:	9d 85       	ldd	r25, Y+13	; 0x0d
    1a0c:	1f 96       	adiw	r26, 0x0f	; 15
    1a0e:	9c 93       	st	X, r25
    1a10:	8e 93       	st	-X, r24
    1a12:	1e 97       	sbiw	r26, 0x0e	; 14
    1a14:	a6 89       	ldd	r26, Z+22	; 0x16
    1a16:	b7 89       	ldd	r27, Z+23	; 0x17
    1a18:	c6 89       	ldd	r28, Z+22	; 0x16
    1a1a:	d7 89       	ldd	r29, Z+23	; 0x17
    1a1c:	8a 85       	ldd	r24, Y+10	; 0x0a
    1a1e:	9b 85       	ldd	r25, Y+11	; 0x0b
    1a20:	1d 96       	adiw	r26, 0x0d	; 13
    1a22:	9c 93       	st	X, r25
    1a24:	8e 93       	st	-X, r24
    1a26:	1c 97       	sbiw	r26, 0x0c	; 12
    1a28:	a6 89       	ldd	r26, Z+22	; 0x16
    1a2a:	b7 89       	ldd	r27, Z+23	; 0x17
    1a2c:	c6 89       	ldd	r28, Z+22	; 0x16
    1a2e:	d7 89       	ldd	r29, Z+23	; 0x17
    1a30:	88 85       	ldd	r24, Y+8	; 0x08
    1a32:	99 85       	ldd	r25, Y+9	; 0x09
    1a34:	1b 96       	adiw	r26, 0x0b	; 11
    1a36:	9c 93       	st	X, r25
    1a38:	8e 93       	st	-X, r24
    1a3a:	1a 97       	sbiw	r26, 0x0a	; 10
    1a3c:	a6 89       	ldd	r26, Z+22	; 0x16
    1a3e:	b7 89       	ldd	r27, Z+23	; 0x17
    1a40:	c6 89       	ldd	r28, Z+22	; 0x16
    1a42:	d7 89       	ldd	r29, Z+23	; 0x17
    1a44:	8e 81       	ldd	r24, Y+6	; 0x06
    1a46:	9f 81       	ldd	r25, Y+7	; 0x07
    1a48:	19 96       	adiw	r26, 0x09	; 9
    1a4a:	9c 93       	st	X, r25
    1a4c:	8e 93       	st	-X, r24
    1a4e:	18 97       	sbiw	r26, 0x08	; 8
    1a50:	a6 89       	ldd	r26, Z+22	; 0x16
    1a52:	b7 89       	ldd	r27, Z+23	; 0x17
    1a54:	c6 89       	ldd	r28, Z+22	; 0x16
    1a56:	d7 89       	ldd	r29, Z+23	; 0x17
    1a58:	8c 81       	ldd	r24, Y+4	; 0x04
    1a5a:	9d 81       	ldd	r25, Y+5	; 0x05
    1a5c:	17 96       	adiw	r26, 0x07	; 7
    1a5e:	9c 93       	st	X, r25
    1a60:	8e 93       	st	-X, r24
    1a62:	16 97       	sbiw	r26, 0x06	; 6
    1a64:	a6 89       	ldd	r26, Z+22	; 0x16
    1a66:	b7 89       	ldd	r27, Z+23	; 0x17
    1a68:	c6 89       	ldd	r28, Z+22	; 0x16
    1a6a:	d7 89       	ldd	r29, Z+23	; 0x17
    1a6c:	8a 81       	ldd	r24, Y+2	; 0x02
    1a6e:	9b 81       	ldd	r25, Y+3	; 0x03
    1a70:	15 96       	adiw	r26, 0x05	; 5
    1a72:	9c 93       	st	X, r25
    1a74:	8e 93       	st	-X, r24
    1a76:	14 97       	sbiw	r26, 0x04	; 4
    1a78:	a6 89       	ldd	r26, Z+22	; 0x16
    1a7a:	b7 89       	ldd	r27, Z+23	; 0x17
    1a7c:	c6 89       	ldd	r28, Z+22	; 0x16
    1a7e:	d7 89       	ldd	r29, Z+23	; 0x17
    1a80:	88 81       	ld	r24, Y
    1a82:	99 81       	ldd	r25, Y+1	; 0x01
    1a84:	13 96       	adiw	r26, 0x03	; 3
    1a86:	9c 93       	st	X, r25
    1a88:	8e 93       	st	-X, r24
    1a8a:	12 97       	sbiw	r26, 0x02	; 2
    1a8c:	a6 89       	ldd	r26, Z+22	; 0x16
    1a8e:	b7 89       	ldd	r27, Z+23	; 0x17
    1a90:	6d 93       	st	X+, r22
    1a92:	7c 93       	st	X, r23
    1a94:	20 81       	ld	r18, Z
    1a96:	31 81       	ldd	r19, Z+1	; 0x01
    1a98:	a6 89       	ldd	r26, Z+22	; 0x16
    1a9a:	b7 89       	ldd	r27, Z+23	; 0x17
    1a9c:	6d 91       	ld	r22, X+
    1a9e:	7c 91       	ld	r23, X
    1aa0:	c2 81       	ldd	r28, Z+2	; 0x02
    1aa2:	d3 81       	ldd	r29, Z+3	; 0x03
    1aa4:	86 89       	ldd	r24, Z+22	; 0x16
    1aa6:	97 89       	ldd	r25, Z+23	; 0x17
    1aa8:	dc 01       	movw	r26, r24
    1aaa:	12 96       	adiw	r26, 0x02	; 2
    1aac:	4d 91       	ld	r20, X+
    1aae:	5c 91       	ld	r21, X
    1ab0:	13 97       	sbiw	r26, 0x03	; 3
    1ab2:	db 01       	movw	r26, r22
    1ab4:	4e d1       	rcall	.+668    	; 0x1d52 <__mulhisi3>
    1ab6:	6b 01       	movw	r12, r22
    1ab8:	7c 01       	movw	r14, r24
    1aba:	9e 01       	movw	r18, r28
    1abc:	da 01       	movw	r26, r20
    1abe:	49 d1       	rcall	.+658    	; 0x1d52 <__mulhisi3>
    1ac0:	c6 0e       	add	r12, r22
    1ac2:	d7 1e       	adc	r13, r23
    1ac4:	e8 1e       	adc	r14, r24
    1ac6:	f9 1e       	adc	r15, r25
    1ac8:	24 81       	ldd	r18, Z+4	; 0x04
    1aca:	35 81       	ldd	r19, Z+5	; 0x05
    1acc:	a6 89       	ldd	r26, Z+22	; 0x16
    1ace:	b7 89       	ldd	r27, Z+23	; 0x17
    1ad0:	14 96       	adiw	r26, 0x04	; 4
    1ad2:	0d 90       	ld	r0, X+
    1ad4:	bc 91       	ld	r27, X
    1ad6:	a0 2d       	mov	r26, r0
    1ad8:	3c d1       	rcall	.+632    	; 0x1d52 <__mulhisi3>
    1ada:	c6 0e       	add	r12, r22
    1adc:	d7 1e       	adc	r13, r23
    1ade:	e8 1e       	adc	r14, r24
    1ae0:	f9 1e       	adc	r15, r25
    1ae2:	26 81       	ldd	r18, Z+6	; 0x06
    1ae4:	37 81       	ldd	r19, Z+7	; 0x07
    1ae6:	a6 89       	ldd	r26, Z+22	; 0x16
    1ae8:	b7 89       	ldd	r27, Z+23	; 0x17
    1aea:	16 96       	adiw	r26, 0x06	; 6
    1aec:	0d 90       	ld	r0, X+
    1aee:	bc 91       	ld	r27, X
    1af0:	a0 2d       	mov	r26, r0
    1af2:	2f d1       	rcall	.+606    	; 0x1d52 <__mulhisi3>
    1af4:	c6 0e       	add	r12, r22
    1af6:	d7 1e       	adc	r13, r23
    1af8:	e8 1e       	adc	r14, r24
    1afa:	f9 1e       	adc	r15, r25
    1afc:	20 85       	ldd	r18, Z+8	; 0x08
    1afe:	31 85       	ldd	r19, Z+9	; 0x09
    1b00:	a6 89       	ldd	r26, Z+22	; 0x16
    1b02:	b7 89       	ldd	r27, Z+23	; 0x17
    1b04:	18 96       	adiw	r26, 0x08	; 8
    1b06:	0d 90       	ld	r0, X+
    1b08:	bc 91       	ld	r27, X
    1b0a:	a0 2d       	mov	r26, r0
    1b0c:	22 d1       	rcall	.+580    	; 0x1d52 <__mulhisi3>
    1b0e:	c6 0e       	add	r12, r22
    1b10:	d7 1e       	adc	r13, r23
    1b12:	e8 1e       	adc	r14, r24
    1b14:	f9 1e       	adc	r15, r25
    1b16:	22 85       	ldd	r18, Z+10	; 0x0a
    1b18:	33 85       	ldd	r19, Z+11	; 0x0b
    1b1a:	a6 89       	ldd	r26, Z+22	; 0x16
    1b1c:	b7 89       	ldd	r27, Z+23	; 0x17
    1b1e:	1a 96       	adiw	r26, 0x0a	; 10
    1b20:	0d 90       	ld	r0, X+
    1b22:	bc 91       	ld	r27, X
    1b24:	a0 2d       	mov	r26, r0
    1b26:	15 d1       	rcall	.+554    	; 0x1d52 <__mulhisi3>
    1b28:	c6 0e       	add	r12, r22
    1b2a:	d7 1e       	adc	r13, r23
    1b2c:	e8 1e       	adc	r14, r24
    1b2e:	f9 1e       	adc	r15, r25
    1b30:	24 85       	ldd	r18, Z+12	; 0x0c
    1b32:	35 85       	ldd	r19, Z+13	; 0x0d
    1b34:	a6 89       	ldd	r26, Z+22	; 0x16
    1b36:	b7 89       	ldd	r27, Z+23	; 0x17
    1b38:	1c 96       	adiw	r26, 0x0c	; 12
    1b3a:	0d 90       	ld	r0, X+
    1b3c:	bc 91       	ld	r27, X
    1b3e:	a0 2d       	mov	r26, r0
    1b40:	08 d1       	rcall	.+528    	; 0x1d52 <__mulhisi3>
    1b42:	c6 0e       	add	r12, r22
    1b44:	d7 1e       	adc	r13, r23
    1b46:	e8 1e       	adc	r14, r24
    1b48:	f9 1e       	adc	r15, r25
    1b4a:	26 85       	ldd	r18, Z+14	; 0x0e
    1b4c:	37 85       	ldd	r19, Z+15	; 0x0f
    1b4e:	a6 89       	ldd	r26, Z+22	; 0x16
    1b50:	b7 89       	ldd	r27, Z+23	; 0x17
    1b52:	1e 96       	adiw	r26, 0x0e	; 14
    1b54:	0d 90       	ld	r0, X+
    1b56:	bc 91       	ld	r27, X
    1b58:	a0 2d       	mov	r26, r0
    1b5a:	fb d0       	rcall	.+502    	; 0x1d52 <__mulhisi3>
    1b5c:	c6 0e       	add	r12, r22
    1b5e:	d7 1e       	adc	r13, r23
    1b60:	e8 1e       	adc	r14, r24
    1b62:	f9 1e       	adc	r15, r25
    1b64:	20 89       	ldd	r18, Z+16	; 0x10
    1b66:	31 89       	ldd	r19, Z+17	; 0x11
    1b68:	a6 89       	ldd	r26, Z+22	; 0x16
    1b6a:	b7 89       	ldd	r27, Z+23	; 0x17
    1b6c:	50 96       	adiw	r26, 0x10	; 16
    1b6e:	0d 90       	ld	r0, X+
    1b70:	bc 91       	ld	r27, X
    1b72:	a0 2d       	mov	r26, r0
    1b74:	ee d0       	rcall	.+476    	; 0x1d52 <__mulhisi3>
    1b76:	c6 0e       	add	r12, r22
    1b78:	d7 1e       	adc	r13, r23
    1b7a:	e8 1e       	adc	r14, r24
    1b7c:	f9 1e       	adc	r15, r25
    1b7e:	22 89       	ldd	r18, Z+18	; 0x12
    1b80:	33 89       	ldd	r19, Z+19	; 0x13
    1b82:	a6 89       	ldd	r26, Z+22	; 0x16
    1b84:	b7 89       	ldd	r27, Z+23	; 0x17
    1b86:	52 96       	adiw	r26, 0x12	; 18
    1b88:	0d 90       	ld	r0, X+
    1b8a:	bc 91       	ld	r27, X
    1b8c:	a0 2d       	mov	r26, r0
    1b8e:	e1 d0       	rcall	.+450    	; 0x1d52 <__mulhisi3>
    1b90:	c6 0e       	add	r12, r22
    1b92:	d7 1e       	adc	r13, r23
    1b94:	e8 1e       	adc	r14, r24
    1b96:	f9 1e       	adc	r15, r25
    1b98:	24 89       	ldd	r18, Z+20	; 0x14
    1b9a:	35 89       	ldd	r19, Z+21	; 0x15
    1b9c:	06 88       	ldd	r0, Z+22	; 0x16
    1b9e:	f7 89       	ldd	r31, Z+23	; 0x17
    1ba0:	e0 2d       	mov	r30, r0
    1ba2:	a4 89       	ldd	r26, Z+20	; 0x14
    1ba4:	b5 89       	ldd	r27, Z+21	; 0x15
    1ba6:	d5 d0       	rcall	.+426    	; 0x1d52 <__mulhisi3>
    1ba8:	dc 01       	movw	r26, r24
    1baa:	cb 01       	movw	r24, r22
    1bac:	8c 0d       	add	r24, r12
    1bae:	9d 1d       	adc	r25, r13
    1bb0:	ae 1d       	adc	r26, r14
    1bb2:	bf 1d       	adc	r27, r15
    1bb4:	22 e1       	ldi	r18, 0x12	; 18
    1bb6:	b5 95       	asr	r27
    1bb8:	a7 95       	ror	r26
    1bba:	97 95       	ror	r25
    1bbc:	87 95       	ror	r24
    1bbe:	2a 95       	dec	r18
    1bc0:	d1 f7       	brne	.-12     	; 0x1bb6 <_ZNV10iirlowpass6sampleEi+0x200>
    1bc2:	df 91       	pop	r29
    1bc4:	cf 91       	pop	r28
    1bc6:	ff 90       	pop	r15
    1bc8:	ef 90       	pop	r14
    1bca:	df 90       	pop	r13
    1bcc:	cf 90       	pop	r12
    1bce:	08 95       	ret

00001bd0 <_ZN10iirlowpassC1Ev>:
    1bd0:	cf 93       	push	r28
    1bd2:	df 93       	push	r29
    1bd4:	ec 01       	movw	r28, r24
    1bd6:	8c ef       	ldi	r24, 0xFC	; 252
    1bd8:	98 e5       	ldi	r25, 0x58	; 88
    1bda:	99 83       	std	Y+1, r25	; 0x01
    1bdc:	88 83       	st	Y, r24
    1bde:	2a e6       	ldi	r18, 0x6A	; 106
    1be0:	3b e5       	ldi	r19, 0x5B	; 91
    1be2:	3b 83       	std	Y+3, r19	; 0x03
    1be4:	2a 83       	std	Y+2, r18	; 0x02
    1be6:	48 e5       	ldi	r20, 0x58	; 88
    1be8:	5d e5       	ldi	r21, 0x5D	; 93
    1bea:	5d 83       	std	Y+5, r21	; 0x05
    1bec:	4c 83       	std	Y+4, r20	; 0x04
    1bee:	6c eb       	ldi	r22, 0xBC	; 188
    1bf0:	7e e5       	ldi	r23, 0x5E	; 94
    1bf2:	7f 83       	std	Y+7, r23	; 0x07
    1bf4:	6e 83       	std	Y+6, r22	; 0x06
    1bf6:	e5 e9       	ldi	r30, 0x95	; 149
    1bf8:	ff e5       	ldi	r31, 0x5F	; 95
    1bfa:	f9 87       	std	Y+9, r31	; 0x09
    1bfc:	e8 87       	std	Y+8, r30	; 0x08
    1bfe:	ad ed       	ldi	r26, 0xDD	; 221
    1c00:	bf e5       	ldi	r27, 0x5F	; 95
    1c02:	bb 87       	std	Y+11, r27	; 0x0b
    1c04:	aa 87       	std	Y+10, r26	; 0x0a
    1c06:	fd 87       	std	Y+13, r31	; 0x0d
    1c08:	ec 87       	std	Y+12, r30	; 0x0c
    1c0a:	7f 87       	std	Y+15, r23	; 0x0f
    1c0c:	6e 87       	std	Y+14, r22	; 0x0e
    1c0e:	59 8b       	std	Y+17, r21	; 0x11
    1c10:	48 8b       	std	Y+16, r20	; 0x10
    1c12:	3b 8b       	std	Y+19, r19	; 0x13
    1c14:	2a 8b       	std	Y+18, r18	; 0x12
    1c16:	9d 8b       	std	Y+21, r25	; 0x15
    1c18:	8c 8b       	std	Y+20, r24	; 0x14
    1c1a:	86 e1       	ldi	r24, 0x16	; 22
    1c1c:	90 e0       	ldi	r25, 0x00	; 0
    1c1e:	b4 d0       	rcall	.+360    	; 0x1d88 <malloc>
    1c20:	9f 8b       	std	Y+23, r25	; 0x17
    1c22:	8e 8b       	std	Y+22, r24	; 0x16
    1c24:	df 91       	pop	r29
    1c26:	cf 91       	pop	r28
    1c28:	08 95       	ret

00001c2a <_ZN10iirlowpassD1Ev>:
    1c2a:	fc 01       	movw	r30, r24
    1c2c:	86 89       	ldd	r24, Z+22	; 0x16
    1c2e:	97 89       	ldd	r25, Z+23	; 0x17
    1c30:	43 c1       	rjmp	.+646    	; 0x1eb8 <free>

00001c32 <_Z10init_UART0v>:
    1c32:	10 92 c5 00 	sts	0x00C5, r1	; 0x8000c5 <__TEXT_REGION_LENGTH__+0x7000c5>
    1c36:	80 e1       	ldi	r24, 0x10	; 16
    1c38:	80 93 c4 00 	sts	0x00C4, r24	; 0x8000c4 <__TEXT_REGION_LENGTH__+0x7000c4>
    1c3c:	88 e9       	ldi	r24, 0x98	; 152
    1c3e:	80 93 c1 00 	sts	0x00C1, r24	; 0x8000c1 <__TEXT_REGION_LENGTH__+0x7000c1>
    1c42:	86 e0       	ldi	r24, 0x06	; 6
    1c44:	80 93 c2 00 	sts	0x00C2, r24	; 0x8000c2 <__TEXT_REGION_LENGTH__+0x7000c2>
    1c48:	08 95       	ret

00001c4a <_Z10init_UART1v>:
    1c4a:	10 92 cd 00 	sts	0x00CD, r1	; 0x8000cd <__TEXT_REGION_LENGTH__+0x7000cd>
    1c4e:	83 e3       	ldi	r24, 0x33	; 51
    1c50:	80 93 cc 00 	sts	0x00CC, r24	; 0x8000cc <__TEXT_REGION_LENGTH__+0x7000cc>
    1c54:	88 e9       	ldi	r24, 0x98	; 152
    1c56:	80 93 c9 00 	sts	0x00C9, r24	; 0x8000c9 <__TEXT_REGION_LENGTH__+0x7000c9>
    1c5a:	86 e0       	ldi	r24, 0x06	; 6
    1c5c:	80 93 ca 00 	sts	0x00CA, r24	; 0x8000ca <__TEXT_REGION_LENGTH__+0x7000ca>
    1c60:	08 95       	ret

00001c62 <__vector_25>:
    1c62:	1f 92       	push	r1
    1c64:	0f 92       	push	r0
    1c66:	0f b6       	in	r0, 0x3f	; 63
    1c68:	0f 92       	push	r0
    1c6a:	11 24       	eor	r1, r1
    1c6c:	0b b6       	in	r0, 0x3b	; 59
    1c6e:	0f 92       	push	r0
    1c70:	2f 93       	push	r18
    1c72:	3f 93       	push	r19
    1c74:	4f 93       	push	r20
    1c76:	5f 93       	push	r21
    1c78:	6f 93       	push	r22
    1c7a:	7f 93       	push	r23
    1c7c:	8f 93       	push	r24
    1c7e:	9f 93       	push	r25
    1c80:	af 93       	push	r26
    1c82:	bf 93       	push	r27
    1c84:	ef 93       	push	r30
    1c86:	ff 93       	push	r31
    1c88:	90 91 c6 00 	lds	r25, 0x00C6	; 0x8000c6 <__TEXT_REGION_LENGTH__+0x7000c6>
    1c8c:	e0 91 2a 04 	lds	r30, 0x042A	; 0x80042a <InBufferUart0pointer>
    1c90:	f0 e0       	ldi	r31, 0x00	; 0
    1c92:	e5 5d       	subi	r30, 0xD5	; 213
    1c94:	fb 4f       	sbci	r31, 0xFB	; 251
    1c96:	90 83       	st	Z, r25
    1c98:	80 91 2a 04 	lds	r24, 0x042A	; 0x80042a <InBufferUart0pointer>
    1c9c:	8f 5f       	subi	r24, 0xFF	; 255
    1c9e:	80 93 2a 04 	sts	0x042A, r24	; 0x80042a <InBufferUart0pointer>
    1ca2:	92 31       	cpi	r25, 0x12	; 18
    1ca4:	99 f0       	breq	.+38     	; 0x1ccc <__vector_25+0x6a>
    1ca6:	ff 91       	pop	r31
    1ca8:	ef 91       	pop	r30
    1caa:	bf 91       	pop	r27
    1cac:	af 91       	pop	r26
    1cae:	9f 91       	pop	r25
    1cb0:	8f 91       	pop	r24
    1cb2:	7f 91       	pop	r23
    1cb4:	6f 91       	pop	r22
    1cb6:	5f 91       	pop	r21
    1cb8:	4f 91       	pop	r20
    1cba:	3f 91       	pop	r19
    1cbc:	2f 91       	pop	r18
    1cbe:	0f 90       	pop	r0
    1cc0:	0b be       	out	0x3b, r0	; 59
    1cc2:	0f 90       	pop	r0
    1cc4:	0f be       	out	0x3f, r0	; 63
    1cc6:	0f 90       	pop	r0
    1cc8:	1f 90       	pop	r1
    1cca:	18 95       	reti
    1ccc:	86 e5       	ldi	r24, 0x56	; 86
    1cce:	92 e0       	ldi	r25, 0x02	; 2
    1cd0:	b8 d9       	rcall	.-3216   	; 0x1042 <_ZNV9cmdParser14inc_parser_cntEv>
    1cd2:	e9 cf       	rjmp	.-46     	; 0x1ca6 <__vector_25+0x44>

00001cd4 <__vector_36>:
    1cd4:	1f 92       	push	r1
    1cd6:	0f 92       	push	r0
    1cd8:	0f b6       	in	r0, 0x3f	; 63
    1cda:	0f 92       	push	r0
    1cdc:	11 24       	eor	r1, r1
    1cde:	8f 93       	push	r24
    1ce0:	80 91 ce 00 	lds	r24, 0x00CE	; 0x8000ce <__TEXT_REGION_LENGTH__+0x7000ce>
    1ce4:	8f 91       	pop	r24
    1ce6:	0f 90       	pop	r0
    1ce8:	0f be       	out	0x3f, r0	; 63
    1cea:	0f 90       	pop	r0
    1cec:	1f 90       	pop	r1
    1cee:	18 95       	reti

00001cf0 <_Z11serial_out0Phh>:
    1cf0:	1f 93       	push	r17
    1cf2:	cf 93       	push	r28
    1cf4:	df 93       	push	r29
    1cf6:	18 2f       	mov	r17, r24
    1cf8:	d9 2f       	mov	r29, r25
    1cfa:	c6 2f       	mov	r28, r22
    1cfc:	89 e2       	ldi	r24, 0x29	; 41
    1cfe:	94 e0       	ldi	r25, 0x04	; 4
    1d00:	43 db       	rcall	.-2426   	; 0x1388 <_ZNV4lock7tryLockEv>
    1d02:	cc 23       	and	r28, r28
    1d04:	a9 f0       	breq	.+42     	; 0x1d30 <_Z11serial_out0Phh+0x40>
    1d06:	e1 2f       	mov	r30, r17
    1d08:	fd 2f       	mov	r31, r29
    1d0a:	c1 50       	subi	r28, 0x01	; 1
    1d0c:	2c 2f       	mov	r18, r28
    1d0e:	30 e0       	ldi	r19, 0x00	; 0
    1d10:	2f 5f       	subi	r18, 0xFF	; 255
    1d12:	3f 4f       	sbci	r19, 0xFF	; 255
    1d14:	2e 0f       	add	r18, r30
    1d16:	3f 1f       	adc	r19, r31
    1d18:	01 c0       	rjmp	.+2      	; 0x1d1c <_Z11serial_out0Phh+0x2c>
    1d1a:	00 00       	nop
    1d1c:	80 91 c0 00 	lds	r24, 0x00C0	; 0x8000c0 <__TEXT_REGION_LENGTH__+0x7000c0>
    1d20:	85 ff       	sbrs	r24, 5
    1d22:	fb cf       	rjmp	.-10     	; 0x1d1a <_Z11serial_out0Phh+0x2a>
    1d24:	81 91       	ld	r24, Z+
    1d26:	80 93 c6 00 	sts	0x00C6, r24	; 0x8000c6 <__TEXT_REGION_LENGTH__+0x7000c6>
    1d2a:	e2 17       	cp	r30, r18
    1d2c:	f3 07       	cpc	r31, r19
    1d2e:	b1 f7       	brne	.-20     	; 0x1d1c <_Z11serial_out0Phh+0x2c>
    1d30:	89 e2       	ldi	r24, 0x29	; 41
    1d32:	94 e0       	ldi	r25, 0x04	; 4
    1d34:	df 91       	pop	r29
    1d36:	cf 91       	pop	r28
    1d38:	1f 91       	pop	r17
    1d3a:	31 cb       	rjmp	.-2462   	; 0x139e <_ZNV4lock6unlockEv>

00001d3c <_GLOBAL__sub_I_InBufferUart0>:
    1d3c:	89 e2       	ldi	r24, 0x29	; 41
    1d3e:	94 e0       	ldi	r25, 0x04	; 4
    1d40:	20 cb       	rjmp	.-2496   	; 0x1382 <_ZN4lockC1Ev>

00001d42 <__tablejump2__>:
    1d42:	ee 0f       	add	r30, r30
    1d44:	ff 1f       	adc	r31, r31
    1d46:	88 1f       	adc	r24, r24
    1d48:	8b bf       	out	0x3b, r24	; 59
    1d4a:	07 90       	elpm	r0, Z+
    1d4c:	f6 91       	elpm	r31, Z
    1d4e:	e0 2d       	mov	r30, r0
    1d50:	19 94       	eijmp

00001d52 <__mulhisi3>:
    1d52:	05 d0       	rcall	.+10     	; 0x1d5e <__umulhisi3>
    1d54:	33 23       	and	r19, r19
    1d56:	12 f4       	brpl	.+4      	; 0x1d5c <__mulhisi3+0xa>
    1d58:	8a 1b       	sub	r24, r26
    1d5a:	9b 0b       	sbc	r25, r27
    1d5c:	10 c0       	rjmp	.+32     	; 0x1d7e <__usmulhisi3_tail>

00001d5e <__umulhisi3>:
    1d5e:	a2 9f       	mul	r26, r18
    1d60:	b0 01       	movw	r22, r0
    1d62:	b3 9f       	mul	r27, r19
    1d64:	c0 01       	movw	r24, r0
    1d66:	a3 9f       	mul	r26, r19
    1d68:	70 0d       	add	r23, r0
    1d6a:	81 1d       	adc	r24, r1
    1d6c:	11 24       	eor	r1, r1
    1d6e:	91 1d       	adc	r25, r1
    1d70:	b2 9f       	mul	r27, r18
    1d72:	70 0d       	add	r23, r0
    1d74:	81 1d       	adc	r24, r1
    1d76:	11 24       	eor	r1, r1
    1d78:	91 1d       	adc	r25, r1
    1d7a:	08 95       	ret

00001d7c <__usmulhisi3>:
    1d7c:	f0 df       	rcall	.-32     	; 0x1d5e <__umulhisi3>

00001d7e <__usmulhisi3_tail>:
    1d7e:	b7 ff       	sbrs	r27, 7
    1d80:	08 95       	ret
    1d82:	82 1b       	sub	r24, r18
    1d84:	93 0b       	sbc	r25, r19
    1d86:	08 95       	ret

00001d88 <malloc>:
    1d88:	0f 93       	push	r16
    1d8a:	1f 93       	push	r17
    1d8c:	cf 93       	push	r28
    1d8e:	df 93       	push	r29
    1d90:	82 30       	cpi	r24, 0x02	; 2
    1d92:	91 05       	cpc	r25, r1
    1d94:	10 f4       	brcc	.+4      	; 0x1d9a <malloc+0x12>
    1d96:	82 e0       	ldi	r24, 0x02	; 2
    1d98:	90 e0       	ldi	r25, 0x00	; 0
    1d9a:	e0 91 2d 05 	lds	r30, 0x052D	; 0x80052d <__flp>
    1d9e:	f0 91 2e 05 	lds	r31, 0x052E	; 0x80052e <__flp+0x1>
    1da2:	20 e0       	ldi	r18, 0x00	; 0
    1da4:	30 e0       	ldi	r19, 0x00	; 0
    1da6:	a0 e0       	ldi	r26, 0x00	; 0
    1da8:	b0 e0       	ldi	r27, 0x00	; 0
    1daa:	30 97       	sbiw	r30, 0x00	; 0
    1dac:	19 f1       	breq	.+70     	; 0x1df4 <malloc+0x6c>
    1dae:	40 81       	ld	r20, Z
    1db0:	51 81       	ldd	r21, Z+1	; 0x01
    1db2:	02 81       	ldd	r16, Z+2	; 0x02
    1db4:	13 81       	ldd	r17, Z+3	; 0x03
    1db6:	48 17       	cp	r20, r24
    1db8:	59 07       	cpc	r21, r25
    1dba:	c8 f0       	brcs	.+50     	; 0x1dee <malloc+0x66>
    1dbc:	84 17       	cp	r24, r20
    1dbe:	95 07       	cpc	r25, r21
    1dc0:	69 f4       	brne	.+26     	; 0x1ddc <malloc+0x54>
    1dc2:	10 97       	sbiw	r26, 0x00	; 0
    1dc4:	31 f0       	breq	.+12     	; 0x1dd2 <malloc+0x4a>
    1dc6:	12 96       	adiw	r26, 0x02	; 2
    1dc8:	0c 93       	st	X, r16
    1dca:	12 97       	sbiw	r26, 0x02	; 2
    1dcc:	13 96       	adiw	r26, 0x03	; 3
    1dce:	1c 93       	st	X, r17
    1dd0:	27 c0       	rjmp	.+78     	; 0x1e20 <malloc+0x98>
    1dd2:	00 93 2d 05 	sts	0x052D, r16	; 0x80052d <__flp>
    1dd6:	10 93 2e 05 	sts	0x052E, r17	; 0x80052e <__flp+0x1>
    1dda:	22 c0       	rjmp	.+68     	; 0x1e20 <malloc+0x98>
    1ddc:	21 15       	cp	r18, r1
    1dde:	31 05       	cpc	r19, r1
    1de0:	19 f0       	breq	.+6      	; 0x1de8 <malloc+0x60>
    1de2:	42 17       	cp	r20, r18
    1de4:	53 07       	cpc	r21, r19
    1de6:	18 f4       	brcc	.+6      	; 0x1dee <malloc+0x66>
    1de8:	9a 01       	movw	r18, r20
    1dea:	bd 01       	movw	r22, r26
    1dec:	ef 01       	movw	r28, r30
    1dee:	df 01       	movw	r26, r30
    1df0:	f8 01       	movw	r30, r16
    1df2:	db cf       	rjmp	.-74     	; 0x1daa <malloc+0x22>
    1df4:	21 15       	cp	r18, r1
    1df6:	31 05       	cpc	r19, r1
    1df8:	f9 f0       	breq	.+62     	; 0x1e38 <malloc+0xb0>
    1dfa:	28 1b       	sub	r18, r24
    1dfc:	39 0b       	sbc	r19, r25
    1dfe:	24 30       	cpi	r18, 0x04	; 4
    1e00:	31 05       	cpc	r19, r1
    1e02:	80 f4       	brcc	.+32     	; 0x1e24 <malloc+0x9c>
    1e04:	8a 81       	ldd	r24, Y+2	; 0x02
    1e06:	9b 81       	ldd	r25, Y+3	; 0x03
    1e08:	61 15       	cp	r22, r1
    1e0a:	71 05       	cpc	r23, r1
    1e0c:	21 f0       	breq	.+8      	; 0x1e16 <malloc+0x8e>
    1e0e:	fb 01       	movw	r30, r22
    1e10:	93 83       	std	Z+3, r25	; 0x03
    1e12:	82 83       	std	Z+2, r24	; 0x02
    1e14:	04 c0       	rjmp	.+8      	; 0x1e1e <malloc+0x96>
    1e16:	90 93 2e 05 	sts	0x052E, r25	; 0x80052e <__flp+0x1>
    1e1a:	80 93 2d 05 	sts	0x052D, r24	; 0x80052d <__flp>
    1e1e:	fe 01       	movw	r30, r28
    1e20:	32 96       	adiw	r30, 0x02	; 2
    1e22:	44 c0       	rjmp	.+136    	; 0x1eac <malloc+0x124>
    1e24:	fe 01       	movw	r30, r28
    1e26:	e2 0f       	add	r30, r18
    1e28:	f3 1f       	adc	r31, r19
    1e2a:	81 93       	st	Z+, r24
    1e2c:	91 93       	st	Z+, r25
    1e2e:	22 50       	subi	r18, 0x02	; 2
    1e30:	31 09       	sbc	r19, r1
    1e32:	39 83       	std	Y+1, r19	; 0x01
    1e34:	28 83       	st	Y, r18
    1e36:	3a c0       	rjmp	.+116    	; 0x1eac <malloc+0x124>
    1e38:	20 91 2b 05 	lds	r18, 0x052B	; 0x80052b <__brkval>
    1e3c:	30 91 2c 05 	lds	r19, 0x052C	; 0x80052c <__brkval+0x1>
    1e40:	23 2b       	or	r18, r19
    1e42:	41 f4       	brne	.+16     	; 0x1e54 <malloc+0xcc>
    1e44:	20 91 02 02 	lds	r18, 0x0202	; 0x800202 <__malloc_heap_start>
    1e48:	30 91 03 02 	lds	r19, 0x0203	; 0x800203 <__malloc_heap_start+0x1>
    1e4c:	30 93 2c 05 	sts	0x052C, r19	; 0x80052c <__brkval+0x1>
    1e50:	20 93 2b 05 	sts	0x052B, r18	; 0x80052b <__brkval>
    1e54:	20 91 00 02 	lds	r18, 0x0200	; 0x800200 <__data_start>
    1e58:	30 91 01 02 	lds	r19, 0x0201	; 0x800201 <__data_start+0x1>
    1e5c:	21 15       	cp	r18, r1
    1e5e:	31 05       	cpc	r19, r1
    1e60:	41 f4       	brne	.+16     	; 0x1e72 <malloc+0xea>
    1e62:	2d b7       	in	r18, 0x3d	; 61
    1e64:	3e b7       	in	r19, 0x3e	; 62
    1e66:	40 91 04 02 	lds	r20, 0x0204	; 0x800204 <__malloc_margin>
    1e6a:	50 91 05 02 	lds	r21, 0x0205	; 0x800205 <__malloc_margin+0x1>
    1e6e:	24 1b       	sub	r18, r20
    1e70:	35 0b       	sbc	r19, r21
    1e72:	e0 91 2b 05 	lds	r30, 0x052B	; 0x80052b <__brkval>
    1e76:	f0 91 2c 05 	lds	r31, 0x052C	; 0x80052c <__brkval+0x1>
    1e7a:	e2 17       	cp	r30, r18
    1e7c:	f3 07       	cpc	r31, r19
    1e7e:	a0 f4       	brcc	.+40     	; 0x1ea8 <malloc+0x120>
    1e80:	2e 1b       	sub	r18, r30
    1e82:	3f 0b       	sbc	r19, r31
    1e84:	28 17       	cp	r18, r24
    1e86:	39 07       	cpc	r19, r25
    1e88:	78 f0       	brcs	.+30     	; 0x1ea8 <malloc+0x120>
    1e8a:	ac 01       	movw	r20, r24
    1e8c:	4e 5f       	subi	r20, 0xFE	; 254
    1e8e:	5f 4f       	sbci	r21, 0xFF	; 255
    1e90:	24 17       	cp	r18, r20
    1e92:	35 07       	cpc	r19, r21
    1e94:	48 f0       	brcs	.+18     	; 0x1ea8 <malloc+0x120>
    1e96:	4e 0f       	add	r20, r30
    1e98:	5f 1f       	adc	r21, r31
    1e9a:	50 93 2c 05 	sts	0x052C, r21	; 0x80052c <__brkval+0x1>
    1e9e:	40 93 2b 05 	sts	0x052B, r20	; 0x80052b <__brkval>
    1ea2:	81 93       	st	Z+, r24
    1ea4:	91 93       	st	Z+, r25
    1ea6:	02 c0       	rjmp	.+4      	; 0x1eac <malloc+0x124>
    1ea8:	e0 e0       	ldi	r30, 0x00	; 0
    1eaa:	f0 e0       	ldi	r31, 0x00	; 0
    1eac:	cf 01       	movw	r24, r30
    1eae:	df 91       	pop	r29
    1eb0:	cf 91       	pop	r28
    1eb2:	1f 91       	pop	r17
    1eb4:	0f 91       	pop	r16
    1eb6:	08 95       	ret

00001eb8 <free>:
    1eb8:	cf 93       	push	r28
    1eba:	df 93       	push	r29
    1ebc:	00 97       	sbiw	r24, 0x00	; 0
    1ebe:	09 f4       	brne	.+2      	; 0x1ec2 <free+0xa>
    1ec0:	81 c0       	rjmp	.+258    	; 0x1fc4 <free+0x10c>
    1ec2:	fc 01       	movw	r30, r24
    1ec4:	32 97       	sbiw	r30, 0x02	; 2
    1ec6:	13 82       	std	Z+3, r1	; 0x03
    1ec8:	12 82       	std	Z+2, r1	; 0x02
    1eca:	a0 91 2d 05 	lds	r26, 0x052D	; 0x80052d <__flp>
    1ece:	b0 91 2e 05 	lds	r27, 0x052E	; 0x80052e <__flp+0x1>
    1ed2:	10 97       	sbiw	r26, 0x00	; 0
    1ed4:	81 f4       	brne	.+32     	; 0x1ef6 <free+0x3e>
    1ed6:	20 81       	ld	r18, Z
    1ed8:	31 81       	ldd	r19, Z+1	; 0x01
    1eda:	82 0f       	add	r24, r18
    1edc:	93 1f       	adc	r25, r19
    1ede:	20 91 2b 05 	lds	r18, 0x052B	; 0x80052b <__brkval>
    1ee2:	30 91 2c 05 	lds	r19, 0x052C	; 0x80052c <__brkval+0x1>
    1ee6:	28 17       	cp	r18, r24
    1ee8:	39 07       	cpc	r19, r25
    1eea:	51 f5       	brne	.+84     	; 0x1f40 <free+0x88>
    1eec:	f0 93 2c 05 	sts	0x052C, r31	; 0x80052c <__brkval+0x1>
    1ef0:	e0 93 2b 05 	sts	0x052B, r30	; 0x80052b <__brkval>
    1ef4:	67 c0       	rjmp	.+206    	; 0x1fc4 <free+0x10c>
    1ef6:	ed 01       	movw	r28, r26
    1ef8:	20 e0       	ldi	r18, 0x00	; 0
    1efa:	30 e0       	ldi	r19, 0x00	; 0
    1efc:	ce 17       	cp	r28, r30
    1efe:	df 07       	cpc	r29, r31
    1f00:	40 f4       	brcc	.+16     	; 0x1f12 <free+0x5a>
    1f02:	4a 81       	ldd	r20, Y+2	; 0x02
    1f04:	5b 81       	ldd	r21, Y+3	; 0x03
    1f06:	9e 01       	movw	r18, r28
    1f08:	41 15       	cp	r20, r1
    1f0a:	51 05       	cpc	r21, r1
    1f0c:	f1 f0       	breq	.+60     	; 0x1f4a <free+0x92>
    1f0e:	ea 01       	movw	r28, r20
    1f10:	f5 cf       	rjmp	.-22     	; 0x1efc <free+0x44>
    1f12:	d3 83       	std	Z+3, r29	; 0x03
    1f14:	c2 83       	std	Z+2, r28	; 0x02
    1f16:	40 81       	ld	r20, Z
    1f18:	51 81       	ldd	r21, Z+1	; 0x01
    1f1a:	84 0f       	add	r24, r20
    1f1c:	95 1f       	adc	r25, r21
    1f1e:	c8 17       	cp	r28, r24
    1f20:	d9 07       	cpc	r29, r25
    1f22:	59 f4       	brne	.+22     	; 0x1f3a <free+0x82>
    1f24:	88 81       	ld	r24, Y
    1f26:	99 81       	ldd	r25, Y+1	; 0x01
    1f28:	84 0f       	add	r24, r20
    1f2a:	95 1f       	adc	r25, r21
    1f2c:	02 96       	adiw	r24, 0x02	; 2
    1f2e:	91 83       	std	Z+1, r25	; 0x01
    1f30:	80 83       	st	Z, r24
    1f32:	8a 81       	ldd	r24, Y+2	; 0x02
    1f34:	9b 81       	ldd	r25, Y+3	; 0x03
    1f36:	93 83       	std	Z+3, r25	; 0x03
    1f38:	82 83       	std	Z+2, r24	; 0x02
    1f3a:	21 15       	cp	r18, r1
    1f3c:	31 05       	cpc	r19, r1
    1f3e:	29 f4       	brne	.+10     	; 0x1f4a <free+0x92>
    1f40:	f0 93 2e 05 	sts	0x052E, r31	; 0x80052e <__flp+0x1>
    1f44:	e0 93 2d 05 	sts	0x052D, r30	; 0x80052d <__flp>
    1f48:	3d c0       	rjmp	.+122    	; 0x1fc4 <free+0x10c>
    1f4a:	e9 01       	movw	r28, r18
    1f4c:	fb 83       	std	Y+3, r31	; 0x03
    1f4e:	ea 83       	std	Y+2, r30	; 0x02
    1f50:	49 91       	ld	r20, Y+
    1f52:	59 91       	ld	r21, Y+
    1f54:	c4 0f       	add	r28, r20
    1f56:	d5 1f       	adc	r29, r21
    1f58:	ec 17       	cp	r30, r28
    1f5a:	fd 07       	cpc	r31, r29
    1f5c:	61 f4       	brne	.+24     	; 0x1f76 <free+0xbe>
    1f5e:	80 81       	ld	r24, Z
    1f60:	91 81       	ldd	r25, Z+1	; 0x01
    1f62:	84 0f       	add	r24, r20
    1f64:	95 1f       	adc	r25, r21
    1f66:	02 96       	adiw	r24, 0x02	; 2
    1f68:	e9 01       	movw	r28, r18
    1f6a:	99 83       	std	Y+1, r25	; 0x01
    1f6c:	88 83       	st	Y, r24
    1f6e:	82 81       	ldd	r24, Z+2	; 0x02
    1f70:	93 81       	ldd	r25, Z+3	; 0x03
    1f72:	9b 83       	std	Y+3, r25	; 0x03
    1f74:	8a 83       	std	Y+2, r24	; 0x02
    1f76:	e0 e0       	ldi	r30, 0x00	; 0
    1f78:	f0 e0       	ldi	r31, 0x00	; 0
    1f7a:	12 96       	adiw	r26, 0x02	; 2
    1f7c:	8d 91       	ld	r24, X+
    1f7e:	9c 91       	ld	r25, X
    1f80:	13 97       	sbiw	r26, 0x03	; 3
    1f82:	00 97       	sbiw	r24, 0x00	; 0
    1f84:	19 f0       	breq	.+6      	; 0x1f8c <free+0xd4>
    1f86:	fd 01       	movw	r30, r26
    1f88:	dc 01       	movw	r26, r24
    1f8a:	f7 cf       	rjmp	.-18     	; 0x1f7a <free+0xc2>
    1f8c:	8d 91       	ld	r24, X+
    1f8e:	9c 91       	ld	r25, X
    1f90:	11 97       	sbiw	r26, 0x01	; 1
    1f92:	9d 01       	movw	r18, r26
    1f94:	2e 5f       	subi	r18, 0xFE	; 254
    1f96:	3f 4f       	sbci	r19, 0xFF	; 255
    1f98:	82 0f       	add	r24, r18
    1f9a:	93 1f       	adc	r25, r19
    1f9c:	20 91 2b 05 	lds	r18, 0x052B	; 0x80052b <__brkval>
    1fa0:	30 91 2c 05 	lds	r19, 0x052C	; 0x80052c <__brkval+0x1>
    1fa4:	28 17       	cp	r18, r24
    1fa6:	39 07       	cpc	r19, r25
    1fa8:	69 f4       	brne	.+26     	; 0x1fc4 <free+0x10c>
    1faa:	30 97       	sbiw	r30, 0x00	; 0
    1fac:	29 f4       	brne	.+10     	; 0x1fb8 <free+0x100>
    1fae:	10 92 2e 05 	sts	0x052E, r1	; 0x80052e <__flp+0x1>
    1fb2:	10 92 2d 05 	sts	0x052D, r1	; 0x80052d <__flp>
    1fb6:	02 c0       	rjmp	.+4      	; 0x1fbc <free+0x104>
    1fb8:	13 82       	std	Z+3, r1	; 0x03
    1fba:	12 82       	std	Z+2, r1	; 0x02
    1fbc:	b0 93 2c 05 	sts	0x052C, r27	; 0x80052c <__brkval+0x1>
    1fc0:	a0 93 2b 05 	sts	0x052B, r26	; 0x80052b <__brkval>
    1fc4:	df 91       	pop	r29
    1fc6:	cf 91       	pop	r28
    1fc8:	08 95       	ret

00001fca <__do_global_dtors>:
    1fca:	13 e0       	ldi	r17, 0x03	; 3
    1fcc:	cb ed       	ldi	r28, 0xDB	; 219
    1fce:	d3 e0       	ldi	r29, 0x03	; 3
    1fd0:	00 e0       	ldi	r16, 0x00	; 0
    1fd2:	05 c0       	rjmp	.+10     	; 0x1fde <__do_global_dtors+0x14>
    1fd4:	80 2f       	mov	r24, r16
    1fd6:	fe 01       	movw	r30, r28
    1fd8:	b4 de       	rcall	.-664    	; 0x1d42 <__tablejump2__>
    1fda:	21 96       	adiw	r28, 0x01	; 1
    1fdc:	01 1d       	adc	r16, r1
    1fde:	cc 3d       	cpi	r28, 0xDC	; 220
    1fe0:	d1 07       	cpc	r29, r17
    1fe2:	80 e0       	ldi	r24, 0x00	; 0
    1fe4:	08 07       	cpc	r16, r24
    1fe6:	b1 f7       	brne	.-20     	; 0x1fd4 <__do_global_dtors+0xa>
    1fe8:	f8 94       	cli

00001fea <__stop_program>:
    1fea:	ff cf       	rjmp	.-2      	; 0x1fea <__stop_program>
